Dc:_glClearStencil
TAe:_Array_InternalArray__ICollection_Add_TisMark_t2724874473_m1613484179_gshared
C0g:__ZL80Graphic_t2426225576_CustomAttributesCacheGenerator_Graphic_OnFillVBO_m1723985607P21CustomAttributesCache
LPj:__ZN6il2cpp2vm5Array13GetByteLengthEP11Il2CppArray
YMh:_Raycast3DCallback_BeginInvoke_m3028685017
wlh:__Z79RuntimeInvoker_RuntimeObject_Int64_t909078037_Int64_t909078037_Int64_t909078037PFvvEPK10MethodInfoPvPS4_
BAg:__ZL61IRemotingFormatter_t4112065742_CustomAttributesCacheGeneratorP21CustomAttributesCache
Rtd:__ZN15DownloadHandler7OnAbortEv
$8i:_TextGenerator_Invalidate_m1993568841
mGf:_Comparison_1_Invoke_m353639462_gshared
bSa:__Z30GetIntermediateRendererManagerv
gK:__ZN10StateRange8TransferI14SafeBinaryReadEEvRT_
Dsa:__Z21SourceMipLevelForBlitiiii
JWa:__ZN31CanvasBatchIntermediateRenderer15AddAsRenderNodeER15RenderNodeQueueRK20DeprecatedSourceData
fMg:__ZL87Component_t3819376471_CustomAttributesCacheGenerator_Component_GetComponent_m1409092944P21CustomAttributesCache
Gah:_GenericTypeParameterBuilder_GetEvent_m4210567427
$de:_Enumerator_get_Key_m2908810861
SK:__ZN15SerializeTraitsIN7mecanim6bitsetILj70EEEE8TransferI14SafeBinaryReadEEvRS2_RT_
red:__ZN18StreamedBinaryReadILb0EE19TransferSTLStyleMapINSt3__23mapIN4math12int3_storageE17TileAnimationData20TilemapPosition_Less13stl_allocatorINS2_4pairIKS5_S6_EEL18MemLabelIdentifier95ELi16EEEEEEvRT_17TransferMetaFlags
vpd:__ZN11UnityEngine7Connect14AppUpdateEventD0Ev
VTi:_GUI_DoSetSkin_m2532620610
sIh:__Z35RuntimeInvoker_UIVertex_t1204258818PFvvEPK10MethodInfoPvPS4_
Y3:__ZdlPv
S_g:__ZL77StandaloneInputModule_t70867863_CustomAttributesCacheGenerator_m_VerticalAxisP21CustomAttributesCache
Ux:__ZN11UnityEngine9Animation28GenericAnimationBindingCacheD2Ev
IAg:__ZL68RemotingSurrogateSelector_t2821375126_CustomAttributesCacheGeneratorP21CustomAttributesCache
ms:__ZN15AnimationBinder13SetFloatValueERK20BoundCurveDeprecatedf
cef:_List_1_System_Collections_IList_IndexOf_m39706221_gshared
K$h:_Dictionary_2_Remove_m1849931834_gshared
Rge:_Decimal_op_Implicit_m2971610317
gVi:_GUILayoutGroup_ResetCursor_m3614985691
cTd:_Graphic_UnregisterDirtyVerticesCallback_m1526739224
X4b:__Z18RestoreRenderStateR20CameraRenderOldStateR17ShaderPassContext
J9d:_SynchronizedArrayListWrapper_get_Item_m3309425850
DHb:__Z18Transfer_BlittableI18StreamedBinaryReadILb1EELb1E5RectTIfEEvRK29SerializationCommandArgumentsR31RuntimeSerializationCommandInfo
kCi:_UnityEventBase_RebuildPersistentCallsIfNeeded_m2776978024
jMi:_Rect_set_height_m1455613541_AdjustorThunk
vDb:__Z18Transfer_BlittableI24GenerateTypeTreeTransferLb0E11ColorRGBA32EvRK29SerializationCommandArgumentsR31RuntimeSerializationCommandInfo
Caa:__Z25scripting_class_from_name17ScriptingImagePtrPKcS1_
MCj:__ZN14dense_hash_mapI10KeyWrapperINSt3__24pairIPK12PropertyInfoP11Il2CppClassEEEj17ReflectionMapHashIS8_ENS9_14EqualsComparerINS1_8equal_toIS8_EEEENS1_9allocatorINS2_IKS9_jEEEEE15set_deleted_keyERSH_
HNb:__Z29scripting_class_enum_basetype17ScriptingClassPtr
Jni:__ZN21InterfaceFuncInvoker3IP12Il2CppObjectP8String_tS1_PS3_E6InvokeEjP11Il2CppClassS1_S3_S1_S4_
vWd:_GraphicRaycaster_get_ignoreReversedGraphics_m2757724367
Uwh:__Z111RuntimeInvoker_Void_t1841601450_Vector4_t2243707581_Vector4_t2243707581_Vector4_t2243707581_Vector4_t2243707581PFvvEPK10MethodInfoPvPS4_
qPa:__ZNK12BaseRenderer18GetRenderNodeCountEv
jRc:__ZN16PhysicsManager2D7RaycastERK3RayfiR12RaycastHit2D
rbh:_GenericTypeParameterBuilder_GetHashCode_m867619899
gkg:_TimeSpan_ToString_m2947282901
_4h:_EqualityComparer_1__cctor_m3397254040_gshared
Yub:__ZNK20LocalFileSystemPosix6ParentERK13FileEntryDataRN4core12basic_stringIcNS3_20StringStorageDefaultIcEEEE
Hfa:__ZN15DirectorManager12CleanupClassEv
IXg:__ZL94Canvas_t209405766_CustomAttributesCacheGenerator_Canvas_set_referencePixelsPerUnit_m2893619836P21CustomAttributesCache
s8e:_MonoType_CheckMethodSecurity_m4116906190
gGe:_Array_Sort_TisVector2_t2243707579_m1307634946_gshared
gqa:__ZN7ApiGLES17CopyBufferSubDataEjjlll
_ng:_UInt64_System_IConvertible_ToDecimal_m4205696037
eCc:__ZN5Unity9rapidjson15GenericDocumentINS0_4UTF8IcEE13JSONAllocatorS4_E11ParseStreamILj1ES3_NS0_25GenericInsituStringStreamIS3_EEEERS5_RT1_
sjj:__ZNSt3__26vectorIPK10Il2CppTypeNS_9allocatorIS3_EEE7reserveEj
O9i:_U3CCreateWhereIteratorU3Ec__Iterator1D_1_Reset_m1773515612_gshared
XYb:__ZN25CameraStackRenderingState20GetOrCreateBuiltinRTE24BuiltinRenderTextureTypeii17DepthBufferFormat19RenderTextureFormatj22RenderTextureReadWrite14VRTextureUsagei
ZZd:_InputField_get_caretPosition_m1005871812
Ecj:_scoring_addscore_m119767124
p_h:_Dictionary_2__ctor_m3111963761_gshared
C$i:_AesManaged_CreateEncryptor_m1729287824
o9a:__ZNK14Texture2DArray26CanReuploadDataToGfxDeviceEv
q1b:__ZN17PrePassRenderLoop14RenderBasePassEP13RenderTextureRK14LightingLayersR13dynamic_arrayI16RenderObjectDataLj4EERbR10MinMaxAABB
lNa:__ZN17GlobalGameManager23VirtualRedirectTransferER17RemapPPtrTransfer
r4c:_sfnt_stream_close
GVd:_GraphicRegistry_RegisterGraphicForCanvas_m2284226562
O6d:_Char_System_IConvertible_ToInt16_m2741348777_AdjustorThunk
Uzc:__ZN5IMGUI18RepaintModalWindowER8GUIState
bVd:_FontData_get_verticalOverflow_m83665814
Izf:_ReadOnlyCollection_1_System_Collections_Generic_IListU3CTU3E_set_Item_m1547026160_gshared
TQa:__ZNK15dense_hashtableINSt3__24pairIKN9ShaderLab7Program23ShaderKeywordSetAndHashEPKNS2_10SubProgramEEES4_NS3_24ShaderKeywordHashFunctorEN14dense_hash_mapIS4_S8_SA_NS0_8equal_toIS4_EE13stl_allocatorIS9_L18MemLabelIdentifier67ELi16EEE9SelectKeyESD_SG_E23find_position_with_hashERS5_j
Itg:__ZL61MarshalAsAttribute_t2900773360_CustomAttributesCacheGeneratorP21CustomAttributesCache
X7a:__Z23SetSpriteMeshIndexCountP14SharedMeshDataj
AYa:__ZN7Texture13SetFilterModeEi
XLg:__ZL87Camera_t189460977_CustomAttributesCacheGenerator_Camera_get_allCamerasCount_m1873043770P21CustomAttributesCache
oqc:__Z46Register_UnityEngine_Application_get_isPlayingv
KRj:__ZN6il2cpp8metadata13GenericMethod9GetMethodEPK19Il2CppGenericMethod
vq:__ZNSt3__26vectorIN4core12basic_stringIcNS1_20StringStorageDefaultIcEEEENS_9allocatorIS5_EEE7reserveEj
kje:_Convert_ToUInt16_m2130758075
Uyj:__ZN15dense_hashtableINSt3__24pairIK10KeyWrapperINS1_IPK11Il2CppImageP11Il2CppClassEEEjEES9_17ReflectionMapHashIS8_EN14dense_hash_mapIS9_jSD_NS9_14EqualsComparerINS0_8equal_toIS8_EEEENS0_9allocatorISB_EEE9SelectKeyESI_SK_E3endEv
jZf:_X509BasicConstraintsExtension_Encode_m3505127076
pka:__ZN13GfxDeviceGLES11SetViewportERK5RectTIiE
aYd:_Image_get_pixelsPerUnit_m4104195799
uTh:_Toggle_InternalToggle_m2323729210
wne:_Decimal_System_IConvertible_ToInt64_m2504363272
W1d:_Array_GetValue_m3182152438
Ud:_emscripten_glDepthRange
Acg:_DESTransform_CipherFunct_m3559419566
Dyd:_Rijndael_Create_m113171669
jag:_RuntimeFieldHandle_get_Value_m3963757144
e7b:__ZNSt3__26vectorINS_4pairIN4core12basic_stringIcNS2_20StringStorageDefaultIcEEEES6_EE13stl_allocatorIS7_L18MemLabelIdentifier38ELi16EEE12__move_rangeEPS7_SC_SC_
Xnb:__Z14resize_trimmedINSt3__26vectorIN9ShaderLab20SerializedSubProgram12UAVParameterENS0_9allocatorIS4_EEEEEvRT_j
yCc:__ZN5Unity9rapidjson13GenericReaderINS0_4UTF8IcEES3_13JSONAllocatorE11ParseObjectILj1ENS0_25GenericInsituStringStreamIS3_EENS0_15GenericDocumentIS3_S4_S4_EEEEvRT0_RT1_
Q7f:_SerializationInfo_AddValue_m1781549036
RFh:__Z59RuntimeInvoker_Void_t1841601450_PlayableBinding_t2498078091PFvvEPK10MethodInfoPvPS4_
kNf:_TlsServerKeyExchange_verifySignature_m3641534563
enc:__ZN13BuildSettings34ConvertScenePathToDisplayScenePathERKN4core12basic_stringIcNS0_20StringStorageDefaultIcEEEE
Kvf:_Collection_1_Clear_m445145071_gshared
Ica:__ZNSt3__218__insertion_sort_3IRNS_6__lessI14ObjectLoadDataS2_EEPS2_EEvT0_S6_T_
XWi:_InvokableCall_1_Find_m2337296995_gshared
IRh:_Slider_FindSelectableOnLeft_m3136767885
bsa:__ZN4crndL20crnd_default_reallocEPvjPjbS0_
NVd:__ZN21InterfaceFuncInvoker1IP19Material_t193706927S1_E6InvokeEjP11Il2CppClassP12Il2CppObjectS1_
Oxe:_Array_BinarySearch_TisInt32_t2071877448_m51233948_gshared
y3j:__ZNSt3__212basic_stringIcNS_11char_traitsIcEENS_9allocatorIcEEEC2ERKS5_
l6f:_ProviderData_CopyFrom_m431414335
qyh:__Z74RuntimeInvoker_Boolean_t3825574718_Vector2_t2243707579_Vector2_t2243707579PFvvEPK10MethodInfoPvPS4_
N8a:__ZN18SpriteAtlasManager19AddRequestingSpriteE4PPtrI6SpriteE
ylc:__ZN16PackedQuatVector9PackQuatsEP11Quaternionfi
Ovc:__Z33Texture_CUSTOM_Internal_GetHeightP12Il2CppObject
r0d:_LayoutGroup_get_preferredHeight_m3901163825
YUg:__ZL106AudioSettings_t3144015719_CustomAttributesCacheGenerator_AudioSettings_GetSpatializerPluginName_m698617843P21CustomAttributesCache
$3b:__ZN23ScriptableRenderContextC2Ev
fw:__ZN7mecanim9animation18ClipMuscleConstant8TransferI24GenerateTypeTreeTransferEEvRT_
rSa:__ZN4PPtrI13RenderTextureE8TransferI18StreamedBinaryReadILb0EEEEvRT_
uge:_DateTime_AbsoluteDays_m3061694073
cbd:_UNITY_FT_Stream_GetChar
cIb:__Z18Transfer_BlittableI18StreamedBinaryReadILb1EELb1EdEvRK29SerializationCommandArgumentsR31RuntimeSerializationCommandInfo
MVh:_Enumerator_System_Collections_IEnumerator_get_Current_m229223308_gshared
cLg:__ZL202U3CCreateWhereIteratorU3Ec__Iterator1D_1_t2523986802_CustomAttributesCacheGenerator_U3CCreateWhereIteratorU3Ec__Iterator1D_1_System_Collections_Generic_IEnumerableU3CTSourceU3E_GetEnumerator_m2392330777P21CustomAttributesCache
QNb:__Z26BuildSerializationCacheFor17ScriptingClassPtrRb
hya:__ZN7ApiGLES15BlitFramebufferEN2gl6HandleILNS0_10ObjectTypeE9EEENS0_15FramebufferReadES3_S3_iiiiiiiiNS0_15FramebufferTypeE
Usj:_il2cpp_class_get_name
fFi:_Mesh_CheckCanAccessSubmeshTriangles_m2644388378
Auh:__Z112RuntimeInvoker_RuntimeObject_RuntimeObject_RuntimeObject_RuntimeObject_RuntimeObject_RuntimeObject_RuntimeObjectPFvvEPK10MethodInfoPvPS4_
Yyg:__ZL55GCHandleType_t1970708122_CustomAttributesCacheGeneratorP21CustomAttributesCache
Vhc:__ZN13ProduceHelperI10GUIElementLb1EE7ProduceE18MemLabelIdentifier18ObjectCreationMode
G6i:__ZL25UnresolvedVirtualCall_150P12Il2CppObject23SpriteState_t1353336012S1_PK10MethodInfo
uRi:_UnitySynchronizationContext__ctor_m1804960286
jyc:__Z32TransferEnumWithNameForceIntSizeI14SafeBinaryReadN10GridLayout6LayoutEEvRT_RT0_PKc17TransferMetaFlags
xbj:_WillRenderCanvases_BeginInvoke_m4217413147
s9d:_FixedSizeArrayListWrapper_AddRange_m2071800418
pN:__ZN13ProduceHelperI8AnimatorLb0EE7ProduceE18MemLabelIdentifier18ObjectCreationMode
hPb:__Z9InitInputv
crh:__Z85RuntimeInvoker_Boolean_t3825574718_Int64_t909078037_Int64_t909078037_SByte_t454417549PFvvEPK10MethodInfoPvPS4_
qxj:__ZN15dense_hashtableINSt3__24pairIK10KeyWrapperINS1_IPK9FieldInfoP11Il2CppClassEEEjEES9_17ReflectionMapHashIS8_EN14dense_hash_mapIS9_jSD_NS9_14EqualsComparerINS0_8equal_toIS8_EEEENS0_9allocatorISB_EEE9SelectKeyESI_SK_ED2Ev
Rcf:_Enumerator_VerifyState_m2358705882_AdjustorThunk
tEb:__Z29Transfer_Blittable_ArrayFieldI24GenerateTypeTreeTransfer11ColorRGBA32EvRT_R9ArrayInfoRK23StaticTransferFieldInfo
mPg:__ZL87Time_t31991979_CustomAttributesCacheGenerator_Time_get_realtimeSinceStartup_m3888815444P21CustomAttributesCache
bwb:__ZN16MemoryFileSystem6DeleteER13FileEntryDatab
Vsa:__ZL21BlitScaleStbImageImplRK14ImageReferenceRS_NS_10ColorSpaceE
xNi:_RectTransform_INTERNAL_set_pivot_m4248720081
RTf:_TlsStream_set_Position_m378064217
Ypb:__ZN18StreamedBinaryReadILb0EE21TransferSTLStyleArrayI13dynamic_arrayIjLj4EEEEvRT_17TransferMetaFlags
bUc:__ZNSt3__26__sortIR31RayHitsByInverseDepthComparitorP12RaycastHit2DEEvT0_S5_T_
nzb:__Z29Transfer_Blittable_ArrayFieldI14SafeBinaryReadyEvRT_R9ArrayInfoRK23StaticTransferFieldInfo
yV:__ZN20SoundChannelInstance15setChannelGroupEPN4FMOD12ChannelGroupE
Exj:__ZNK15dense_hashtableINSt3__24pairIK10KeyWrapperINS1_IPK9FieldInfoP11Il2CppClassEEEjEES9_17ReflectionMapHashIS8_EN14dense_hash_mapIS9_jSD_NS9_14EqualsComparerINS0_8equal_toIS8_EEEENS0_9allocatorISB_EEE9SelectKeyESI_SK_E12test_deletedERK24dense_hashtable_iteratorISB_S9_SD_SM_SI_SK_E
Ycj:_newGun_Update_m110982466
JDd:_Evidence_Equals_m2325859915
oKi:_PlayableHandle_INTERNAL_CALL_GetPlayableTypeOf_m1683061051
C6g:_Default__ctor_m172834064
rc:invoke_vifffii
PKb:__Z35Transfer_Blittable_FixedBufferFieldI18StreamedBinaryReadILb0EEaEvRK29SerializationCommandArgumentsR31RuntimeSerializationCommandInfo
nHj:__ZN6il2cpp2vm9Exception27RaiseNullReferenceExceptionEv
Lti:_Regex_IsMatch_m2159202025
$Ka:__ZNK25MultiBlocksMemoryFileData5CloneEv
mXj:_GC_add_ext_descriptor
oYj:__ZN6il2cpp2os14WindowsRuntime22GetRestrictedErrorInfoEv
sYd:_Image_CalculateLayoutInputHorizontal_m3275149860
w3f:_RemotingServices_GetMethodBaseFromName_m3271095947
dKa:__ZN17ArchiveFileSystem11CreateAsDirER13FileEntryData
C5j:dynCall_iiiiiiiiiiii
LId:_ASCIIEncoding_GetBytes_m3617160053
vgi:_InternalEnumerator_1_MoveNext_m2289229080_AdjustorThunk
oMf:_CipherSuiteCollection_System_Collections_IList_RemoveAt_m143866082
jEa:__ZN22VertexDeclarationCacheD0Ev
Fsb:__ZL26KeywordSetToStringDontSortRKNSt3__26vectorIN4core12basic_stringIcNS1_20StringStorageDefaultIcEEEENS_9allocatorIS5_EEEERS5_
pod:__Z54Register_UnityEngine_Analytics_CustomEventData_AddCharv
Nua:__ZN6prcoreL17RemapGenericFloatI16TexFormatRGFloat17TexFormatRGBAHalfEEvPKNS_9InnerInfoE
VP:__ZN12AudioManager22CreateFMODSoundFromWWWEP10IWWWStream15FMOD_SOUND_TYPE17FMOD_SOUND_FORMATjjbbP10SampleClip
Pgc:__ZNK32RendererMaterialAnimationBinding15GenerateBindingERKN4core12basic_stringIcNS0_20StringStorageDefaultIcEEEEbRN11UnityEngine9Animation14GenericBindingE
szj:__ZN24dense_hashtable_iteratorINSt3__24pairIK10KeyWrapperINS1_IPK11Il2CppImageP11Il2CppClassEEEjEES9_17ReflectionMapHashIS8_EN14dense_hash_mapIS9_jSD_NS9_14EqualsComparerINS0_8equal_toIS8_EEEENS0_9allocatorISB_EEE9SelectKeyESI_SK_E30advance_past_empty_and_deletedEv
luh:__Z40RuntimeInvoker_HandshakeType_t2540099417PFvvEPK10MethodInfoPvPS4_
R9:__ZN8Remapper23GetOrGenerateInstanceIDERK26SerializedObjectIdentifier
wv:__ZN17AnimationCurveTplI8Vector3fEC2ERKS1_
d5e:_StreamWriter_Flush_m3426120024
kKa:__ZN17FileSystemHandler10AtomicMoveER13FileEntryDataS1_
_a:invoke_iiiiiifffiiifii
J2e:_MemoryStream__ctor_m1489366847
bEd:_SecurityElement_IsValidTag_m64902195
EVg:__ZL77AudioSourceExtension_t1813599864_CustomAttributesCacheGenerator_m_audioSourceP21CustomAttributesCache
Hhh:_PropertyInfo_SetValue_m2961483868
Mif:_List_1_System_Collections_IList_Contains_m4193366963_gshared
bqj:__ZNSt3__214__split_bufferI6pollfdRNS_9allocatorIS1_EEED2Ev
p4f:_DictionaryEnumerator_get_Value_m1915638953
_6g:_ConstructorInfo_Invoke_m2144827141
i8a:__ZN6Sprite8TransferI24GenerateTypeTreeTransferEEvRT_
Wwc:__Z48Register_UnityEngine_Transform_SetAsFirstSiblingv
l8a:__ZN7SubMesh8TransferI24GenerateTypeTreeTransferEEvRT_
Lgh:_MonoProperty_get_CanWrite_m2124922514
Hqj:__ZN6il2cpp6icalls8mscorlib6SystemL16CheckMemberMatchI9FieldInfoNS_5utils10functional6FilterINSt3__212basic_stringIcNS8_11char_traitsIcEENS8_9allocatorIcEEEENS5_13VmStringUtils23CaseInsensitiveComparerEEEEEbPKT_PK11Il2CppClassSN_iRKT0_
uLf:_CipherSuite_get_HashAlgorithmType_m3902365773
VYg:__ZL96RemoteSettings_t392466225_CustomAttributesCacheGenerator_RemoteSettings_CallOnUpdate_m1092852243P21CustomAttributesCache
z2j:_poll
v2e:_Stream_BeginRead_m1985960185
Iec:__ZN13ProduceHelperI14Texture2DArrayLb0EE7ProduceE18MemLabelIdentifier18ObjectCreationMode
Tw:__ZN7mecanim5human9HumanGoal8TransferI18StreamedBinaryReadILb0EEEEvRT_
$Xi:_UnityAction_1_EndInvoke_m350315359_gshared
EJf:_MD4Managed_GG_m1462438360
tuc:__Z53PlayableHandle_CUSTOM_INTERNAL_CALL_GetPlayableTypeOfR9HPlayable
gZc:__Z55Register_UnityEngine_Rigidbody2D_INTERNAL_CALL_AddForcev
boc:__ZN9Transform23SetSiblingIndexInternalEib
RPh:_ScrollRect_get_minWidth_m3151814267
OUd:_FontData_set_fontStyle_m130790064
I7j:dynCall_iiiifiii
Eka:__ZN13GfxDeviceGLES17DestroySubProgramEPN9ShaderLab10SubProgramE
Sz:__ZN7mecanim5human12HumanPoseSubERNS0_9HumanPoseERKS1_S4_
sSi:_Vector3_Max_m2076081170
qJf:_MD4_Create_m2582504069
b2i:_HashSet_1_System_Collections_IEnumerable_GetEnumerator_m2498631708_gshared
MLj:__ZN6il2cpp8metadata15GenericMetadata15GetGenericClassEiPK17Il2CppGenericInst
z4d:_Boolean_System_IConvertible_ToInt16_m977801621
Oxb:__Z18Transfer_BlittableI14SafeBinaryReadLb0E10Matrix4x4fEvRK29SerializationCommandArgumentsR31RuntimeSerializationCommandInfo
gNb:__Z24GetFixedBehaviourManagerv
yDh:__Z69RuntimeInvoker_Void_t1841601450_Int32_t2071877448_Vector4_t2243707581PFvvEPK10MethodInfoPvPS4_
iWb:__ZN12FlareManager9UpdateJobEP25FlareManagerUpdateJobData
kqj:__ZN6il2cpp2vm10ThreadPool4WaitEP17Il2CppAsyncResultPPv
wGi:_Plane__ctor_m730644932_AdjustorThunk
vWc:__ZN11Rigidbody2D8TransferI14SafeBinaryReadEEvRT_
K0j:_vfprintf
rAc:__ZN10GUIManager12AddGUIScriptER8ListNodeI13MonoBehaviourE
L7f:_SerializationException__ctor_m1019897788
aWa:__ZN19ShaderPropertySheet20ReservePropertyCountEj
SWb:__ZN20DynamicPropertySheetD0Ev
j7b:__ZN14SafeBinaryRead17RegisterConverterEPKcS1_PFbPvRS_E
x5:__ZN35RegisterRuntimeInitializeAndCleanup8RegisterEPFvPvES2_iS0_
Plh:__Z92RuntimeInvoker_RuntimeObject_Int32_t2071877448_Int32_t2071877448_RuntimeObject_RuntimeObjectPFvvEPK10MethodInfoPvPS4_
qEj:__ZNSt3__26vectorIN6il2cpp8metadata18GenericArrayMethodENS_9allocatorIS3_EEE7reserveEj
nu:__ZN7mecanim6memory16ChainedAllocator7ReserveEj
q3d:_AsyncCallback__ctor_m3071689932
NEf:_ReadOnlyCollection_1_System_Collections_IList_Clear_m2600246370_gshared
cQc:__ZN4PPtrI17PhysicsMaterial2DE8TransferI18StreamedBinaryReadILb0EEEEvRT_
UYi:_UnityEvent_1_GetDelegate_m915269642_gshared
YEh:__Z62RuntimeInvoker_Int32_t2071877448_ParameterModifier_t1820634920PFvvEPK10MethodInfoPvPS4_
HOe:_DSAManaged_NormalizeArray_m2287089393
$wc:__Z21Object_CUSTOM_DestroyP12Il2CppObjectf
ohi:_InternalEnumerator_1_System_Collections_IEnumerator_get_Current_m2389982234_AdjustorThunk
jsb:__ZN8Material26ResetAllCachedMaterialDataEP6Shader
nQh:_Selectable_get_interactable_m1725029500
Gsg:__ZL66RuntimeArray_CustomAttributesCacheGenerator_Array_Sort_m3002148658P21CustomAttributesCache
mbd:_UNITY_TT_Get_MM_Var
Iej:__ZN6il2cpp6icalls8mscorlib6System7Decimal13decimal2Int64EP19il2cpp_decimal_reprPx
ba:invoke_diddi
gMd:_ExecuteEvents__cctor_m288775360
uhd:__ZNK2UI6Canvas13GetRenderModeEv
Ghe:_Double_TryParseStringConstant_m2585405703
BK:__Z32TransferEnumWithNameForceIntSizeI14SafeBinaryRead28TransitionInterruptionSourceEvRT_RT0_PKc17TransferMetaFlags
_wb:__Z18Transfer_BlittableI14SafeBinaryReadLb0EiEvRK29SerializationCommandArgumentsR31RuntimeSerializationCommandInfo
Yoj:__ZN6il2cpp2vm13MetadataCache30GetPropertyDefinitionFromIndexEi
Yki:_ResourceEnumerator__ctor_m1679839941
Oyd:_RijndaelTransform_Clear_m1652144089
$0e:_MonoIO_GetException_m2577367044
Rrd:__ZN22BaseUnityConnectClient17InitializeSessionERKN4core12basic_stringIcNS0_20StringStorageDefaultIcEEEES6_N19CloudServiceHandler13InitModeFlagsE
oYh:_Enumerator_MoveNext_m1404007384_gshared
M9e:_NumberFormatter_get_IsZero_m1325357749
mL:__ZN15SerializeTraitsI9OffsetPtrIN7mecanim9animation23BlendDirectDataConstantEEE8TransferI24GenerateTypeTreeTransferEEvRS4_RT_
cFi:_Mesh_PrintErrorCantAccessIndices_m2990602703
Fbk:_emscripten_glDeleteBuffers__wrapper
Czh:__Z121RuntimeInvoker_Void_t1841601450_Single_t2076509932_Single_t2076509932_Single_t2076509932_Single_t2076509932_RuntimeObjectPFvvEPK10MethodInfoPvPS4_
Wqe:_Enum_ToObject_m322320225
hUh:_Enumerator_get_Current_m2754383612_gshared
Npc:__ZN13MonoBehaviour34StopCoroutineFromEnumeratorManagedE18ScriptingObjectPtr
pCd:_X509Certificate__ctor_m3860837120
V2c:_gray_raster_reset
eCh:__Z109RuntimeInvoker_RuntimeObject_Ray_t2469606224_Single_t2076509932_Int32_t2071877448_RuntimeObject_RuntimeObjectPFvvEPK10MethodInfoPvPS4_
IEf:_ReadOnlyCollection_1_System_Collections_Generic_IListU3CTU3E_set_Item_m3663361643_gshared
CN:__ZN7mecanim9animation14AvatarConstant15InitializeClassEv
PJc:__ZN11UnityEngine9Analytics18SceneLoadTimeEvent12SetSceneLoadERKN4core12basic_stringIcNS2_20StringStorageDefaultIcEEEEiyyyy
tjb:__ZN30RuntimeInitializeOnLoadManager8TransferI18StreamedBinaryReadILb0EEEEvRT_
y1h:_Dictionary_2__ctor_m1206668798_gshared
B9g:_TypeBuilder_not_supported_m3178173643
E3c:_UNITY_tt_face_load_pclt
gpc:__ZL34GetComponentsImplementationRecurseILb1ELi0ELi2EEbR10GameObjectbRK17CompareParametersRK39GetComponentsImplementation_ReturnValue
OOc:__ZN10ClipperLib7Clipper24InsertLocalMinimaIntoAELEx
TZj:__ZN6il2cpp6icalls8mscorlib6System9Threading5Mutex20CreateMutex_internalEbP12Il2CppStringPb
$8d:_ArrayListWrapper_Remove_m1105489978
mWb:__ZNK6Camera18WorldToScreenPointERK8Vector3fPb
yVi:_GUISkin__ctor_m2824039590
Smd:__ZN14UnityAnalyticsD0Ev
NMf:_TlsClientSettings_set_TargetHost_m3421266913
n_g:__ZL109PointerEventData_t1599784723_CustomAttributesCacheGenerator_PointerEventData_get_eligibleForClick_m2497780621P21CustomAttributesCache
Rce:_HashKeys_CopyTo_m3566668422
Dxa:__Z18IsCompressedFormat14GraphicsFormat
zci:_InternalEnumerator_1_Dispose_m549215360_AdjustorThunk
thi:_InternalEnumerator_1__ctor_m1815261138_gshared
W6d:_Convert_ToSByte_m2665932200
b9:__ZNSt3__227__insertion_sort_incompleteIRPFbRKN18AwakeFromLoadQueue4ItemES4_EPS2_EEbT0_S9_T_
w8g:_ILGenerator_label_fixup_m1325994348
Qbg:_Base64Constants__cctor_m1807522504
vxe:_Array_InternalArray__IEnumerable_GetEnumerator_TisContactPoint2D_t3659330976_m478005999_gshared
anj:__ZN14dense_hash_mapI10KeyWrapperIN6il2cpp5utils13dynamic_arrayIPK10Il2CppTypeLj4EEEEPFvvENS1_8metadata19Il2CppSignatureHashENS8_14EqualsComparerINSB_22Il2CppSignatureCompareEEENSt3__29allocatorINSG_4pairIKS8_SA_EEEEE15set_deleted_keyERSJ_
ULh:_Navigation_Equals_m4214630671_AdjustorThunk
UBf:_ReadOnlyCollection_1_System_Collections_Generic_IListU3CTU3E_set_Item_m257196015_gshared
feh:_FieldInfo_GetPseudoCustomAttributes_m2500972355
n4a:__ZN26EnlightenSystemInformation8TransferI14SafeBinaryReadEEvRT_
kIe:_Array_InternalArray__get_Item_TisLink_t2723257478_m2281261655_gshared
jtd:__ZN11UnityEngine15PlatformWrapper20SetPlayerPrefsUInt64ERKN4core12basic_stringIcNS1_20StringStorageDefaultIcEEEEy
fcb:__ZN12MeshRendererD0Ev
TY:__ZN12AudioManager35GetCurrentSpatializerDefinitionNameEv
jvi:_ExpressionAssertion_IsComplex_m783019628
Tbe:_Hashtable__ctor_m2702360557
Dh:_utime
Gle:_DateTimeFormatInfo_get_RawAbbreviatedDayNames_m3998113647
QSi:_Vector4_get_sqrMagnitude_m641641704_AdjustorThunk
sH:__Z28SetExposedSkeletonTransformsRKN7mecanim9animation14AvatarConstantERKN11UnityEngine9Animation30AnimatorGenericBindingConstantERKNS_8skeleton13SkeletonPoseTIN4math4trsXEEERKNSA_INSB_7affineXEEERNS5_21AvatarBindingConstantEy
X3h:_DefaultComparer_GetHashCode_m2596628120_gshared
jEg:__ZL94UTF32Encoding_t549530865_CustomAttributesCacheGenerator_UTF32Encoding_GetByteCount_m3183615393P21CustomAttributesCache
ewe:_PlayableHandle_IsPlayableOfType_TisAnimationLayerMixerPlayable_t3057952312_m2522157783_AdjustorThunk
cIf:_PrimalityTest_Invoke_m4058801829
wn:FUNCTION_TABLE_viiiiif
V6f:_RemotingConfiguration_SetCustomErrorsMode_m1844153208
Bn:FUNCTION_TABLE_viiiiii
pte:_CultureInfo_GetFormat_m3560116485
RI:__ZN7mecanim9animation22DestroyAvatarWorkspaceEPNS0_15AvatarWorkspaceERNS_6memory9AllocatorE
BWd:__ZN21InterfaceFuncInvoker0IiE6InvokeEjP11Il2CppClassP12Il2CppObject
lui:_AnchorInfo_get_IsPosition_m3791659233
w1b:__ZN15LightmapSTCacheC2ER13BatchRendererR15RenderLoopStats
Pzc:__ZNSt3__210__list_impIN10GUIManager12SortedScriptE11memory_poolIS2_EE5clearEv
kGg:__ZL76Convert_t2607082565_CustomAttributesCacheGenerator_Convert_ToInt64_m44696721P21CustomAttributesCache
V0a:__ZN14PlayableOutput17SetSourcePlayableEP8Playable
ljb:__ZNSt3__26vectorIN4core12basic_stringIcNS1_20StringStorageDefaultIcEEEE13stl_allocatorIS5_L18MemLabelIdentifier13ELi16EEE8__appendEj
k7f:_TrackingServices__cctor_m3639412334
hI:__ZN7mecanim9animation29MotionOutputGetDeltaTransformEPKNS0_12MotionOutputE
Fcc:__Z13RegisterClassI16GraphicsSettingsEvv
g_h:_ValueCollection_System_Collections_IEnumerable_GetEnumerator_m1773104428_gshared
OJc:__ZN27PerformanceReportingManager21OnSceneTimingCallbackERK15SceneLoadTimingRKN4core12basic_stringIcNS3_20StringStorageDefaultIcEEEE
ZN:__ZN8Animator14OnAddComponentEPN5Unity9ComponentE
Rof:_List_1_CheckMatch_m1184924052_gshared
pwc:__Z43Transform_CUSTOM_INTERNAL_get_localRotationP12Il2CppObjectP11Quaternionf
M9j:_glGetShaderInfoLog__wrapper
gi:_emscripten_glGetTexParameteriv
yif:_List_1_ToArray_m3752387798_gshared
AOh:_ScrollRect_get_elasticity_m3987376518
S$j:__ZN6il2cpp8metadata21Il2CppGenericInstHash4HashEPK17Il2CppGenericInst
zKf:_RSAManaged_ImportParameters_m3060955884
vSe:_DeriveBytes__ctor_m3089550878
dRc:__ZN9Polygon2D8TransferI18StreamedBinaryReadILb0EEEEvRT_
yni:_ChannelData_CopyFrom_m4049054607
Mcc:__Z13RegisterClassI4MeshEvv
IZg:__ZL94AxisEventData_t1524870173_CustomAttributesCacheGenerator_AxisEventData_get_moveDir_m3968662359P21CustomAttributesCache
s0a:__ZN8PlayableD0Ev
wR:__ZN12AudioManager8TransferI19StreamedBinaryWriteILb0EEEEvRT_
a3e:_WriteDelegate_Invoke_m2103848735
xjf:_List_1_get_Capacity_m4262042666_gshared
d7i:__ZL25UnresolvedVirtualCall_175P12Il2CppObject23RaycastResult_t21186376S1_PK10MethodInfo
yJi:_X509Crl_get_IssuerName_m756409840
yXg:__ZL51TileBase_t4130003429_CustomAttributesCacheGeneratorP21CustomAttributesCache
Hra:__ZN18AsyncUploadManager19AsyncResourceUploadER9GfxDeviceii9TextureID
R_i:_Locale_GetText_m512920887
Ogc:__ZNK32RendererMaterialAnimationBinding12GetPPtrValueERKN11UnityEngine9Animation10BoundCurveE
_Jb:__Z18Transfer_BlittableI18StreamedBinaryReadILb0EELb0E8Vector2fEvRK29SerializationCommandArgumentsR31RuntimeSerializationCommandInfo
D6f:_RemotingConfiguration_get_ProcessId_m3870172209
zQc:__ZN16CircleCollider2D10SmartResetEv
pkd:__ZN2UI11CanvasGroup12CleanupClassEv
_Ve:_SortKey_ToString_m2406913228
Gub:__ZN22LocalFileSystemHandler9MakeLocalER13FileEntryDatab
rTj:__ZN6il2cpp2vm8Profiler10AllocationEP12Il2CppObjectP11Il2CppClass
Mge:_Convert_ToDateTime_m1020507389
UOg:__ZL78Sprite_t309593783_CustomAttributesCacheGenerator_Sprite_get_packed_m2366369914P21CustomAttributesCache
Yfa:__ZNK9HPlayable7IsValidEv
e1c:__ZNSt3__23mapIN20TextRenderingPrivate7FontRefENS1_6OSFontENS_4lessIS2_EENS_9allocatorINS_4pairIKS2_S3_EEEEEixERS8_
eEi:_Material_SetInt_m2847439171
pia:__Z13FormatOrderedPKcz
Tuj:_RaycastHit_get_distance_m758224512
Z0e:_Path_IsPathRooted_m1347207448
y8f:_ObjectManager_RegisterObjectInternal_m879109503
Mte:_Array_get_swapper_TisVector4_t2243707581_m97441823_gshared
t_c:__ZN14SafeBinaryRead21TransferSTLStyleArrayI10vector_mapINSt3__24pairIttEEfN20TextRenderingPrivate8FontImpl14KerningCompareENS2_9allocatorINS3_IS4_fEEEEEEEvRT_17TransferMetaFlags
hdc:__Z13RegisterClassI15QualitySettingsEvv
$Rj:__ZN6il2cpp2vm6String21InitializeEmptyStringEP11Il2CppClass
f1b:__ZN25DeferredRenderLoopScratchD0Ev
nC:__ZN27AnimationLayerMixerPlayable14SetInputWeightEif
Oz:__ZN7mecanim9animation17EvaluateHumanPoseERKNS0_18ClipMuscleConstantERKNS0_15ClipMuscleInputEPKfRKNS0_12MotionOutputERNS_5human9HumanPoseE
oEg:__ZL90UTF7Encoding_t741406939_CustomAttributesCacheGenerator_UTF7Encoding_GetHashCode_m359766848P21CustomAttributesCache
GCi:_GameObject_AddComponent_m540062519
Enb:__ZN15dense_hashtableINSt3__24pairIKiN4core17string_with_labelILi1EEEEEi18SInt32HashFunctionN14dense_hash_mapIiS5_S7_NS0_8equal_toIiEE13stl_allocatorIS6_L18MemLabelIdentifier1ELi16EEE9SelectKeyESA_SD_E9copy_fromERKSG_j
gSa:__ZN6Camera11ResetAspectEv
Llg:_Type_get_IsGenericType_m3396841573
Vhb:__ZN15ResourceManagerD0Ev
lZf:_X509BasicConstraintsExtension_get_HasPathLengthConstraint_m3788532759
$Va:__ZNK17InstancedPropInfo22FillInstancePropertiesER19ShaderPropertySheetjPK17BatchInstanceDatajRK15RenderNodeQueue
dRa:__ZN22CreateGpuProgramOutputD2Ev
qFb:__Z18Transfer_BlittableI19StreamedBinaryWriteILb0EELb1EsEvRK29SerializationCommandArgumentsR31RuntimeSerializationCommandInfo
Xzd:_RSACryptoServiceProvider_EncryptValue_m802714447
JFg:__ZL76Convert_t2607082565_CustomAttributesCacheGenerator_Convert_ToByte_m932798552P21CustomAttributesCache
AY:__ZN13ProduceHelperI13AudioListenerLb0EE7ProduceE18MemLabelIdentifier18ObjectCreationMode
MK:__ZN7mecanim9animation23BlendDirectDataConstant8TransferI14SafeBinaryReadEEvRT_
lXi:_InvokableCall_1__ctor_m2021220028_gshared
tbj:_WillRenderCanvases_Invoke_m4267547094
dff:_List_1_System_Collections_ICollection_get_SyncRoot_m1594235606_gshared
Lfe:_DateTimeFormatInfo_GetInstance_m3133223810
wHf:_ModulusRing_BarrettReduction_m2802101099
Rtb:__ZN12HandlerChain4OpenER13FileEntryData14FilePermission16FileAutoBehavior
r6h:_EqualityComparer_1_get_Default_m2134906921_gshared
Weh:_MonoMethodInfo_GetParametersInfo_m3456861922
pyj:__ZN15dense_hashtableINSt3__24pairIK10KeyWrapperINS1_IPK10MethodInfoP11Il2CppClassEEEjEES9_17ReflectionMapHashIS8_EN14dense_hash_mapIS9_jSD_NS9_14EqualsComparerINS0_8equal_toIS8_EEEENS0_9allocatorISB_EEE9SelectKeyESI_SK_E6insertERKSB_
_Jc:__ZN27PerformanceReportingManager29OnSceneLoadedAfterAwakeStaticEPS_iR18AwakeFromLoadQueueN19RuntimeSceneManager11LoadingModeE
pZh:_ValueCollection_System_Collections_Generic_ICollectionU3CTValueU3E_Remove_m4188992987_gshared
bca:__ZN14FileCacherReadD2Ev
dlb:__ZN13RendererScene23UpdatePreviousFrameDataEii
kAd:_RSAPKCS1SignatureDeformatter_VerifySignature_m1825067195
zNi:_RectTransform_remove_reapplyDrivenProperties_m52143263
f6i:__ZL25UnresolvedVirtualCall_123P12Il2CppObjectffPK10MethodInfo
Brc:__Z50Register_UnityEngine_CullingGroup_FinalizerFailurev
tbf:_KeyValuePair_2_ToString_m2613351884_gshared
Nlb:__ZN27UnloadUnusedAssetsOperationD0Ev
Orj:_TileAnimationData_t1492388264_marshal_pinvoke_cleanup
fD:__ZN26AnimatorControllerPlayable6MemoryD2Ev
I$g:__ZL69ColorBlock_t2652774230_CustomAttributesCacheGenerator_m_DisabledColorP21CustomAttributesCache
xLf:_CipherSuite_get_Code_m3902213587
cNh:_Scrollbar__ctor_m2244981801
B9f:_ObjectRecord_get_HasPendingFixups_m670959802
Bdj:_AnimationLayerMixerPlayable__ctor_m678972180
OAd:_SHA256Managed_HashCore_m4111458495
ete:_CultureInfo_get_CompareInfo_m3085280862
uug:__ZL55Dictionary_2_t2276497324_CustomAttributesCacheGeneratorP21CustomAttributesCache
lLg:__ZL89Application_t354826772_CustomAttributesCacheGenerator_Application_get_isEditor_m506138946P21CustomAttributesCache
z9f:_ObjectManager_RecordDelayedFixup_m1895730844
IJj:__ZNK15dense_hashtableINSt3__24pairIK10KeyWrapperIP14Il2CppIUnknownEjEES5_N6il2cpp5utils11PointerHashIS3_EEN14dense_hash_mapIS5_jSB_NS5_14EqualsComparerINS0_8equal_toIS4_EEEENS0_9allocatorIS7_EEE9SelectKeyESG_SI_E12test_deletedERK24dense_hashtable_iteratorIS7_S5_SB_SK_SG_SI_E
Nkf:_List_1_System_Collections_IList_get_IsFixedSize_m3522184224_gshared
lP:__ZN9AudioClip23VirtualRedirectTransferER18StreamedBinaryReadILb0EE
QNf:_ClientSessionInfo_CheckDisposed_m1394638186
pbg:_SByte_Parse_m2544167007
RFd:_Single_CompareTo_m2081476257
_cd:__ZN7TilemapD0Ev
Yoe:_StackFrame_GetILOffset_m115192054
Eag:_RuntimeTypeHandle_GetHashCode_m3697629454_AdjustorThunk
WLe:_BigInteger__ctor_m2945783161
APf:_TlsClientHello_Update_m1723542631
XMi:_RectOffset_set_top_m1587840032
RAg:__ZL96ProxyAttribute_t4031752430_CustomAttributesCacheGenerator_ProxyAttribute_IsContextOK_m2391079277P21CustomAttributesCache
dXe:_IndexOutOfRangeException__ctor_m3497760912
qDf:_ReadOnlyCollection_1_CopyTo_m1652036789_gshared
Gj:_glCopyTexSubImage2D
v6f:_RealProxy_InternalGetTransparentProxy_m3415358600
Xgc:__ZNK24RendererAnimationBinding13GetFloatValueERKN11UnityEngine9Animation10BoundCurveE
S0:__ZNK15DownloadHandler14HasPendingDataEv
lsf:_Collection_1_Insert_m3594407958_gshared
Lcf:_Enumerator_System_Collections_IEnumerator_Reset_m2200349770_gshared
pTj:__ZN6il2cpp6icalls8mscorlib6System7Convert24InternalFromBase64StringEP12Il2CppStringb
RBd:_SymmetricAlgorithm_CreateDecryptor_m4240570785
SSh:_Text_get_preferredWidth_m3352156860
b0g:__ZL87U3CDelayedDestroyDropdownListU3Ec__Iterator0_t3461999471_CustomAttributesCacheGeneratorP21CustomAttributesCache
a6g:_AssemblyCompanyAttribute__ctor_m1217508649
skd:__ZN2UI13CanvasManager14GetRenderOrderEPKNS_6CanvasE
Kxb:__Z18Transfer_BlittableI14SafeBinaryReadLb0E5RectTIfEEvRK29SerializationCommandArgumentsR31RuntimeSerializationCommandInfo
Kud:__ZNK20UnityWebRequestProtoI24UnityWebRequestTransport16AtomicRefCounter14RedirectHelper14ResponseHelper15DownloadHandler13UploadHandler12HeaderHelper14AsyncOperationE14GetUploadBytesEv
YCf:_ReadOnlyCollection_1_System_Collections_Generic_IListU3CTU3E_RemoveAt_m878653284_gshared
Ate:_DateTimeFormatInfo_GetFormat_m3676195179
Lqa:__ZN14GfxContextGLES14GetFramebufferEv
Wbk:_emscripten_glGenVertexArrays__wrapper
yta:__ZN6prcoreL21CreateRemapAnyBlitterE13TextureFormatS0_
F$j:__ZN6il2cpp2os5Event4WaitEjb
Jmc:__ZN17AnimationCurveTplIfE16StripInvalidKeysEv
sAe:_Array_InternalArray__ICollection_Add_TisKeyValuePair_2_t3716250094_m2381539361_gshared
ABi:_InvokableCall_add_Delegate_m1994890856
eTe:_X509Extension_WriteLine_m2850991173
ijd:__ZNK2UI6Canvas17GetSortingLayerIDEv
Arg:__ZL40UIntPtr_t_CustomAttributesCacheGeneratorP21CustomAttributesCache
oUc:__ZN14Raycast2DQuery8RunQueryEb
Ecc:__Z13RegisterClassI17GlobalGameManagerEvv
X5a:__ZN8Renderer24SetupNewRendererForSceneEv
I3g:__ZL70GridLayoutGroup_t1515633077_CustomAttributesCacheGenerator_m_StartAxisP21CustomAttributesCache
lve:_Array_InternalArray__ICollection_Remove_TisInt64_t909078037_m2653583130_gshared
N8i:_TextGenerator_Populate_Internal_m65392018
ehg:_Thread_get_ExecutionContext_m922067206
wHe:_BaseInvokableCall_ThrowOnInvalidArg_TisInt32_t2071877448_m2823200566_gshared
WGc:__Z35Transfer_Blittable_FixedBufferFieldI8JSONReadtEvRK29SerializationCommandArgumentsR31RuntimeSerializationCommandInfo
ANf:_RecordProtocol_get_Context_m2688493529
ETa:__ZN4PPtrI7TextureE8TransferI14SafeBinaryReadEEvRT_
zjc:__ZN14PlayableOutput6HandleEv
F7a:__ZNK6Sprite22GetTypeVirtualInternalEv
IOh:_ScrollRect_get_viewport_m3177057249
vn:FUNCTION_TABLE_iiiiiiiiiiiiii
Juh:__Z100RuntimeInvoker_Void_t1841601450_SByte_t454417549_SByte_t454417549_Int32_t2071877448_SByte_t454417549PFvvEPK10MethodInfoPvPS4_
Itd:__ZN19UnityConnectService18OnPlayerQuitStaticEPS_
v4c:_UNITY_tt_get_cmap_info
dJd:_DecoderExceptionFallback_GetHashCode_m2972426052
vEb:__Z29Transfer_Blittable_ArrayFieldI24GenerateTypeTreeTransfer5RectTIiEEvRT_R9ArrayInfoRK23StaticTransferFieldInfo
pXa:__ZN16ReflectionProbes8ScheduleEN18ReflectionProbeJob7JobTypeEP15ReflectionProbei
Pwf:_Collection_1_IsFixedSize_m3675221982_gshared
tGg:__ZL77Convert_t2607082565_CustomAttributesCacheGenerator_Convert_ToSByte_m883113940P21CustomAttributesCache
Udf:_Enumerator_MoveNext_m3293920409_AdjustorThunk
KIa:__Z18IsDirectoryCreatedRKN4core12basic_stringIcNS_20StringStorageDefaultIcEEEE
fbh:_GenericTypeParameterBuilder_get_DeclaringType_m1652924692
did:__ZN2UI13CanvasManagerD2Ev
Mji:_Comparer_1__cctor_m3112251759_gshared
u2g:__ZL73ScrollRect_t1199013257_CustomAttributesCacheGenerator_m_VerticalScrollbarP21CustomAttributesCache
vYf:_X509KeyUsageExtension_ToString_m1992050580
L0c:_UNITY_FT_GlyphLoader_Done
gpg:_ValueType_DefaultEquals_m2245650968
yui:_BalancingGroup__ctor_m2474435406
$Eh:__Z49RuntimeInvoker_Int32_t2071877448_Byte_t3683104436PFvvEPK10MethodInfoPvPS4_
Tkc:__ZN9Polygon2D16CheckConsistencyEv
hni:_ConstructionCall__ctor_m1143766850
XQg:__ZL108DefaultExecutionOrder_t2717914595_CustomAttributesCacheGenerator_DefaultExecutionOrder_get_order_m3383619944P21CustomAttributesCache
Nji:_Comparer_1_System_Collections_IComparer_Compare_m3203078743_gshared
GOf:_Context_get_RandomSC_m1687420621
IUc:__ZN19OverlapPointQuery2D14InitializeAABBER6b2AABB
VWg:__ZL67GUISkin_t1436893342_CustomAttributesCacheGenerator_m_verticalSliderP21CustomAttributesCache
T2b:__ZNK21IntermediateRenderers16GetBoundingBoxesEv
j5c:_tt_cmap14_char_var_index
YKb:__Z35Transfer_Blittable_FixedBufferFieldI18StreamedBinaryReadILb0EEdEvRK29SerializationCommandArgumentsR31RuntimeSerializationCommandInfo
E6c:_psh_globals_new
Q2e:_FileStream_Seek_m950719389
bOd:_StandaloneInputModule_set_allowActivationOnMobileDevice_m2631121618
Yge:_Decimal_stripStyles_m294582157
Bja:__ZN9GfxDevice20SetMaxBufferedFramesEi
qjf:_List_1_RemoveAll_m4125997475_gshared
bDh:__Z72RuntimeInvoker_Boolean_t3825574718_TypeU26_t1535498077_Int32_t2071877448PFvvEPK10MethodInfoPvPS4_
Qmh:__Z98RuntimeInvoker_Void_t1841601450_Int32_t2071877448_Int32_t2071877448_RuntimeObject_SByte_t454417549PFvvEPK10MethodInfoPvPS4_
zLc:__ZN10Collider2D19WakeAllBodyContactsEv
Q3d:_BitConverter_GetBytes_m252990073
dDi:_Input_GetKey_m2374355427
fU:__ZN24AudioScriptBufferManagerD2Ev
S5j:dynCall_vdd
Tjd:__ZN2UIL17UnloadAllCanvasesEv
E8b:__Z23ConvertIntegerToTypePtrIsEbPvR14SafeBinaryRead
Czg:__ZL54_MethodBase_t1935530873_CustomAttributesCacheGeneratorP21CustomAttributesCache
YNc:__ZN12b2MouseJoint11ShiftOriginERK6b2Vec2
n6h:_EqualityComparer_1__ctor_m99476293_gshared
IHf:_BigInteger_Incr2_m505983313
a8d:_ArrayList_get_Count_m523955479
vph:__Z96RuntimeInvoker_Void_t1841601450_SByte_t454417549_RuntimeObject_SByte_t454417549_SByte_t454417549PFvvEPK10MethodInfoPvPS4_
w9d:_FixedSizeArrayListWrapper_Remove_m1359458911
_yi:_CameraCallback_Invoke_m2640212610
XPi:_Touch_get_position_m261108426_AdjustorThunk
Gta:__ZN6prcoreL29inner_stretch_rgb565_bilinearEPKNS_9InnerInfoE
Uvi:_Uri__ctor_m3927533881
Cwj:__ZNK15dense_hashtableINSt3__24pairIK10KeyWrapperINS1_IPK14Il2CppAssemblyP11Il2CppClassEEEjEES9_17ReflectionMapHashIS8_EN14dense_hash_mapIS9_jSD_NS9_14EqualsComparerINS0_8equal_toIS8_EEEENS0_9allocatorISB_EEE9SelectKeyESI_SK_E12test_deletedEj
amd:__Z33Canvas_Get_Custom_PropWorldCameraP12Il2CppObject
eSh:_Text_get_mainTexture_m813502234
t$j:__ZN6il2cpp8metadata19Il2CppSignatureHash4HashERKNS_5utils13dynamic_arrayIPK10Il2CppTypeLj4EEE
q0b:__ZNK14RenderSettings19GetFlatAmbientColorEv
_sa:__ZN6prcoreL10inner_flipILj4EEEvPhS1_j
Ggb:__ZN18StreamedBinaryReadILb0EE21TransferSTLStyleArrayI10vector_mapIPKN5Unity4TypeE7Hash128NSt3__24lessIS6_EENS8_9allocatorINS8_4pairIS6_S7_EEEEEEEvRT_17TransferMetaFlags
jE:__ZNK27StateMachineBehaviourPlayer15IsSenderEnabledEv
UTh:_Enumerator_VerifyState_m2118679243_gshared
MYd:_InputField_get_shouldHideMobileInput_m3694613599
Qwc:__Z40Register_UnityEngine_Transform_SetParentv
qSf:_SslClientStream_get_HaveRemoteValidation2Callback_m3555576758
Cth:__Z56RuntimeInvoker_TimeSpan_t3430258949_TimeSpan_t3430258949PFvvEPK10MethodInfoPvPS4_
w9a:__ZN14Texture2DArray17UploadToGfxDeviceEv
sCf:_ReadOnlyCollection_1_System_Collections_Generic_IListU3CTU3E_Insert_m4216310986_gshared
ezf:_ReadOnlyCollection_1_System_Collections_Generic_IListU3CTU3E_set_Item_m1532495847_gshared
cT:__Z14FMODMemoryFreePvjPKc
ULg:__ZL103Camera_t189460977_CustomAttributesCacheGenerator_Camera_INTERNAL_CALL_ScreenToViewportPoint_m2554844623P21CustomAttributesCache
h8h:_InternalEnumerator_1_System_Collections_IEnumerator_Reset_m3731327620_AdjustorThunk
GTg:__ZL94Physics2D_t2540166467_CustomAttributesCacheGenerator_Physics2D_Raycast_m298439588____minDepth4P21CustomAttributesCache
qgd:__ZNK7Tilemap24GetTileOrientationMatrixEv
z_g:__ZL104PointerEventData_t1599784723_CustomAttributesCacheGenerator_PointerEventData_get_worldNormal_m1704987468P21CustomAttributesCache
hTi:_YieldInstruction_t3462875981_marshal_pinvoke_cleanup
nYd:_Image_AddQuad_m1600600902
V7c:_cf2_glyphpath_moveTo
GKc:__ZNK13BoxCollider2D22GetTypeVirtualInternalEv
oPd:_AnimationTriggers_set_disabledTrigger_m609579531
cwg:__ZL47File_t1930543328_CustomAttributesCacheGeneratorP21CustomAttributesCache
_le:_DateTimeOffset__ctor_m1796624924
kqi:_Identity_get_ChannelSink_m3989446673
BKd:_BaseRaycaster_OnDisable_m1716508791
NA:__ZN7mecanim23TransformValueArrayLoopEiiiRKN4math4trsXES3_RNS_10ValueArrayEf
Mei:_InternalEnumerator_1_MoveNext_m1741571735_gshared
mAc:__ZN5IMGUI14GUIWindowStateD2Ev
Grg:__ZL82Enum_t2459695545_CustomAttributesCacheGenerator_Enum_GetUnderlyingType_m3513899012P21CustomAttributesCache
oeb:__Z32TransferEnumWithNameForceIntSizeI14SafeBinaryRead25ProceduralLoadingBehaviorEvRT_RT0_PKc17TransferMetaFlags
uXj:_GC_is_heap_ptr
$Pf:_TlsServerSettings_set_CertificateRequest_m3419519893
bQi:_TouchScreenKeyboard_Open_m2033426733
uH:__ZN7mecanim5human10RetargetToEPKNS0_5HumanEPKNS0_9HumanPoseES6_RKN4math4trsXEPS4_PNS_8skeleton13SkeletonPoseTIS8_EESF_
FA:__ZN7mecanim9animation8SeekClipERKNS0_12StreamedClipERNS0_18StreamedClipMemoryEf
Plg:_Type_get_IsGenericParameter_m161434704
Kbh:_MethodBuilder_get_Attributes_m3678061338
mm:_emscripten_glIsTexture
Lv:__ZN24CompressedAnimationCurveaSERKS_
c9d:_ArrayListWrapper_CopyTo_m793444109
HGg:__ZL79Convert_t2607082565_CustomAttributesCacheGenerator_Convert_ToUInt16_m3265369225P21CustomAttributesCache
Tk:_emscripten_glHint
jIh:__Z33RuntimeInvoker_Color32_t874517518PFvvEPK10MethodInfoPvPS4_
AXc:__ZZN10Collider2D15InitializeClassEvEN30FunctorImpl_98kDidAddComponent4CallEPviR11MessageData
abd:_ft_var_readpackeddeltas
ile:_DateTime_AddMilliseconds_m1813199744_AdjustorThunk
Xag:_SByte_System_IConvertible_ToSByte_m108774324_AdjustorThunk
Obh:_MethodBuilder_GetParameterCount_m467267889
XTj:__ZThn4_N6il2cpp2vm13CachedCCWBaseINS0_13ManagedObjectEE6AddRefEv
zHb:__Z35Transfer_Blittable_FixedBufferFieldI18StreamedBinaryReadILb1EEtEvRK29SerializationCommandArgumentsR31RuntimeSerializationCommandInfo
L$f:_X509ChainStatus_t4278378721_marshal_pinvoke
vNi:_RectTransform_INTERNAL_get_pivot_m4220117653
pKf:_RSAManaged__ctor_m1680944437
pm:_SDL_UpperBlit
lXa:__Z35GetTextureDecodeValuesWithIntensity16TextureUsageMode17TextureColorSpace10ColorSpacef
g6d:_Byte_GetHashCode_m2885528842_AdjustorThunk
FCj:__ZN15dense_hashtableINSt3__24pairIK10KeyWrapperINS1_IPK9EventInfoP11Il2CppClassEEEjEES9_17ReflectionMapHashIS8_EN14dense_hash_mapIS9_jSD_NS9_14EqualsComparerINS0_8equal_toIS8_EEEENS0_9allocatorISB_EEE9SelectKeyESI_SK_E15set_deleted_keyERKSB_
V_h:_Dictionary_2_OnDeserialization_m2092139626_gshared
TNc:__ZNK12b2MouseJoint10GetAnchorAEv
MBi:_PersistentCall__ctor_m3653852388
oNb:__ZN14SafeBinaryRead20OverrideRootTypeNameEPKc
uhj:__ZNK10KeyWrapperIPK22Il2CppGenericParameterE14EqualsComparerINSt3__28equal_toIS2_EEEclERKS3_SA_
fca:__ZN14FileCacherRead16UnlockCacheBlockEj
jSe:_X509Certificate_GetUnsignedBigInteger_m3491353542
dBb:__Z18Transfer_BlittableI17RemapPPtrTransferLb1E8Vector3fEvRK29SerializationCommandArgumentsR31RuntimeSerializationCommandInfo
bxg:__ZL57StackBehaviour_t1390406961_CustomAttributesCacheGeneratorP21CustomAttributesCache
Pc:_emscripten_glUniform1f
Xbc:__ZN13dynamic_arrayIS_I8Vector2fLj4EELj4EE18resize_initializedEjRKS1_12ResizePolicy
PSf:_SslStreamBase_get_MightNeedHandshake_m3432170694
cdj:_Player_CheckGrounded_m2103820802
k1c:__Z20ParseImageParametersR11UTF16StringRiRN20TextRenderingPrivate16TextFormatChangeE
KFi:_NativeClassAttribute__ctor_m3728148471
Uc:_emscripten_glUniform1i
Pci:_InternalEnumerator_1_System_Collections_IEnumerator_Reset_m651165750_AdjustorThunk
TCb:__Z18Transfer_BlittableI24GenerateTypeTreeTransferLb1EN4math12int3_storageEEvRK29SerializationCommandArgumentsR31RuntimeSerializationCommandInfo
h6:__Z33UnregisterDeviceEventCallbackImplPFv23UnityGfxDeviceEventTypeE
kNh:__Z14bankers_roundff
hpb:__ZN9ShaderLab16SerializedTagMapaSERKS0_
swe:_SetPropertyUtility_SetStruct_TisFillMethod_t1640962579_m1867757822_gshared
m$:__ZN11UnityEngine15CloudWebService16SessionContainer20RestoreSessionHeaderERKN4core12basic_stringIcNS2_20StringStorageDefaultIcEEEES8_RNS0_13SessionHeaderE
Ole:_DateTime_ToString_m1117481977
cvd:__ZN22UnityWebRequestManager13BackendRetainEv
kye:__ZN21InterfaceFuncInvoker2Ii22UILineInfo_t3621277874S0_E6InvokeEjP11Il2CppClassP12Il2CppObjectS0_S0_
jbh:_GenericTypeParameterBuilder_GetGenericArguments_m277381309
KIh:__Z63RuntimeInvoker_KeyValuePair_2_t888819835_IntPtr_t_RuntimeObjectPFvvEPK10MethodInfoPvPS4_
FI:__ZN11UnityEngine9Animation27CreateAvatarBindingConstantER9TransformPKN7mecanim9animation14AvatarConstantERNS3_6memory9AllocatorE
aNg:__ZL77Gradient_t3600583008_CustomAttributesCacheGenerator_Gradient_Init_m3042650694P21CustomAttributesCache
Yng:_UInt64_System_IConvertible_ToDateTime_m2412118561
aqc:__ZN9BlobWriteC2ER13dynamic_arrayIhLj16EE24TransferInstructionFlags19BuildTargetPlatform
q6g:_AssemblyName_get_Version_m3495645648
paa:__ZN14MessageHandler3GetEv
nra:__ZN10DynamicVBO9DrawChunkERK21DynamicVBOChunkHandle17ShaderChannelMaskS3_P17VertexDeclarationPKNS_10DrawParamsEi
gd:_emscripten_glAttachShader
J9b:__Z16tesedgeIntersectP10TESSvertexS0_S0_S0_S0_
jBf:_ReadOnlyCollection_1__ctor_m1539890895_gshared
Aja:__ZN9GfxDevice13SetActiveTierE12GraphicsTier
Ecf:_Enumerator_System_Collections_IEnumerator_get_Current_m3079057684_AdjustorThunk
Gmf:_List_1_System_Collections_ICollection_get_SyncRoot_m1804424478_gshared
Leb:__ZNSt3__26vectorIN4core12basic_stringIcNS1_20StringStorageDefaultIcEEEENS_9allocatorIS5_EEE6assignIPS5_EENS_9enable_ifIXaasr21__is_forward_iteratorIT_EE5valuesr16is_constructibleIS5_NS_15iterator_traitsISC_E9referenceEEE5valueEvE4typeESC_SC_
$Oe:_KeyPairPersistence_get_UserPath_m3433052783
Etf:_Collection_1_ClearItems_m1410275009_gshared
oJh:__Z36RuntimeInvoker_Enumerator_t975728254PFvvEPK10MethodInfoPvPS4_
_qg:__ZL58Decimal_t724701077_CustomAttributesCacheGenerator_MinusOneP21CustomAttributesCache
xxe:_Array_InternalArray__IEnumerable_GetEnumerator_TisKeyframe_t1449471340_m3949799719_gshared
rxb:__Z18Transfer_BlittableI14SafeBinaryReadLb0E11QuaternionfEvRK29SerializationCommandArgumentsR31RuntimeSerializationCommandInfo
DKc:__ZN13BoxCollider2D16CheckConsistencyEv
GKb:__Z18Transfer_BlittableI18StreamedBinaryReadILb0EELb1E12PropertyNameEvRK29SerializationCommandArgumentsR31RuntimeSerializationCommandInfo
IZd:_InputField_get_inputType_m2187991661
J3:_tlsf_walk_heap
JRe:_PKCS12_Decode_m731190390
SEj:__ZNK15dense_hashtableINSt3__24pairIK10KeyWrapperIP11Il2CppClassES4_EES5_N6il2cpp8metadata16SZArrayClassHashEN14dense_hash_mapIS5_S4_SA_NS5_14EqualsComparerINS9_19SZArrayClassCompareEEENS0_9allocatorIS7_EEE9SelectKeyESE_SG_E10test_emptyERK24dense_hashtable_iteratorIS7_S5_SA_SI_SE_SG_E
HUi:_GUIContent_set_image_m3266329364
pei:_InternalEnumerator_1_get_Current_m1550231132_gshared
xui:_Reference_get_IgnoreCase_m2810892634
mpg:_Version_CheckedSet_m76493673
mb:invoke_vif
L6h:_U3CGetEnumeratorU3Ec__Iterator0_Dispose_m2403602883_gshared
nb:invoke_vid
P3j:__ZNSt3__212basic_stringIcNS_11char_traitsIcEENS_9allocatorIcEEE6insertEjPKc
ODg:__ZL67UnverifiableCodeAttribute_t765455733_CustomAttributesCacheGeneratorP21CustomAttributesCache
pb:invoke_vii
NVb:__ZNK12ImageFilters8DoRenderER17ShaderPassContextP13RenderTextureS3_RKNSt3__26vectorI11ImageFilterNS4_9allocatorIS6_EEEE
x2g:__ZL82ScrollRect_t1199013257_CustomAttributesCacheGenerator_m_HorizontalScrollbarSpacingP21CustomAttributesCache
$Wd:_LayoutGroup_get_padding_m1653511445
vHa:__ZN12TLSAllocatorI14StackAllocatorE16ThreadInitializeEP13BaseAllocator
A8d:_ArrayList_Sort_m2778059513
$ja:__ZN9GfxDevice32UpdateStereoViewProjectionMatrixE21MonoOrStereoscopicEye
xSb:__ZN15dense_hashtableINSt3__24pairIKN4core12basic_stringIcNS2_20StringStorageDefaultIcEEEEP20ArchiveStorageReaderEES6_20StringHash32FunctionIS6_EN14dense_hash_mapIS6_S9_SC_NS0_8equal_toIS6_EE13stl_allocatorISA_L18MemLabelIdentifier55ELi16EEE9SelectKeyESF_SI_E12resize_deltaEjj
eXd:_LayoutGroup_SetChildAlongAxis_m2732017156
hld:__Z41CanvasRenderer_CUSTOM_DisableRectClippingP12Il2CppObject
QYg:__ZL113UnityAnalyticsHandler_t3238795095_CustomAttributesCacheGenerator_UnityAnalyticsHandler_InternalDestroy_m483041424P21CustomAttributesCache
gJf:_MD2_Create_m539024737
Dde:_SortedList_get_SyncRoot_m3299704254
Wef:_List_1_System_Collections_ICollection_CopyTo_m2020941110_gshared
dee:_Slot_t2267560602_marshal_pinvoke
Lvh:__Z112RuntimeInvoker_Void_t1841601450_RuntimeObject_Int32_t2071877448_Int32_t2071877448_RuntimeObject_SByte_t454417549PFvvEPK10MethodInfoPvPS4_
i5f:_SoapAttribute_get_XmlNamespace_m1436066016
wyc:__Z13RegisterClassI4GridEvv
MLa:__ZN25SingleBlockMemoryFileDataD0Ev
FHa:__ZNSt3__26vectorI14ConstantStringNS_9allocatorIS1_EEE6assignINS_11__wrap_iterIPS1_EEEENS_9enable_ifIXaasr21__is_forward_iteratorIT_EE5valuesr16is_constructibleIS1_NS_15iterator_traitsISA_E9referenceEEE5valueEvE4typeESA_SA_
h$:__ZN11UnityEngine15CloudWebService16SessionContainer21ConvertFromFolderTimeERKN4core12basic_stringIcNS2_20StringStorageDefaultIcEEEEPjPt
czb:__ZNSt3__26vectorI8GUIStyle13stl_allocatorIS1_L18MemLabelIdentifier1ELi16EEE7reserveEj
HGj:__ZN6il2cpp6icalls8mscorlib6System9Threading6Thread27GetSerializedCurrentCultureEP12Il2CppThread
Fze:_Array_InternalArray__IndexOf_TisUInt32_t2149682021_m3231515987_gshared
z_i:_ListPool_1__cctor_m709904475_gshared
Eec:__Z31CalculateHierarchyTransformType23TransformAccessReadOnly
adc:__Z13RegisterClassI11TimeManagerEvv
VS:__ZN4FMOD8ChannelI11setPositionEjj
uQc:__ZN10Collider2D12SetPolygon2DEP9Polygon2D
noh:__Z136RuntimeInvoker_IntPtr_t_RuntimeObject_Int32_t2071877448_Int32_t2071877448_Int32_t2071877448_Int32_t2071877448_MonoIOErrorU26_t1029615899PFvvEPK10MethodInfoPvPS4_
m3g:__ZL75ToggleGroup_t1030026315_CustomAttributesCacheGenerator_U3CU3Ef__amU24cache1P21CustomAttributesCache
cqi:_SynchronizedClientContextSink__ctor_m978504596
cka:__ZN9GfxDevice17SetStereoViewportE15StereoscopicEyeRK5RectTIiE
pha:__ZN17BaseObjectManager13StaticDestroyEPv
Ime:_DBNull_System_IConvertible_ToChar_m3344298044
Wzh:__Z65RuntimeInvoker_Boolean_t3825574718_RuntimeObject_Int64_t909078037PFvvEPK10MethodInfoPvPS4_
Yqi:_LinkStack_Push_m2660199875
OR:__ZN4FMOD6Reverb13setPropertiesEPK22FMOD_REVERB_PROPERTIES
ZDj:__ZN15dense_hashtableINSt3__24pairIK10KeyWrapperIP11Il2CppClassES4_EES5_N6il2cpp8metadata16SZArrayClassHashEN14dense_hash_mapIS5_S4_SA_NS5_14EqualsComparerINS9_19SZArrayClassCompareEEENS0_9allocatorIS7_EEE9SelectKeyESE_SG_E5clearEv
zXb:__ZN9DepthPass13PrepareSubsetEjRK10RenderNodeifRK17ShaderReplaceData
Wfg:_UTF32Encoding_GetPreamble_m767706727
zHi:_X509CertificateCollection_Add_m4008705157
A4f:_MonoMethodMessage_set_Uri_m3218581120
GNg:__ZL108TouchScreenKeyboard_t601950206_CustomAttributesCacheGenerator_TouchScreenKeyboard_Open_m2033426733____alert5P21CustomAttributesCache
u2i:_AudioMixerPlayable_GetHandle_m3697423575_AdjustorThunk
bmc:__Z35SetMeshComponentFromArrayFromScriptR4Mesh30InternalScriptingShaderChannel34InternalScriptingVertexChannelTypei17ScriptingArrayPtri
cDf:_ReadOnlyCollection_1_System_Collections_IList_Add_m3806843030_gshared
vVa:__ZN4PPtrI6ShaderE8TransferI19StreamedBinaryWriteILb0EEEEvRT_
Xtf:_Collection_1_IsFixedSize_m1816795498_gshared
oq:__ZN4core20StringStorageDefaultIcE6assignEPKcj
Mph:__Z111RuntimeInvoker_Void_t1841601450_RuntimeObject_SByte_t454417549_ObjectU26_t597476745_HeaderU5BU5DU26_t2818328198PFvvEPK10MethodInfoPvPS4_
MMj:__ZN15dense_hashtableINSt3__24pairIK10KeyWrapperIP12Il2CppObjectEN6il2cpp2gc9CachedCCWEEES5_NS7_5utils11PointerHashIS3_EEN14dense_hash_mapIS5_S9_SD_NS5_14EqualsComparerINS0_8equal_toIS4_EEEENS0_9allocatorISA_EEE9SelectKeyESI_SK_E3endEv
NNd:_MouseButtonEventData_ReleasedThisFrame_m482758300
vOi:_SceneManager_Internal_SceneLoaded_m1729738062
xDj:__ZN15dense_hashtableINSt3__24pairIK10KeyWrapperINS1_IP11Il2CppClassjEEES4_EES6_N6il2cpp8metadata14ArrayClassHashEN14dense_hash_mapIS6_S4_SB_NS6_14EqualsComparerINSA_17ArrayClassCompareEEENS0_9allocatorIS8_EEE9SelectKeyESF_SH_E9copy_fromERKSK_j
B9d:_ReadOnlyArrayListWrapper_set_Item_m2199017141
I4b:__ZN6Camera6SetFarEf
uHi:_DeriveBytes_DeriveIV_m3343375195
U1c:_UNITY_FT_Init_Class_ft_bitmap_glyph_class
Smc:__ZNK17AnimationCurveTplI11QuaternionfE13EvaluateClampEfPNS1_5CacheE
Ezd:_RNGCryptoServiceProvider_GetBytes_m167497991
oua:__ZN6prcoreL12RemapGenericI17TexFormatABGR888817TexFormatARGB8888EEvPKNS_9InnerInfoE
XMa:__ZN11GameManager17MainThreadCleanupEv
cvf:_Collection_1_GetEnumerator_m1417525918_gshared
Omd:__Z50Register_UnityEngine_UISystemProfilerApi_EndSamplev
Axh:__Z60RuntimeInvoker_Boolean_t3825574718_PlayableOutput_t988259697PFvvEPK10MethodInfoPvPS4_
j9g:_TypeBuilder_get_Assembly_m492491492
Lb:invoke_vffff
Rvf:_Collection_1_InsertItem_m1225429801_gshared
OKc:__ZN10Collider2D12AddToManagerEv
S9c:_UNITY_tt_slot_init
qTb:__ZZ23InitPlayerLoopCallbacksvEN41PostLateUpdateUpdateResolutionRegistrator7ForwardEv
Cye:_Array_FindLastIndex_TisRuntimeObject_m986818300_gshared
mMb:__Z25scripting_array_class_get17ScriptingClassPtrj
YEc:__ZL22Transfer_ManagedObjectI9JSONWriteLb1EEvRK29SerializationCommandArgumentsR31RuntimeSerializationCommandInfo
VO:__ZNK10SampleClip22GetTypeVirtualInternalEv
hla:__ZN9GfxDevice20DestroyRenderSurfaceER12ObjectHandleI17RenderSurface_TagP17RenderSurfaceBaseE
fia:__ZN18SpriteAtlasManagerC2Ev
qbc:__ZL24PrepareSpriteRenderNodesILb1EEvR35RenderNodeQueuePrepareThreadContext
TDa:__ZN9GfxDevice22UpdateComputeResourcesEjPK9TextureIDPK16TextureDimensionPKijPKjjPK15ComputeBufferIDS7_PK20ComputeBufferCounterjSC_S2_S5_S9_SF_
eQa:__ZN12_GLOBAL__N_15qAsinEff
RGe:_Dictionary_2_Do_ICollectionCopyTo_TisKeyValuePair_2_t3749587448_m2536766696_gshared
wHa:__ZN12TLSAllocatorI14StackAllocatorE13ThreadCleanupEv
Nyh:__Z154RuntimeInvoker_RaycastHit2D_t4063908774_Vector2_t2243707579_Vector2_t2243707579_Single_t2076509932_Int32_t2071877448_Single_t2076509932_Single_t2076509932PFvvEPK10MethodInfoPvPS4_
vP:__Z18GetAudioManagerPtrv
Gye:_Array_IndexOf_TisRuntimeObject_m1815604637_gshared
vff:_List_1_GetEnumerator_m2837081829_gshared
$Sj:__ZThn4_N6il2cpp2vm13ComObjectBase16MarshalInterfaceEP13Il2CppIStreamRK10Il2CppGuidPvjS7_j
Jab:__ZN4Mesh27SwizzleVertexColorsIfNeededEb
ZOb:__Z27FindActiveTransformWithPathPKc
HCh:__Z69RuntimeInvoker_Boolean_t3825574718_ObjectU26_t597476745_RuntimeObjectPFvvEPK10MethodInfoPvPS4_
iPa:__ZN12BaseRendererD0Ev
v8b:__Z29StdTemplateConversionFunctionIbyEbPvR14SafeBinaryRead
Uuh:__Z44RuntimeInvoker_X509KeyUsageFlags_t2461349531PFvvEPK10MethodInfoPvPS4_
PKi:_PropertyName_op_Inequality_m2830582941
nTe:_SecurityParser_OnEndElement_m2909940377
uYg:__ZL92CanvasRenderer_t261436805_CustomAttributesCacheGenerator_CanvasRenderer_set_cull_m3941605148P21CustomAttributesCache
IPa:__ZNK6Camera7GetNearEv
wxa:__ZN7ApiGLES11UnmapBufferEjN2gl12BufferTargetE
jTj:__ZN6il2cpp5utilsL24Utf32CharToSurrogatePairEjRA2_Ds
Z2a:__Z25GetNextAllowedTextureSizeib13TextureFormat
ROb:__ZN20LocalFileSystemWebGL4CopyER13FileEntryDataS1_
jkf:_List_1_CheckIndex_m4231572822_gshared
I1:__ZN19CloudServiceHandler6RetainEv
f$j:__ZN6il2cpp2os9Semaphore4WaitEb
HMc:__ZN15b2FrictionJointD0Ev
iEd:_StrongName_Equals_m67226644
XAc:__Z36Event_CUSTOM_Internal_SetNativeEventPv
hQa:__ZN12BaseRenderer20FlattenToRenderQueueER15RenderNodeQueueRK20DeprecatedSourceData
lah:_FieldBuilder_get_Attributes_m2174064290
A6e:_UnmanagedMemoryStream_get_Length_m587008850
dmb:__Z34scripting_liveness_calculation_endPv
vyc:__ZNK19RectangleCellLayout13GetCellCenterEv
LQj:__ZN6il2cpp2os6ThreadC2Ev
XEd:_SecurityFrame_InitFromRuntimeFrame_m45195821
wwg:__ZL53TextReader_t1561828458_CustomAttributesCacheGeneratorP21CustomAttributesCache
z_f:_X509Chain_IsSignedWith_m292245392
$z:__ZN21AnimationClipPlayable22ProcessAnimationNoClipEPK35AnimationPlayableEvaluationConstantPK32AnimationPlayableEvaluationInputP33AnimationPlayableEvaluationOutput
HOj:__ZNK6il2cpp2os10SocketImpl12GetLastErrorEv
gve:_Array_InternalArray__ICollection_Remove_TisDateTime_t693205669_m1275668216_gshared
U$h:_Dictionary_2__ctor_m871840915_gshared
nBf:_ReadOnlyCollection_1_System_Collections_Generic_ICollectionU3CTU3E_Remove_m3751131234_gshared
yGc:__Z18Transfer_BlittableI8JSONReadLb0E8Vector3fEvRK29SerializationCommandArgumentsR31RuntimeSerializationCommandInfo
ov:__ZN13AnimationClip12Vector3Curve8TransferI14SafeBinaryReadEEvRT_
Cni:_ChannelServices__cctor_m3534779830
_Ej:__ZN6il2cpp2vm6Thread6DetachEP12Il2CppThread
aNi:_RectOffset_Finalize_m816260249
LQi:_Transform_set_localRotation_m3053695533
S5c:_Render_Single_Pass
Qhe:_Convert_ToInt16_m416789348
Xcg:_EncoderExceptionFallback_Equals_m762170768
X4i:__ZL24UnresolvedVirtualCall_59P12Il2CppObjectS0_aPK10MethodInfo
I0i:_EqualityComparer_1__cctor_m2666196678_gshared
kZc:__GLOBAL__sub_I_runtime_dynamics_2_cpp
KUh:_Enumerator_get_CurrentValue_m3147984131_AdjustorThunk
LI:__ZN7mecanim8skeleton30SkeletonBuildReverseIndexArrayEPiPKiPKNS0_8SkeletonES6_
azc:__Z19GetGUIBlendMaterialv
gzh:__Z69RuntimeInvoker_Boolean_t3825574718_TextGenerationSettings_t2543476768PFvvEPK10MethodInfoPvPS4_
ePj:__ZN6il2cpp2os10ThreadImpl5SleepEjb
Zhi:_InternalEnumerator_1_System_Collections_IEnumerator_Reset_m3669601605_AdjustorThunk
SJi:_X509ExtensionCollection_System_Collections_IEnumerable_GetEnumerator_m2600902401
gFc:__ZN9JSONWrite8TransferI13GUIStyleStateEEvRT_PKc17TransferMetaFlags
FYi:_UnityEvent_1_GetDelegate_m2559549291_gshared
HJ:__ZN18AnimatorController23VirtualRedirectTransferER24GenerateTypeTreeTransfer
EUf:_ListDictionary_FindEntry_m432748847
wbk:_glBindSampler__wrapper
NMa:__ZNSt3__26vectorIN20ArchiveStorageHeader12StorageBlockE13stl_allocatorIS2_L18MemLabelIdentifier55ELi16EEE8__appendEj
Mf:_emscripten_set_mouseup_callback
IDa:__ZN9GfxDevice27SetRandomWriteTargetTextureEi9TextureID
FBh:__Z58RuntimeInvoker_Boolean_t3825574718_SpriteState_t1353336012PFvvEPK10MethodInfoPvPS4_
Cla:__ZN9GfxDevice47SwitchColorRenderSurfaceOutOfFastMemoryPlatformEP17RenderSurfaceBaseb
zHe:_BaseInvokableCall_ThrowOnInvalidArg_TisColor_t2020392075_m3638385415_gshared
F6b:__ZNK18ScreenManagerWebGL8GetWidthEv
t3i:_AudioExtensionManager_GetListenerSpatializerExtensionEditorType_m165088149
Toj:__ZN6il2cpp2vm13MetadataCache33GetFieldDefaultValueDataFromIndexEi
NWd:_GridLayoutGroup_set_startAxis_m1635162426
SO:__ZN10SampleClipD2Ev
hqi:_SynchronizationAttribute_EnterContext_m2984912761
Rrg:__ZL73Enum_t2459695545_CustomAttributesCacheGenerator_Enum_ToObject_m2601523252P21CustomAttributesCache
rte:_CultureInfo_construct_internal_locale_from_name_m971766383
dPj:__ZN6il2cpp2os10ThreadImpl13SetWaitObjectEPNS0_5posix15PosixWaitObjectE
i6d:_Byte_Equals_m368616327_AdjustorThunk
wlb:__Z13GetGISettingsv
Rac:__ZN19SpriteMeshGenerator7contourERNSt3__26vectorINS_6vertexENS0_9allocatorIS2_EEEERiRf
iBe:_Array_InternalArray__ICollection_Add_TisUIVertex_t1204258818_m3869382594_gshared
s1:__ZN11UnityEngine15CloudWebService20WebRequestRestClientC2Ev
m9c:_cff_cmap_unicode_init
vVb:__ZNSt3__224__buffered_inplace_mergeIRN10vector_mapIiN17InstancedPropInfo12PropertyTypeENS_4lessIiEE13stl_allocatorINS_4pairIiS3_EEL18MemLabelIdentifier1ELi16EEE13value_compareENS_11__wrap_iterIPS8_EEEEvT0_SH_SH_T_NS_15iterator_traitsISH_E15difference_typeESL_PNSK_10value_typeE
Lqe:_Enum_ToObject_m2460371738
TMe:_PrimalityTests_Test_m1088386156
ica:__ZN14FileCacherRead13GetFileLengthEv
VSi:_Vector4_SqrMagnitude_m1060560279
n2j:_readlink
hAj:__ZN15dense_hashtableINSt3__24pairIK10KeyWrapperINS1_IPK9EventInfoP11Il2CppClassEEEjEES9_17ReflectionMapHashIS8_EN14dense_hash_mapIS9_jSD_NS9_14EqualsComparerINS0_8equal_toIS8_EEEENS0_9allocatorISB_EEE9SelectKeyESI_SK_E12resize_deltaEjj
uFe:_Array_Resize_TisVector3_t2243707580_m893658391_gshared
mai:_InternalEnumerator_1_System_Collections_IEnumerator_get_Current_m4259662004_AdjustorThunk
SIe:_Array_InternalArray__get_Item_TisKeyframe_t1449471340_m1003508933_gshared
lZj:__ZN6il2cpp8metadata14Il2CppTypeHash4HashEPK10Il2CppType
z_j:__ZN6il2cpp2os13SemaphoreImplC2Eii
wSg:__ZL123UnitySynchronizationContext_t1205147244_CustomAttributesCacheGenerator_UnitySynchronizationContext_ExecuteTasks_m1920809885P21CustomAttributesCache
Brh:__Z50RuntimeInvoker_Double_t4078015681_Int64_t909078037PFvvEPK10MethodInfoPvPS4_
DRe:_StrongName_get_PublicKeyToken_m1968460885
mdb:__ZNK6Sprite9GetBoundsE8Vector2fbb
eTa:__ZNK19RenderEventsContext21CleanupCommandBuffersEv
Xxc:__ZNK4Grid23LocalToCellInterpolatedERKN4math7_float3E
CK:__ZN7mecanim12statemachine13StateConstant8TransferI14SafeBinaryReadEEvRT_
Uoa:__ZN11ContextGLES6CreateEi
h0e:_BinaryReader_Dispose_m4249456877
Vge:_Double_ToString_m1085043609
uLb:__Z19TransferField_ArrayI18StreamedBinaryReadILb0EE27Converter_SimpleNativeClassI17AnimationCurveTplIfEEEvRK23StaticTransferFieldInfoR31RuntimeSerializationCommandInfoRT0_
KLf:_CipherSuite_createEncryptionCipher_m1926075645
vGi:_Plane__ctor_m730644932
$Ga:__ZN14StackAllocator16FrameMaintenanceEb
gWd:_Graphic_Raycast_m3582517890
BXc:__ZZN10Collider2D15InitializeClassEvEN33FunctorImpl_99kDidRemoveComponent4CallEPviR11MessageData
Rca:__ZNK10GameObject20QueryComponentByTypeEPKN5Unity4TypeE
XTi:_GUISkin_MakeCurrent_m1547433985
Jdf:_Enumerator_MoveNext_m1367380970_AdjustorThunk
Cch:_OpCode_GetHashCode_m2974727122
LLf:_CipherSuite_createDecryptionCipher_m1118350455
bsi:_PatternCompiler_EmitReference_m1381860071
Bpe:_Double_System_IConvertible_ToInt16_m4200640326
Wyh:__Z84RuntimeInvoker_RuntimeObject_RayU26_t3651946800_Single_t2076509932_Int32_t2071877448PFvvEPK10MethodInfoPvPS4_
i2a:__ZN11TextureData5ResetEv
zQg:__ZL105RectTransform_t3349966182_CustomAttributesCacheGenerator_RectTransform_INTERNAL_get_anchorMin_m3722367822P21CustomAttributesCache
jsc:__Z53Register_UnityEngine_GameObject_get_activeInHierarchyv
X6i:__ZL25UnresolvedVirtualCall_167P12Il2CppObject19Vector2_t2243707579PK10MethodInfo
nbh:_GenericTypeParameterBuilder_get_IsGenericType_m1883522222
Iia:__ZN15dense_hashtableINSt3__24pairIKN4core12basic_stringIcNS2_20StringStorageDefaultIcEEEE13dynamic_arrayI4PPtrI6SpriteELj4EEEES6_20StringHash32FunctionIS6_EN14dense_hash_mapIS6_SC_SF_NS0_8equal_toIS6_EE13stl_allocatorISD_L18MemLabelIdentifier81ELi16EEE9SelectKeyESI_SL_EC2ERKSO_j
b8:__ZL30InitializeCoreScriptingClassesv
Nwf:_Collection_1_CheckWritable_m3938993573_gshared
Ig:_glBlitFramebuffer
oKa:__ZN17ArchiveFileSystem5TouchER13FileEntryData
jQf:_SecurityParameters_set_Cipher_m3888132335
$Me:_BigInteger_GeneratePseudoPrime_m2606361440
wme:_DateTimeFormatInfo_get_ShortTimePattern_m20923983
QAb:__Z35Transfer_Blittable_SingleValueFieldI14SafeBinaryReadhEvRT_R17GeneralMonoObjectRK23StaticTransferFieldInfo
E1g:__ZL140U3CMouseDragOutsideRectU3Ec__Iterator1_t2599668326_CustomAttributesCacheGenerator_U3CMouseDragOutsideRectU3Ec__Iterator1_Dispose_m2134284531P21CustomAttributesCache
qkc:__ZN12CachedWriter15CompleteWritingEv
Qcj:_newBullet__ctor_m4069009721
qQe:_EncryptedPrivateKeyInfo_get_Algorithm_m2779196942
e5f:_RemotingServices_GetRealProxy_m620317996
NXb:__ZN13dynamic_arrayI11CulledLightLj4EE6insertEPS0_PKS0_S4_
e7i:__ZL25UnresolvedVirtualCall_176P12Il2CppObject22UICharInfo_t3056636800S1_PK10MethodInfo
L7h:_ArrayReadOnlyList_1_RemoveAt_m2270349795_gshared
m1a:__ZNK12CubemapArray22GetTypeVirtualInternalEv
paj:_Predicate_1_Invoke_m2060780095_gshared
Poj:__ZN6il2cpp2vm13MetadataCache23GetInterfaceOffsetIndexEi
Tn:FUNCTION_TABLE_vif
Un:FUNCTION_TABLE_vid
Wn:FUNCTION_TABLE_vii
omb:__Z40scripting_liveness_calculation_from_root18ScriptingObjectPtrPv
UZa:__ZN7Texture23VirtualRedirectTransferER24GenerateTypeTreeTransfer
Q$c:_UNITY_FT_Set_Transform
Ngc:__ZNK32RendererMaterialAnimationBinding12SetPPtrValueERKN11UnityEngine9Animation10BoundCurveEi
_Lj:__ZN6il2cpp8metadata15GenericMetadata20RegisterGenericClassEP18Il2CppGenericClass
jvh:__Z101RuntimeInvoker_OpFlags_t378191910_SByte_t454417549_SByte_t454417549_SByte_t454417549_SByte_t454417549PFvvEPK10MethodInfoPvPS4_
bbk:_glDeleteFramebuffers__wrapper
FXd:_Image_get_overrideSprite_m706080347
TEh:__Z54RuntimeInvoker_Int32_t2071877448_LabelData_t3712112744PFvvEPK10MethodInfoPvPS4_
VRd:_ColorTween_t3438117476_marshal_pinvoke_cleanup
jHf:_BigInteger_ModInverse_m1881894572
fsj:__ZN6il2cpp2vm7Runtime17GetDelegateInvokeEP11Il2CppClass
p4g:__ZL79LayoutRebuilder_t2155218138_CustomAttributesCacheGenerator_U3CU3Ef__amU24cache4P21CustomAttributesCache
lhc:__ZZN12MeshRenderer15InitializeClassEvEN29FunctorImpl_134kDidDeleteMesh4CallEPviR11MessageData
T2g:__ZL59Slider_t297367283_CustomAttributesCacheGenerator_m_FillRectP21CustomAttributesCache
dcc:__Z22GenerateBoxTilingShapeP22GenerateTilingAreaInfo
o4a:__ZN28EnlightenRendererInformation8TransferI14SafeBinaryReadEEvRT_
Pth:__Z88RuntimeInvoker_RuntimeObject_RuntimeObject_Int32_t2071877448_RuntimeObject_RuntimeObjectPFvvEPK10MethodInfoPvPS4_
Fyg:__ZL69DefaultDependencyAttribute_t3858269114_CustomAttributesCacheGeneratorP21CustomAttributesCache
aMa:__ZNK15Lz4Decompressor16DecompressMemoryEPKvPjPvS2_
l4c:_UNITY_tt_face_build_cmaps
gMi:_Rect_get_height_m1231429410
AWc:__ZN11Rigidbody2D8TransferI24GenerateTypeTreeTransferEEvRT_
H$a:__Z35UnityPropertySheet_MakeSortedColorsRKNSt3__23mapIN9ShaderLab16FastPropertyNameE10ColorRGBAfNS_4lessIS2_EENS_9allocatorINS_4pairIKS2_S3_EEEEEER10vector_mapIS2_S3_S5_NS6_INS7_IS2_S3_EEEEE
gne:_Decimal_System_IConvertible_ToType_m3828527724_AdjustorThunk
VZd:_InputField_get_caretPositionInternal_m3011712053
y3c:_UNITY_tt_face_load_os2
aWc:__ZN17PolygonCollider2D8TransferI24GenerateTypeTreeTransferEEvRT_
_If:_HMAC_get_Key_m2528863640
zxf:_Collection_1_IsSynchronized_m1366278230_gshared
fEg:__ZL93StringBuilder_t1221177846_CustomAttributesCacheGenerator_StringBuilder_AppendLine_m1686706871P21CustomAttributesCache
gAb:__Z29Transfer_Blittable_ArrayFieldI14SafeBinaryRead8Vector4fEvRT_R9ArrayInfoRK23StaticTransferFieldInfo
Bte:_Array_get_swapper_TisInt32_t2071877448_m2837069166_gshared
YNh:_Selectable_Navigate_m915280351
RCh:__Z77RuntimeInvoker_Boolean_t3825574718_AspectModeU26_t218518220_Int32_t2071877448PFvvEPK10MethodInfoPvPS4_
loi:_ConfigHandler_CheckPath_m2296459741
fNd:_PointerEventData_IsScrolling_m1971908975
KHh:__Z56RuntimeInvoker_ContentType_t1028629049_Int32_t2071877448PFvvEPK10MethodInfoPvPS4_
hTb:__ZZ23InitPlayerLoopCallbacksvEN51PostLateUpdateUpdateCustomRenderTexturesRegistrator7ForwardEv
lUg:__ZL53UILineInfo_t3621277874_CustomAttributesCacheGeneratorP21CustomAttributesCache
sne:_Decimal_System_IConvertible_ToInt16_m3159038792
xA:__ZN7mecanim9animation12EvaluateClipEPKNS0_4ClipEPKNS0_9ClipInputEPNS0_10ClipMemoryEPNS0_10ClipOutputE
uib:__ZNSt3__26vectorIN15ResourceManager10DependencyE13stl_allocatorIS2_L18MemLabelIdentifier52ELi16EEEC2INS_11__wrap_iterIPS2_EEEET_SB_RKS5_PNS_9enable_ifIXaasr21__is_forward_iteratorISB_EE5valuesr16is_constructibleIS2_NS_15iterator_traitsISB_E9referenceEEE5valueEvE4typeE
z4a:__ZN4PPtrI11LightProbesE8TransferI18StreamedBinaryReadILb0EEEEvRT_
cmi:_ComVisibleAttribute__ctor_m1789587486
cgh:_MonoMethodInfo_GetReturnType_m2864247130
rsh:__Z39RuntimeInvoker_DateTimeKind_t2186819611PFvvEPK10MethodInfoPvPS4_
y3b:__ZN13RenderManager29SetCurrentCameraAndStackStateEP6CameraP25CameraStackRenderingState
GQi:_Transform_INTERNAL_get_rotation_m1873681960
WOa:__ZNSt3__26__treeINS_12__value_typeIjN4core12basic_stringIcNS2_20StringStorageDefaultIcEEEEEENS_19__map_value_compareIjS7_NS_4lessIjEELb1EEE13stl_allocatorIS7_L18MemLabelIdentifier7ELi16EEE7destroyEPNS_11__tree_nodeIS7_PvEE
MEj:__ZN15dense_hashtableINSt3__24pairIK10KeyWrapperINS1_IP11Il2CppClassjEEES4_EES6_N6il2cpp8metadata14ArrayClassHashEN14dense_hash_mapIS6_S4_SB_NS6_14EqualsComparerINSA_17ArrayClassCompareEEENS0_9allocatorIS8_EEE9SelectKeyESF_SH_E12resize_deltaEjj
Xh:_JS_WebRequest_Release
u1e:_DirectoryNotFoundException__ctor_m2242202556
H$:__ZN11UnityEngine15CloudWebService14DataErrorEventD0Ev
dIj:__ZN6il2cpp6icalls8mscorlib6System4Type20internal_from_handleEi
rId:_String_CreateString_m2448464375
e0f:_X509SubjectKeyIdentifierExtension__ctor_m2959112706
LUh:_Enumerator_Reset_m1147555085_AdjustorThunk
aeh:_FieldInfo_get_IsNotSerialized_m2322769148
THg:__ZL68Math_t2022911894_CustomAttributesCacheGenerator_Math_Max_m2671311541P21CustomAttributesCache
WLj:__ZN6il2cpp8metadata15GenericMetadata7InflateEPK19Il2CppGenericMethodPK20Il2CppGenericContext
L3a:__ZN19ShaderPropertySheet16SetArrayPropertyEN9ShaderLab16FastPropertyNameENS_12PropertyTypeEPKvj
Xfh:_MonoGenericCMethod_get_ReflectedType_m2689239043
Axf:_Collection_1_IsFixedSize_m499196375_gshared
XRd:_ColorTween_set_startColor_m3546206870_AdjustorThunk
xsg:__ZL67RuntimeArray_CustomAttributesCacheGenerator_Array_IndexOf_m77084779P21CustomAttributesCache
Hqg:__ZL63String_t_CustomAttributesCacheGenerator_String_Split_m394273024P21CustomAttributesCache
Uhd:__ZN2UI11CanvasGroup23VirtualRedirectTransferER19StreamedBinaryWriteILb0EE
tdi:_InternalEnumerator_1_get_Current_m4083613828_gshared
iuj:__ZN6il2cpp2os4File11GetStdErrorEv
O8i:_TextGenerator_INTERNAL_CALL_Populate_Internal_cpp_m106350432
Wed:__ZN17TilemapCollider2D21PrepareCompositePathsERNSt3__26vectorINS1_IN10ClipperLib8IntPointENS0_9allocatorIS3_EEEENS4_IS6_EEEERK10Matrix4x4f
_Bi:_UnityAction__ctor_m3825983746
uAc:__ZN8GUIState8EndOnGUIEv
Efg:_UnicodeEncoding_GetString_m542738941
Z9c:_UNITY_TT_Get_VMetrics
V0e:_Path_InsecureGetFullPath_m2635272425
vee:_Enumerator_Clone_m1124749523
Pke:_DateTime_System_IConvertible_ToUInt32_m1363211018
jLi:_Quaternion_ToString_m1042358501
pag:_RuntimeMethodHandle__ctor_m1162528746
Qaj:_Predicate_1__ctor_m3243601712_gshared
Apf:_Enumerator_Dispose_m3300818037_AdjustorThunk
Smf:_List_1_AsReadOnly_m4108578222_gshared
Pvd:_DSA__ctor_m613430209
nwe:_SetPropertyUtility_SetStruct_TisSingle_t2076509932_m3849235084_gshared
Nra:__ZN7Texture21GetMasterTextureLimitEv
o5b:__Z12CanAddScriptR10GameObject17ScriptingClassPtrPS1_S2_
gDj:__ZN6il2cpp2vm10Reflection12HasAttributeEP12Il2CppObjectP11Il2CppClass
zCd:_X509Certificate_GetExpirationDateString_m2351894475
Z6:__ZN9ShaderLabL25StaticInitializeShaderLabEPv
s1h:_Dictionary_2_ContainsKeyValuePair_m3818021458_gshared
U:Math_max
Jxf:_Collection_1_System_Collections_IList_Insert_m1511106741_gshared
sOg:__ZL93Mesh_t1356156583_CustomAttributesCacheGenerator_Mesh_GetAllocArrayFromChannelImpl_m1559282939P21CustomAttributesCache
C5i:__ZL24UnresolvedVirtualCall_92P12Il2CppObjectPK10MethodInfo
Tsj:_il2cpp_class_get_methods
Y0e:_Path_CanonicalizePath_m383914732
STh:_Enumerator_System_Collections_IEnumerator_get_Current_m1631145297_gshared
WCb:__Z18Transfer_BlittableI24GenerateTypeTreeTransferLb0EN4math12int2_storageEEvRK29SerializationCommandArgumentsR31RuntimeSerializationCommandInfo
F8d:_ArrayList_Synchronized_m2395071980
RQj:__ZN6il2cpp2os6Thread16GetCurrentThreadEv
nsg:__ZL81RuntimeArray_CustomAttributesCacheGenerator_Array_SetValue_m169741241____indices1P21CustomAttributesCache
Lic:__ZN10GameObject13ComponentPair15SetComponentPtrEPN5Unity9ComponentE
u6e:_UnexceptionalStreamWriter_Write_m3206913035
Ncc:__Z13RegisterClassI10MeshFilterEvv
cPa:__ZN10TagManager8TransferI19StreamedBinaryWriteILb0EEEEvRT_
Glb:__ZN11PreloadData23VirtualRedirectTransferER18StreamedBinaryReadILb0EE
K8a:__ZN13sorted_vectorI4PPtrI11SpriteAtlasENSt3__24lessIS2_EE13stl_allocatorIS2_L18MemLabelIdentifier1ELi16EEE21sort_clear_duplicatesEv
LF:__Z17dynamic_pptr_castIP10MonoScript6ObjectET_RK4PPtrIT0_E
MSj:__ZN6il2cpp6icalls8mscorlib6System10ReflectionL40il2cpp_class_get_generic_type_definitionEP11Il2CppClass
Dcg:_DESTransform_ProcessBlock_m2826669227
KXe:_Int16_CompareTo_m3493496879
gPg:__ZL56RenderTexture_t2666733923_CustomAttributesCacheGeneratorP21CustomAttributesCache
rxj:__ZN15dense_hashtableINSt3__24pairIK10KeyWrapperINS1_IPK9FieldInfoP11Il2CppClassEEEjEES9_17ReflectionMapHashIS8_EN14dense_hash_mapIS9_jSD_NS9_14EqualsComparerINS0_8equal_toIS8_EEEENS0_9allocatorISB_EEE9SelectKeyESI_SK_E16reset_thresholdsEv
uRg:__ZL56ColorWriteMask_t926634530_CustomAttributesCacheGeneratorP21CustomAttributesCache
D7a:__ZN6Sprite17MainThreadCleanupEv
AKg:__ZL56OidCollection_t3790243618_CustomAttributesCacheGeneratorP21CustomAttributesCache
_Cg:__ZL61SignatureDescription_t89145500_CustomAttributesCacheGeneratorP21CustomAttributesCache
Bci:_InternalEnumerator_1_MoveNext_m3389738333_AdjustorThunk
wU:__ZN10AudioMixer14UpdateMuteSoloEv
vUb:__Z17GetMonoManagerPtrv
kqf:_Stack_1_System_Collections_ICollection_get_SyncRoot_m3151629354_gshared
gOa:__ZN9Transform35SetLocalPositionWithoutNotificationERKN4math7_float3Ey
vLh:_MaskableGraphic_UnityEngine_UI_IClippable_get_gameObject_m954171032
Xi:_JS_Eval_ClearTimeout
Aqa:__ZN7ApiGLES16SetPatchVerticesEi
S3e:_MonoIOStat_t1621921065_marshal_pinvoke
wLa:__ZN10MemoryFileC2E18MemLabelIdentifierP14MemoryFileData14FilePermission
b6f:_TrackingServices_NotifyUnmarshaledObject_m1794048369
Qhj:__ZN6il2cpp2vm5Class20FromGenericParameterEPK22Il2CppGenericParameter
hBg:__ZL59RemotingServices_t2399536837_CustomAttributesCacheGeneratorP21CustomAttributesCache
f2:__ZN19CloudServiceHandler11FlushEventsEv
Sga:__ZN15GlobalCallbacksC2Ev
XDe:_Array_InternalArray__set_Item_TisLabelFixup_t4090909514_m565370771_gshared
kWj:_GC_print_static_roots
JWc:__ZN7b2World10CreateBodyEPK9b2BodyDef
p1c:_UNITY_FT_New_Memory_Face
rJg:__ZL74X509Crl_t1699034837_CustomAttributesCacheGenerator_U3CU3Ef__switchU24map13P21CustomAttributesCache
N9f:_SerializationEntry__ctor_m1619256036_AdjustorThunk
h$c:__ZN20TextRenderingPrivate21TextMeshGeneratorImpl5FlushEv
ZDd:__Z15CastclassSealedP12Il2CppObjectP11Il2CppClass
mcc:__ZN15ApplicationInfo14GetSandboxTypeEv
Qlh:__Z41RuntimeInvoker_TypeAttributes_t2229518203PFvvEPK10MethodInfoPvPS4_
XAb:__Z18Transfer_BlittableI17RemapPPtrTransferLb1EhEvRK29SerializationCommandArgumentsR31RuntimeSerializationCommandInfo
iRj:__ZNSt3__26vectorIjNS_9allocatorIjEEE26__swap_out_circular_bufferERNS_14__split_bufferIjRS2_EE
g4b:__ZN16ReflectionProbes40UpdateRealtimeReflectionProbesTimeslicedEv
Vxc:__ZNK4Grid11LocalToCellERKN4math7_float3E
l_i:_ListPool_1_Get_m529219189_gshared
bLj:__ZNSt3__26__treeINS_12__value_typeIP24Il2CppReflectionAssemblyPvEENS_19__map_value_compareIS3_S5_NS_4lessIS3_EELb1EEENS_9allocatorIS5_EEE16__insert_node_atEPNS_16__tree_node_baseIS4_EERSF_SF_
Mbh:_MethodBuilder_GetBaseDefinition_m774166361
W7f:_FormatterConverter__ctor_m3958982477
Jib:__ZNK30RuntimeInitializeOnLoadManager22GetTypeVirtualInternalEv
vmj:__ZN15dense_hashtableINSt3__24pairIK10KeyWrapperIN6il2cpp5utils13dynamic_arrayIPK10Il2CppTypeLj4EEEEPFvvEEESA_NS3_8metadata19Il2CppSignatureHashEN14dense_hash_mapISA_SD_SG_NSA_14EqualsComparerINSF_22Il2CppSignatureCompareEEENS0_9allocatorISE_EEE9SelectKeyESK_SM_E12resize_deltaEjj
sgc:__ZN16ReflectionProbes15InitializeClassEv
zYj:__ZN6il2cpp5utils5MatchENSt3__212basic_stringIcNS1_11char_traitsIcEENS1_9allocatorIcEEEEjRKS7_j
m2c:_UNITY_FT_Destroy_Class_psnames_module_class
bNc:__ZNK12b2WheelJoint17GetReactionTorqueEf
Knj:__ZNK15dense_hashtableINSt3__24pairIK10KeyWrapperIPK11Il2CppClassEPKcEES6_N6il2cpp5utils11PointerHashIS3_EEN14dense_hash_mapIS6_S9_SE_NS6_14EqualsComparerINS0_8equal_toIS5_EEEENS0_9allocatorISA_EEE9SelectKeyESJ_SL_E12test_deletedEj
Fri:_MRUList_Evict_m2430323183
RBf:_ReadOnlyCollection_1_System_Collections_Generic_ICollectionU3CTU3E_Remove_m1060547576_gshared
jyh:__Z68RuntimeInvoker_Boolean_t3825574718_Rect_t3681755626_SByte_t454417549PFvvEPK10MethodInfoPvPS4_
uIe:_Array_InternalArray__get_Item_TisRuntimeObject_m371871810_gshared
h6e:_NullTextWriter_Write_m2306984725
RF:__ZN8Animator13BatchedFKPassERK13dynamic_arrayIP14PlayableOutputLj4EE
TQf:_RecordProtocol_ProcessChangeCipherSpec_m3233959862
rVd:_Graphic_set_raycastTarget_m1229173591
nGe:_Array_Sort_TisVector4_t2243707581_m474199742_gshared
Gda:__ZN13RuntimeStaticINSt3__23mapIN4core12basic_stringIcNS2_20StringStorageDefaultIcEEEES6_NS0_4lessIS6_EE13stl_allocatorINS0_4pairIKS6_S6_EEL18MemLabelIdentifier13ELi16EEEELb0EE13StaticDestroyEPv
Kfj:_Rigidbody2D_AddForce_m1687473487
c6e:_TextWriter_Write_m576684782
Vj:_glIsVertexArray
KLa:__ZN25SingleBlockMemoryFileDataC2E18MemLabelIdentifierPvjb
oFa:__ZN5Unity9Component8TransferI18StreamedBinaryReadILb0EEEEvRT_
fa:invoke_fff
wSh:_Text_get_fontSize_m3105730761
g8j:b14
iQf:_TlsServerHello_Update_m1740270635
chd:__ZN2UI6Canvas17MainThreadCleanupEv
Geb:__ZNSt3__26vectorI14SubstanceInputNS_9allocatorIS1_EEE6assignINS_11__wrap_iterIPS1_EEEENS_9enable_ifIXaasr21__is_forward_iteratorIT_EE5valuesr16is_constructibleIS1_NS_15iterator_traitsISA_E9referenceEEE5valueEvE4typeESA_SA_
Yta:__ZN6prcoreL12RemapGenericI17TexFormatARGB155517TexFormatRGBA8888EEvPKNS_9InnerInfoE
cPh:_ScrollRect_Rebuild_m3423824761
Wmf:_List_1_Find_m3862454845_gshared
sQd:_CanvasScaler_get_physicalUnit_m3637173174
uri:_MatchCollection_get_Item_m2609281578
WBa:__ZN7ApiGLES13CreateProgramEv
JUa:__ZN11HaloManager7AddHaloEv
ygg:_UTF8Encoding__ctor_m100325490
asa:__ZN4crnd12crn_unpackerD2Ev
$Rh:_StencilMaterial_ClearAll_m1372779118
gk:_emscripten_glTexImage2D
G4f:_ObjRefSurrogate_SetObjectData_m1873902916
K9c:_tt_driver_class_pic_init
S7:__ZN18ScriptingArguments9AddStringEPKc
yWj:_setup_header
Tsh:__Z99RuntimeInvoker_RuntimeObject_DateTime_t693205669_Nullable_1_t1693325264_RuntimeObject_RuntimeObjectPFvvEPK10MethodInfoPvPS4_
Wzf:_ReadOnlyCollection_1_System_Collections_IList_get_IsReadOnly_m1367736517_gshared
Q4j:runPostSets
JZg:__ZL93AxisEventData_t1524870173_CustomAttributesCacheGenerator_AxisEventData_set_moveDir_m254243794P21CustomAttributesCache
eta:__ZL23stbir__resize_arbitraryPvPKviiiS_iiiffffPfiij14stbir_datatype12stbir_filterS4_10stbir_edgeS5_16stbir_colorspace
Oif:_List_1_System_Collections_IList_Insert_m848656350_gshared
Qac:__ZN19SpriteMeshGenerator4maskC2EP11ColorRGBA32iihj
oDb:__Z18Transfer_BlittableI24GenerateTypeTreeTransferLb1E8Vector4fEvRK29SerializationCommandArgumentsR31RuntimeSerializationCommandInfo
pZe:_Int16_ToString_m3971652088_AdjustorThunk
rk:_pthread_detach
wpj:__ZN6il2cpp2vm19SocketPollingThread7RunLoopEv
mbf:_KeyValuePair_2__ctor_m1640124561_AdjustorThunk
_3f:_MethodDictionary_AllocInternalProperties_m3261295876
ijc:__ZN15DirectorManager20ScheduleGraphDestroyERK14HPlayableGraph
gMb:__ZNSt3__213__stable_sortIRN10vector_mapI17ScriptingClassPtrPKN5Unity4TypeENS_4lessIS2_EENS_9allocatorINS_4pairIS2_S6_EEEEE13value_compareENS_11__wrap_iterIPSB_EEEEvT0_SJ_T_NS_15iterator_traitsISJ_E15difference_typeEPNSM_10value_typeEi
QKg:__ZL77U3CPrivateImplementationDetailsU3E_t1486305139_CustomAttributesCacheGeneratorP21CustomAttributesCache
Vpb:__ZN9ShaderLab25SerializedTextureProperty8TransferI24GenerateTypeTreeTransferEEvRT_
iGf:_Comparison_1_Invoke_m2645957248_gshared
Ofk:_emscripten_glIsShader__wrapper
_Aj:__ZN6il2cpp2gc19AppendOnlyGCHashMapINSt3__24pairIPK14Il2CppAssemblyP11Il2CppClassEEP24Il2CppReflectionAssembly17ReflectionMapHashIS9_ENS2_8equal_toIS9_EEEC2Ev
i5c:_tt_cmap14_char_next
Dxg:__ZL69AssemblyTrademarkAttribute_t3740556705_CustomAttributesCacheGeneratorP21CustomAttributesCache
Zma:__ZN13GfxDeviceGLES28GetNativeVertexBufferPointerEP9GfxBuffer
BGa:__ZN11NamedObject8TransferI18StreamedBinaryReadILb0EEEEvRT_
RAa:__ZNK17GPUSkinPoseBuffer12GetBoneCountEv
E9f:_DelegatePInvokeWrapper_CallbackHandler_t362827733
nIg:__ZL59ResolveEventArgs_t1859808873_CustomAttributesCacheGeneratorP21CustomAttributesCache
tJj:__ZNK15dense_hashtableINSt3__24pairIK10KeyWrapperIP14Il2CppIUnknownEjEES5_N6il2cpp5utils11PointerHashIS3_EEN14dense_hash_mapIS5_jSB_NS5_14EqualsComparerINS0_8equal_toIS4_EEEENS0_9allocatorIS7_EEE9SelectKeyESG_SI_E12test_deletedEj
Udh:_EventInfo_get_MemberType_m3337516651
wHc:__Z18Transfer_BlittableI8JSONReadLb1EyEvRK29SerializationCommandArgumentsR31RuntimeSerializationCommandInfo
Ok:_emscripten_glMatrixMode
jy:__ZN8Animator23VirtualRedirectTransferER18StreamedBinaryReadILb0EE
gxg:__ZL93TypeBuilder_t3308873219_CustomAttributesCacheGenerator_TypeBuilder_GetConstructors_m774120094P21CustomAttributesCache
g2e:_NotSupportedException__ctor_m836173213
q4f:_MethodReturnDictionary__ctor_m756139344
b$:__ZN11UnityEngine15CloudWebService14DataDispatcher16PrepareDataBlockERNS0_16SessionContainerE
xCa:__ZN18GfxFramebufferGLES5ClearE13GfxClearFlagsRK10ColorRGBAffib
Vnf:_List_1_GetIndex_m2513359832_gshared
Urh:__Z52RuntimeInvoker_Single_t2076509932_Double_t4078015681PFvvEPK10MethodInfoPvPS4_
LKb:__ZL26Transfer_SimpleNativeClassI18StreamedBinaryReadILb0EE10RectOffsetLb0EEvRK29SerializationCommandArgumentsR31RuntimeSerializationCommandInfo
j2c:_UNITY_ft_destroy_default_module_classes
qgf:_List_1_CheckMatch_m1772343151_gshared
iXb:__ZL12DepthPassJobPN21GfxDeviceAsyncCommand10ArgScratchEPKNS_3ArgE
uob:__ZNSt3__26vectorIN9ShaderLab20SerializedSubProgram16TextureParameterENS_9allocatorIS3_EEE6assignINS_11__wrap_iterIPS3_EEEENS_9enable_ifIXaasr21__is_forward_iteratorIT_EE5valuesr16is_constructibleIS3_NS_15iterator_traitsISC_E9referenceEEE5valueEvE4typeESC_SC_
TCc:__ZN5Unity9rapidjson6WriterI16TempBufferWriterNS0_4UTF8IcEES4_13JSONAllocatorE11WriteDoubleEd
G$e:_IntPtr_Equals_m1214967011_AdjustorThunk
Olf:_List_1_Add_m3591975577_gshared
Exa:__ZN14GfxDeviceStats16CopyAllDrawStatsERKS_
ndc:__Z13RegisterClassI19LowerResBlitTextureEvv
PZg:__ZL100PointerEventData_t1599784723_CustomAttributesCacheGenerator_U3CpointerPressRaycastU3Ek__BackingFieldP21CustomAttributesCache
Sm:FUNCTION_TABLE_iiiiiiiiiiii
qUi:_GUIUtility_Internal_GetPixelsPerPoint_m1075452981
UTa:__ZN16GraphicsSettingsD0Ev
a8b:__Z29StdTemplateConversionFunctionIshEbPvR14SafeBinaryRead
Bed:__ZN17TileAnimationData8TransferI19StreamedBinaryWriteILb0EEEEvRT_
n:cttz_i8
T1c:_UNITY_FT_GlyphLoader_Add
_Ai:_Display_FireDisplaysUpdated_m2197288612
Age:_DateTimeFormatInfo_get_FullDateTimePattern_m2607507656
IQf:_HttpsClientStream_RaiseServerCertificateValidation_m3356770426
hNi:_RectTransform_INTERNAL_set_anchorMin_m3893342226
Keb:__ZN14SubstanceInput22CopyFromSubstanceInputERKS_
FGe:_Array_swap_TisUIVertex_t1204258818_TisUIVertex_t1204258818_m1163375424_gshared
Ll:_emscripten_glViewport
Rbc:__Z21GenerateTilingAreaJobP22GenerateTilingAreaInfoj
OSj:__ZN6il2cpp6icalls8mscorlib6System15MonoCustomAttrs17IsDefinedInternalEP12Il2CppObjectP20Il2CppReflectionType
FWa:__ZN4Mesh21UnswizzleVertexColorsEb
oAi:_StateChanged_BeginInvoke_m3311323480
Xha:__ZN30dense_hashtable_const_iteratorINSt3__24pairIKN4core12basic_stringIcNS2_20StringStorageDefaultIcEEEEP11AssetBundleEES6_20StringHash32FunctionIS6_EN14dense_hash_mapIS6_S9_SC_NS0_8equal_toIS6_EENS0_9allocatorISA_EEE9SelectKeyESF_SH_EppEv
ZPf:_TlsServerSettings_set_CertificateTypes_m264196087
Lai:_InternalEnumerator_1__ctor_m4150855019_gshared
Rle:_DateTime_ToString_m2276663647_AdjustorThunk
H9c:_cff_parse_font_bbox
lqc:__Z35Application_Get_Custom_PropIsEditorv
bhb:__ZN14PlayerSettings23VirtualRedirectTransferER18StreamedBinaryReadILb0EE
Mfd:__ZN15TilemapRenderer8TransferI19StreamedBinaryWriteILb0EEEEvRT_
Ete:_Array_get_swapper_TisCustomAttributeTypedArgument_t1498197914_m2780757375_gshared
Aaf:_KeyValuePair_2__ctor_m3201181706_AdjustorThunk
D$j:__ZN6il2cpp2os5Event5ResetEv
A0b:__Z26CombineDepthNormalsTextureRK17RenderLoopContextR13dynamic_arrayI16RenderObjectDataLj4EE
w$i:_AesManaged__ctor_m2322442838
ILj:__ZN6il2cpp8metadata15GenericMetadata17InflateParametersEPK13ParameterInfohPK20Il2CppGenericContextb
V_e:_Int64_System_IConvertible_ToUInt32_m850395426_AdjustorThunk
Y8:__ZN18AwakeFromLoadQueue28InvokePersistentManagerAwakeEPNS_4ItemEj17AwakeFromLoadMode
SRa:__ZN6Camera13AwakeFromLoadE17AwakeFromLoadMode
Bxd:_HMACSHA512__ctor_m2390736870
cE:__ZNK17AnimationPlayable27GetNextCompatibleDescendantEi
CGa:__ZN4PPtrI6SpriteE8TransferI18StreamedBinaryReadILb0EEEEvRT_
V9g:_TypeBuilder_GetInterfaces_m1818658502
lSf:_TlsException_get_Alert_m4022765752
ZGf:_BigInteger_op_Equality_m2683055762
EPb:__Z25SetNeedToPerformRenderingb
qgh:_MonoMethod_GetPseudoCustomAttributes_m466965107
Xti:__ZN21InterfaceFuncInvoker0IP19LinkRef_t2090853131E6InvokeEjP11Il2CppClassP12Il2CppObject
oNa:__ZN10GameObjectD2Ev
xXb:__ZN14qsort_internal30FindAndMovePivotToLastPositionIP15RODataDepthPassi17ROSorterDepthPassEEvT_S4_T0_T1_
dOi:_ResourceRequest_t2560315377_marshal_pinvoke
zVh:_Enumerator_System_Collections_IDictionaryEnumerator_get_Value_m3005608231_gshared
q4i:__ZL24UnresolvedVirtualCall_26P12Il2CppObjectS0_iiPK10MethodInfo
MKh:_MaskUtilities_NotifyStencilStateChanged_m1527407683
zsg:__ZL69RuntimeArray_CustomAttributesCacheGenerator_Array_IndexOf_m2447301431P21CustomAttributesCache
n3b:__ZN12CullingGroup10SendEventsEPK17CullingGroupEventj
BOe:_DSAManaged_GenerateKeyPair_m2711647034
i5a:__ZThn32_NK8Renderer8GetLayerEv
NAe:_Array_InternalArray__ICollection_Add_TisResourceCacheItem_t333236149_m1151081240_gshared
oIh:__Z39RuntimeInvoker_RaycastHit2D_t4063908774PFvvEPK10MethodInfoPvPS4_
xCf:_ReadOnlyCollection_1_System_Collections_Generic_ICollectionU3CTU3E_get_IsReadOnly_m2197226755_gshared
eie:_Convert_ToInt32_m2209788057
GKj:__ZN30dense_hashtable_const_iteratorINSt3__24pairIK10KeyWrapperINS1_IPKcS4_EEEiEES6_24NamespaceAndNamePairHashN14dense_hash_mapIS6_iS9_NS6_14EqualsComparerI26NamespaceAndNamePairEqualsEENS0_9allocatorIS8_EEE9SelectKeyESD_SF_E30advance_past_empty_and_deletedEv
o7f:_SoapServices_GetXmlTypeForInteropType_m3821579913
K0i:_EqualityComparer_1_System_Collections_IEqualityComparer_Equals_m3601790950_gshared
Ndk:_emscripten_glTexParameterfv__wrapper
yxb:__Z18Transfer_BlittableI14SafeBinaryReadLb1E9BoundsIntEvRK29SerializationCommandArgumentsR31RuntimeSerializationCommandInfo
U6i:__ZL25UnresolvedVirtualCall_164P12Il2CppObject20UIVertex_t1204258818S1_PK10MethodInfo
Ktj:_il2cpp_method_get_param_count
Fnc:__ZN10systeminfo19ISOToSystemLanguageERN4core12basic_stringIcNS0_20StringStorageDefaultIcEEEE
Tzj:__ZNK15dense_hashtableINSt3__24pairIK10KeyWrapperINS1_IPK12PropertyInfoP11Il2CppClassEEEjEES9_17ReflectionMapHashIS8_EN14dense_hash_mapIS9_jSD_NS9_14EqualsComparerINS0_8equal_toIS8_EEEENS0_9allocatorISB_EEE9SelectKeyESI_SK_E3endEv
CWc:__ZN11Rigidbody2D8TransferI19StreamedBinaryWriteILb0EEEEvRT_
Ayh:__Z34RuntimeInvoker_LogType_t1559732862PFvvEPK10MethodInfoPvPS4_
KKg:__ZL68Uri_t19570940_CustomAttributesCacheGenerator_U3CU3Ef__switchU24map15P21CustomAttributesCache
g6c:_ps_dimension_done
BPd:_LayoutRebuilder_MarkLayoutForRebuild_m640589351
Pcd:__Z46Register_UnityEngine_TextGenerator_Dispose_cppv
hNd:_PointerEventData_get_pressEventCamera_m724559964
vr:__Z32TransferEnumWithNameForceIntSizeI14SafeBinaryReadN9Animation11CullingTypeEEvRT_RT0_PKc17TransferMetaFlags
Ieb:__ZN14SubstanceInputD2Ev
pDd:_String_IndexOfUnchecked_m3356721554
_3a:__ZN16LightmapSettings8TransferI14SafeBinaryReadEEvRT_
sja:__ZN17BufferManagerGLES13ReleaseBufferEP14DataBufferGLES
tHc:__Z18Transfer_BlittableI8JSONReadLb1EjEvRK29SerializationCommandArgumentsR31RuntimeSerializationCommandInfo
p2g:__ZL63ScrollRect_t1199013257_CustomAttributesCacheGenerator_m_InertiaP21CustomAttributesCache
oHi:_PKCS12_Decrypt_m1557069392
OSh:_VertexHelper_AddUIVertexQuad_m280792808
IXf:_WebHeaderCollection_ToString_m1246460752
_ai:_InternalEnumerator_1_System_Collections_IEnumerator_get_Current_m2842514953_AdjustorThunk
jp:stackSave
urd:__ZN5Unity9rapidjson15GenericDocumentINS0_4UTF8IcEE13JSONAllocatorNS0_12CrtAllocatorEE6StringEPKcjb
z6c:_ps_dimension_end
fuc:__Z41Register_UnityEngine_Mesh_Internal_Createv
kwb:__ZN16MemoryFileSystem5TouchER13FileEntryData
Ncb:__ZN14SpriteRenderer23VirtualRedirectTransferER24GenerateTypeTreeTransfer
GLj:__ZNK15dense_hashtableI10KeyWrapperIP18Il2CppGenericClassES3_N6il2cpp8metadata22Il2CppGenericClassHashEN14dense_hash_setIS3_S6_NS3_14EqualsComparerINS5_25Il2CppGenericClassCompareEEENSt3__29allocatorIS3_EEE8IdentityESA_SD_E12test_deletedERK30dense_hashtable_const_iteratorIS3_S3_S6_SF_SA_SD_E
zUc:__ZNSt3__27__sort3IRN18Overlap2DQueryBase29ColliderHitsByDepthComparitorEPP10Collider2DEEjT0_S7_S7_T_
Sij:__ZN6il2cpp2vm5Class14GetNestedTypesEP11Il2CppClassPPv
Rxd:_MACTripleDES_Initialize_m1318099802
MJf:_MD5SHA1_VerifySignature_m507888141
v5d:_Byte_System_IConvertible_ToChar_m4188836679
kZe:_NumberFormatter_InitDecHexDigits_m2036076025
cWh:_Enumerator_get_CurrentKey_m3839846791_AdjustorThunk
P4b:__ZN6Camera9SetAspectEf
eSd:_ColorTween_get_ignoreTimeScale_m641454126_AdjustorThunk
wa:invoke_viiffiii
vzf:_ReadOnlyCollection_1_Contains_m1800950533_gshared
b$g:__ZL79TouchInputModule_t2561058385_CustomAttributesCacheGenerator_m_ForceModuleActiveP21CustomAttributesCache
cfk:_emscripten_glBindVertexArray__wrapper
JBh:__Z52RuntimeInvoker_Vector2_t2243707579_Int32_t2071877448PFvvEPK10MethodInfoPvPS4_
oJf:_MD4__ctor_m2366413460
c1h:_Dictionary_2_InitArrays_m435313205_gshared
PO:__ZN10ObjectPoolIN4FMOD3DSPENS0_4DSPIEE7GetFreeEi
oOa:__ZN9Transform37InitializeTransformHierarchyRecursiveER18TransformHierarchyRii
Dec:__Z34DefaultPrepareDispatchBoundsUpdateR13RendererScene18MemLabelIdentifier
sVd:_Graphic_get_useLegacyMeshGeneration_m1366444625
oCa:__ZN26SinglePassStereoSupportExt23SetupStereoMatrixParamsE21MonoOrStereoscopicEye24BuiltinShaderMatrixParamRK10Matrix4x4f
_0g:__ZL65InputField_t1631627530_CustomAttributesCacheGenerator_m_InputTypeP21CustomAttributesCache
o5i:__ZL24UnresolvedVirtualCall_78P12Il2CppObjectPK10MethodInfo
QMe:_ModulusRing_Pow_m1137250399
Lhi:_InternalEnumerator_1_MoveNext_m2410670600_AdjustorThunk
eZ:__Z46AudioListener_CUSTOM_GetNumExtensionPropertiesP12Il2CppObject
NZf:_X509Chain_Build_m2341271288
KVa:__ZN17MeshRenderingData4InitEP4MeshS1_iP15SharedGfxBufferS3_
CBf:_ReadOnlyCollection_1_System_Collections_ICollection_get_SyncRoot_m2779904122_gshared
E5h:_EqualityComparer_1_System_Collections_IEqualityComparer_Equals_m1682986002_gshared
ace:_Hashtable__cctor_m2952659675
O$f:_X509ChainStatus__ctor_m3628359961_AdjustorThunk
A4g:__ZL77LayoutUtility_t4076838048_CustomAttributesCacheGenerator_U3CU3Ef__amU24cache4P21CustomAttributesCache
IAb:__ZN15SerializeTraitsI13dynamic_arrayIN4math12int3_storageELj4EEE19ResizeSTLStyleArrayERS3_i
GDd:_Evidence_get_HostEvidenceList_m2095478124
Hwc:__Z57Register_UnityEngine_Transform_INTERNAL_set_localPositionv
RMf:_Context_Clear_m4000337070
nna:__ZN13GfxDeviceGLES26SetRandomWriteTargetBufferEi15ComputeBufferID
y2f:_IntervalCollection_Normalize_m538796191
WSb:__ZZ23InitPlayerLoopCallbacksvEN49EarlyUpdateResetFrameStatsAfterPresentRegistrator7ForwardEv
Aee:_Console_SetEncodings_m342145566
xPg:__ZL77Object_t1021602117_CustomAttributesCacheGenerator_Object_get_name_m3369637820P21CustomAttributesCache
jVd:_FontUpdateTracker_UntrackText_m3827316510
Vyj:__ZN6il2cpp2gc19AppendOnlyGCHashMapINSt3__24pairIPK11Il2CppImageP11Il2CppClassEEP22Il2CppReflectionModule17ReflectionMapHashIS9_ENS2_8equal_toIS9_EEE10CopyValuesEPv
ORi:_Vector2_get_sqrMagnitude_m593717298_AdjustorThunk
IIe:_Array_InternalArray__get_Item_TisSingle_t2076509932_m1495809753_gshared
s8i:_Font_get_fontSize_m3125470578
onc:__ZNK11ICallString6ToUTF8Ev
Hui:_CaptureAssertion_get_Alternate_m2729005740
DUj:_GC_number_stack_black_listed
GJj:__ZN24dense_hashtable_iteratorINSt3__24pairIK10KeyWrapperIP14Il2CppIUnknownEjEES5_N6il2cpp5utils11PointerHashIS3_EEN14dense_hash_mapIS5_jSB_NS5_14EqualsComparerINS0_8equal_toIS4_EEEENS0_9allocatorIS7_EEE9SelectKeyESG_SI_E30advance_past_empty_and_deletedEv
yXb:__ZNSt3__211__sift_downIR17ROSorterDepthPassP15RODataDepthPassEEvT0_S5_T_NS_15iterator_traitsIS5_E15difference_typeES5_
J6g:_Default_SelectMethod_m3081239996
V_a:__ZN18UnityPropertySheet11UnityTexEnvC2Ev
eqc:__ZNSt3__214__split_bufferIPN9BlobWrite11TypeContextENS_9allocatorIS3_EEE10push_frontERKS3_
jG:__ZN8Animator17ApplyOnAnimatorIKEiRNS_11AnimatorJobE
qca:__ZN12FileAccessor4ReadEyyPvPy
b_a:__ZN13dynamic_arrayI16ShaderKeywordSetLj4EE6insertEPS0_PKS0_S4_
TLb:__Z29Transfer_Blittable_ArrayFieldI18StreamedBinaryReadILb0EE11QuaternionfEvRT_R9ArrayInfoRK23StaticTransferFieldInfo
$3f:_MethodDictionary_IsOverridenKey_m3922224650
nde:_SyncHashtable_Contains_m3042906549
iKc:__ZN11UnityEngine9Analytics18RenderingInfoEvent13SetFrameStatsERK13dynamic_arrayIjLj4EEjjj
Eof:_List_1_System_Collections_IList_set_Item_m4016273526_gshared
d0f:_X509KeyUsageExtension_CopyFrom_m931530012
p4b:__ZN13RenderTexture9SetHeightEi
Kz:__ZN7mecanim9animation17ClearMotionOutputEPNS0_18AnimationNodeStateE
eXa:__ZN16LevelGameManager8TransferI24GenerateTypeTreeTransferEEvRT_
AKh:_LayoutUtility_U3CGetMinHeightU3Em__4_m1769295917
wTf:_SslStreamBase_Read_m1036897444
AMh:_RectMask2D_PerformClipping_m1232012832
UGj:__ZN6il2cpp6icalls8mscorlib6System2IO6MonoIO17GetFileAttributesEP12Il2CppStringPi
SWh:_Transform_1_Invoke_m4020530914_gshared
P4c:_tt_cmap8_char_index
M9b:__Z14tessMeshDeleteP8TESSmeshP12TESShalfEdge
q8:__Z24scripting_class_get_name17ScriptingClassPtr
_da:__ZN13RuntimeStaticI15GUIEventManagerLb0EE13StaticDestroyEPv
$Qj:__ZN6il2cpp2os6Thread15CurrentThreadIdEv
pzb:__Z29Transfer_Blittable_ArrayFieldI14SafeBinaryReadjEvRT_R9ArrayInfoRK23StaticTransferFieldInfo
HQc:__ZN16CircleCollider2D13PrepareShapesER13dynamic_arrayIP7b2ShapeLj4EERK10Matrix4x4f
je:_emscripten_set_keydown_callback
Lce:_Enumerator_get_Value_m3684748062
dPa:__ZN19StreamedBinaryWriteILb0EE21TransferSTLStyleArrayINSt3__26vectorI17SortingLayerEntryNS2_9allocatorIS4_EEEEEEvRT_17TransferMetaFlags
Mmg:_UInt32_Parse_m3371984903
yca:__ZN12FileAccessorC2Ev
SIi:_X509CertificateCollection_Compare_m1014334435
puf:_Collection_1_ClearItems_m1280157591_gshared
fIh:__Z33RuntimeInvoker_TypeTag_t141209596PFvvEPK10MethodInfoPvPS4_
xsi:_PatternLinkStack_GetCurrent_m2994645935
sSa:__ZN6Camera8TransferI19StreamedBinaryWriteILb0EEEEvRT_
rXc:__ZN23ColliderTilingExtensionC2Ev
nlh:__Z59RuntimeInvoker_RuntimeObject_RuntimeObject_SByte_t454417549PFvvEPK10MethodInfoPvPS4_
vqi:_AsyncResult__ctor_m1183194429
csj:__ZN6il2cpp2vm7Runtime12GetConfigDirEv
wL:__ZN4PPtrI13MonoBehaviourE8TransferI18StreamedBinaryReadILb0EEEEvRT_
b4f:_MethodDictionary_set_Item_m3475146889
REh:__Z71RuntimeInvoker_Int32_t2071877448_CustomAttributeNamedArgument_t94157543PFvvEPK10MethodInfoPvPS4_
uXg:__ZL54Tile_t429716126_CustomAttributesCacheGenerator_m_ColorP21CustomAttributesCache
nBg:__ZL62WellKnownObjectMode_t2630225581_CustomAttributesCacheGeneratorP21CustomAttributesCache
cTh:_Toggle_PlayEffect_m3950629415
Fye:_Array_IndexOf_TisRuntimeObject_m214763038_gshared
_Yi:_UnityEvent_1_GetDelegate_m3917909024_gshared
sGh:__Z79RuntimeInvoker_Void_t1841601450_Int32_t2071877448_ParameterModifier_t1820634920PFvvEPK10MethodInfoPvPS4_
SNb:__Z39WriteQueueForTransferSignatureIntoCacheRK31TransferFunctionScriptingTraitsRK24TransferRequestSignature17ScriptingClassPtrR23CachedSerializationDataRb
Ekb:__ZN13RenderManager18UpdateAllRenderersEv
rL:__ZN18AnimatorController19TransferRuntimeDataI18StreamedBinaryReadILb0EEEEvRT_
BFi:_Mesh_Clear_m239607636
Rod:__ZN22BaseUnityConnectClient30OnEnteringStatePausedOrStoppedEv
gPc:__ZN10ClipperLib7Clipper18SwapPositionsInAELEPNS_5TEdgeES2_
owf:_Collection_1_System_Collections_ICollection_get_SyncRoot_m2157752542_gshared
Czj:__ZN15dense_hashtableINSt3__24pairIK10KeyWrapperINS1_IPK12PropertyInfoP11Il2CppClassEEEjEES9_17ReflectionMapHashIS8_EN14dense_hash_mapIS9_jSD_NS9_14EqualsComparerINS0_8equal_toIS8_EEEENS0_9allocatorISB_EEE9SelectKeyESI_SK_E12resize_deltaEjj
Xz:__ZN7mecanim5human12HumanPoseAddERNS0_9HumanPoseERKS1_S4_
yFg:__ZL64AssemblyLoadEventArgs_t4233815743_CustomAttributesCacheGeneratorP21CustomAttributesCache
svf:_Collection_1_IsFixedSize_m218241296_gshared
UNa:__Z24MergeTransformComponentsR9TransformS0_b
qMg:__ZL98DebugLogHandler_t865810509_CustomAttributesCacheGenerator_DebugLogHandler_Internal_Log_m3333167788P21CustomAttributesCache
I3i:_DelegatePInvokeWrapper_AudioConfigurationChangeHandler_t3743753033
Q3e:_MonoIO_get_PathSeparator_m2635828107
z7f:_TypeInfo_get_TypeName_m1722081275
ITc:__ZN15b2CircleContactD0Ev
Z8e:_MonoType_get_Name_m865859211
Sse:_CultureInfo__cctor_m2290268677
i7h:_ArrayReadOnlyList_1_System_Collections_IEnumerable_GetEnumerator_m3039869667_gshared
aHd:_String_Trim_m3982520224
B6f:_RemotingConfiguration__cctor_m2129988840
Jtf:_Collection_1_Insert_m44548038_gshared
nii:_InternalEnumerator_1_MoveNext_m4175772187_AdjustorThunk
qWg:__ZL87GUIUtility_t3275770671_CustomAttributesCacheGenerator_U3CguiIsExitingU3Ek__BackingFieldP21CustomAttributesCache
QSj:__ZN6il2cpp2vm13ComObjectBase19GetRuntimeClassNameEPP15Il2CppHString__
VKb:__Z35Transfer_Blittable_FixedBufferFieldI18StreamedBinaryReadILb0EEyEvRK29SerializationCommandArgumentsR31RuntimeSerializationCommandInfo
Tj:_emscripten_glVertexAttribPointer
y4j:__ZNSt11logic_errorD0Ev
HVa:__ZNK20IntermediateRenderer12GetSceneMaskEv
Fjb:__ZN14PreloadManager26UpdatePreloadingSingleStepENS_21UpdatePreloadingFlagsEi
lBd:_SHA512Managed_Initialize_m891287980
_Dd:_SecurityException__ctor_m1484114982
aoi:_SinkProviderData_get_Children_m100594762
xJi:_X509Crl_GetHashName_m183504634
i2d:_Array_GetValue_m1507415734
Juc:__Z57Register_UnityEngine_RectTransform_INTERNAL_set_anchorMinv
uVe:_Object_MemberwiseClone_m2655589444
zAf:_ReadOnlyCollection_1_System_Collections_IList_get_Item_m375043207_gshared
Fta:__ZN6prcoreL25inner_stretch_i8_bilinearEPKNS_9InnerInfoE
Xlb:__ZL30RegisterFilteredObjectCallbackPP12Il2CppObjectiPv
t1e:_DirectoryInfo_ToString_m4208086799
ygh:_MonoMethod_get_IsGenericMethod_m4276550811
pXh:_Transform_1_BeginInvoke_m3826027984_gshared
x$:__ZN11UnityEngine15CloudWebService16SessionContainer24GetSessionHeaderJsonDataERKN4core12basic_stringIcNS2_20StringStorageDefaultIcEEEERNS2_13StringBuilderE
ghe:_Decimal_op_Implicit_m2149927308
Nda:__ZN13RuntimeStaticI21AssetReferenceStorageLb0EE13StaticDestroyEPv
zmg:_UInt16_System_IConvertible_ToUInt32_m1864968312
COj:__ZN6il2cpp6icalls8mscorlib6System9AppDomain22InternalGetProcessGuidEP12Il2CppString
QJ:__ZNK25RuntimeAnimatorController30GetAnimationClipOverrideVectorEv
ZOe:_KeyPairPersistence_get_UseMachineKeyStore_m560802076
Nqf:_Collection_1_CopyTo_m1840908033_gshared
_Th:_Enumerator_System_Collections_IDictionaryEnumerator_get_Entry_m345330700_AdjustorThunk
ZJa:__ZNK17FileSystemHandler10IsReadOnlyERK13FileEntryData
Oqj:__ZNSt3__214__split_bufferIP9FieldInfoRNS_9allocatorIS2_EEEC2EjjS5_
nJd:_AbstractEventData__ctor_m3586111519
LDb:__Z18Transfer_BlittableI24GenerateTypeTreeTransferLb1EjEvRK29SerializationCommandArgumentsR31RuntimeSerializationCommandInfo
PQg:__ZL118AttributeHelperEngine_t958797062_CustomAttributesCacheGenerator_AttributeHelperEngine_GetRequiredComponents_m586474250P21CustomAttributesCache
jJf:_MD2Managed_Padding_m410163267
pzj:__ZNK15dense_hashtableINSt3__24pairIK10KeyWrapperINS1_IPK11Il2CppImageP11Il2CppClassEEEjEES9_17ReflectionMapHashIS8_EN14dense_hash_mapIS9_jSD_NS9_14EqualsComparerINS0_8equal_toIS8_EEEENS0_9allocatorISB_EEE9SelectKeyESI_SK_E10test_emptyERK30dense_hashtable_const_iteratorISB_S9_SD_SM_SI_SK_E
xTh:_Toggle_UnityEngine_UI_ICanvasElement_get_transform_m4177274032
gec:__ZNK28RectTransformPropertyBinding9BindValueER6ObjectRKN11UnityEngine9Animation14GenericBindingERNS3_10BoundCurveE
AVa:__ZN11ColorRGBA328TransferI14SafeBinaryReadEEvRT_
jof:_List_1_set_Capacity_m1734764639_gshared
KVh:_Enumerator_Dispose_m401572848_AdjustorThunk
Of:_emscripten_glClearDepth
Shc:__ZNK8GUILayer22GetTypeVirtualInternalEv
z0a:__ZN8Playable12SetPlayStateE9PlayState
w6a:__ZN14SafeBinaryRead21TransferSTLStyleArrayINSt3__26vectorIN15QualitySettings14QualitySettingENS1_9allocatorIS4_EEEEEEvRT_17TransferMetaFlags
IGe:_Array_swap_TisVector2_t2243707579_m3359959735_gshared
I1e:_File_OpenText_m4058508963
Cgb:__ZNSt3__26vectorINS_4pairIPKN5Unity4TypeE7Hash128EENS_9allocatorIS7_EEE8__appendEj
A7f:_WellKnownClientTypeEntry__ctor_m670594074
l0g:__ZL61FontData_t2614388407_CustomAttributesCacheGenerator_m_MinSizeP21CustomAttributesCache
VDj:__ZN15dense_hashtableINSt3__24pairIK10KeyWrapperIP11Il2CppClassES4_EES5_N6il2cpp8metadata16SZArrayClassHashEN14dense_hash_mapIS5_S4_SA_NS5_14EqualsComparerINS9_19SZArrayClassCompareEEENS0_9allocatorIS7_EEE9SelectKeyESE_SG_EC2ERKSJ_j
yke:_DateTime_System_IConvertible_ToSingle_m3927769066_AdjustorThunk
V8c:_cff_font_load
QQf:_RecordProtocol_SendRecord_m2977889250
toc:__Z13IsPathCreatedRKN4core12basic_stringIcNS_20StringStorageDefaultIcEEEE
gN:__ZN13ProduceHelperI13AnimationClipLb0EE7ProduceE18MemLabelIdentifier18ObjectCreationMode
kta:__ZL22stbir__encode_scanlineP11stbir__infoiPvPfiii
Pph:__Z136RuntimeInvoker_Void_t1841601450_Byte_t3683104436_RuntimeObject_Int64U26_t763825331_ObjectU26_t597476745_SerializationInfoU26_t4051840202PFvvEPK10MethodInfoPvPS4_
YZc:__ZN20QuadTreeNodeRenderer13StaticDestroyEPv
t0:__ZN11UnityEngine15CloudWebService20WebRequestRestClient5AbortEv
OWi:_InvokableCall_1_Invoke_m2228071798_gshared
rec:__ZN9Transform12CleanupClassEv
ukh:__Z50RuntimeInvoker_Void_t1841601450_Double_t4078015681PFvvEPK10MethodInfoPvPS4_
hVi:_GUILayoutGroup_CalcWidth_m877887811
PMf:_ClientContext_set_ClientHelloProtocol_m2246603449
FPi:_Texture_Internal_GetHeight_m3235768354
Kqa:__ZNSt3__26vectorIN9GfxDevice14SubPassActionsENS_9allocatorIS2_EEE26__swap_out_circular_bufferERNS_14__split_bufferIS2_RS4_EE
E$d:_U3CMouseDragOutsideRectU3Ec__Iterator1_MoveNext_m2845491958
jpb:__ZNSt3__26vectorIN9ShaderLab19SerializedSubShaderENS_9allocatorIS2_EEE26__swap_out_circular_bufferERNS_14__split_bufferIS2_RS4_EE
QF:__ZN11UnityEngine9Animation33SetGenericTransformPropertyValuesERKNS0_30AnimatorGenericBindingConstantERKN7mecanim10ValueArrayEP9Transformy
bw:__ZN11UnityEngine9Animation28AnimationClipBindingConstant8TransferI24GenerateTypeTreeTransferEEvRT_
Pgj:_AnalyticsTracker_TriggerEvent_m1494303835
sOd:_StandaloneInputModule_IsModuleSupported_m623598506
ZEj:__ZN6il2cpp2vmL24thread_cleanup_on_cancelEPv
Wki:_ResourceReader_Close_m3256966401
ubg:_SByte_ToString_m4105923225_AdjustorThunk
G9f:_StreamingContext_t1417235061_marshal_pinvoke_cleanup
Wse:_CultureInfo_ConstructCurrentUICulture_m3363349599
yog:_UInt64_CompareTo_m2422461804_AdjustorThunk
A3g:__ZL75CanvasScaler_t2574720772_CustomAttributesCacheGenerator_m_FallbackScreenDPIP21CustomAttributesCache
w8e:_MonoType_GetEvent_m4160342003
kMh:_RawImage_set_texture_m2400157626
W1i:_PrimeHelper_ToPrime_m1606935350_gshared
XVa:__Z30ProcessDynamicBatchGeometryJobP25DynamicVBOGeometryJobDataj
dEh:__Z59RuntimeInvoker_Boolean_t3825574718_RaycastHit2D_t4063908774PFvvEPK10MethodInfoPvPS4_
B5h:_EqualityComparer_1__ctor_m81618677_gshared
UXb:__ZNSt3__27__sort4IRNS_6__lessI11CulledLightS2_EEPS2_EEjT0_S6_S6_S6_T_
cvj:__ZN6il2cpp2vm14TypeNameParser26ParseArrayModifierOptionalEv
kKe:_MSCompatUnicodeTable_Level3_m260824928
f0d:_LayoutElement_OnEnable_m3478706401
H9:__Z26scripting_object_get_class18ScriptingObjectPtr
D9i:_Func_3__ctor_m3917225629_gshared
jjb:__ZNSt3__26vectorIN4core12basic_stringIcNS1_20StringStorageDefaultIcEEEE13stl_allocatorIS5_L18MemLabelIdentifier13ELi16EEE7reserveEj
qcj:_RectTransformUtility_GetTransposed_m1233793627
Rdc:__ZNK28MonoBehaviourPropertyBinding15GenerateBindingERKN4core12basic_stringIcNS0_20StringStorageDefaultIcEEEEbRN11UnityEngine9Animation14GenericBindingE
cYe:_Int32_FindExponent_m3187554672
jPe:_KeyPairPersistence_Load_m1355205585
QOh:_ScrollRect_get_horizontalScrollbarVisibility_m4152068235
m_e:_Int32_ToString_m2960866144_AdjustorThunk
$eb:__ZN14SubstanceValue8TransferI18StreamedBinaryReadILb0EEEEvRT_
VFd:_Single_CompareTo_m2081476257_AdjustorThunk
f3i:_AudioExtensionManager_AddSpatializerExtension_m1881494443
_Pj:__ZN6il2cpp6icalls8mscorlib6System11Environment15internalGetHomeEv
s7j:dynCall_iiiiiiffiiiiiiiiiffffiiii
tEa:__ZNK5Unity9Component7GetNameEv
rrj:__ZNSt3__214__split_bufferIN6il2cpp6icalls8mscorlib6System12PropertyPairERNS_9allocatorIS5_EEEC2EjjS8_
OGg:__ZL79Convert_t2607082565_CustomAttributesCacheGenerator_Convert_ToUInt16_m2130758075P21CustomAttributesCache
n9f:__ZN21InterfaceFuncInvoker4IP12Il2CppObjectS1_P28SerializationInfo_t22898743028StreamingContext_t1417235061S1_E6InvokeEjP11Il2CppClassS1_S1_S3_S4_S1_
KHg:__ZL58IFormatProvider_t2849799027_CustomAttributesCacheGeneratorP21CustomAttributesCache
aGh:__Z75RuntimeInvoker_Void_t1841601450_Int32_t2071877448_KeyValuePair_2_t888819835PFvvEPK10MethodInfoPvPS4_
O_i:_ObjectPool_1_Get_m3724675538_gshared
_6a:__ZN13ScreenManagerD0Ev
tMc:__ZNK11b2RopeJoint16GetReactionForceEf
cH:__ZN7mecanim8skeleton26SkeletonPoseComputeGlobalQEPKNS0_8SkeletonEPKNS0_13SkeletonPoseTIN4math4trsXEEEPS7_ii
Qrd:__ZN18UnityConnectClient19RegisterVRCallbacksEv
jjf:_List_1_GetEnumerator_m2672519407_gshared
x9b:__ZN10BootConfig4Data3SetEPKcjS2_j
EG:__ZN9BlobWrite8TransferI22OffsetPtrArrayTransferIiEEEvRT_PKc17TransferMetaFlags
cqh:__Z82RuntimeInvoker_Boolean_t3825574718_SByte_t454417549_RuntimeObject_SByte_t454417549PFvvEPK10MethodInfoPvPS4_
WJe:_ContractionComparer_Compare_m314873025
ZBb:__Z18Transfer_BlittableI17RemapPPtrTransferLb1EjEvRK29SerializationCommandArgumentsR31RuntimeSerializationCommandInfo
E_e:_Int64_System_IConvertible_ToDouble_m638786774
sT:__ZN4FMOD6System7releaseEv
Pce:_HashKeys_get_IsSynchronized_m4207641174
JFb:__Z18Transfer_BlittableI19StreamedBinaryWriteILb0EELb1E8BitFieldEvRK29SerializationCommandArgumentsR31RuntimeSerializationCommandInfo
Vba:__Z18PathToAbsolutePathRKN4core12basic_stringIcNS_20StringStorageDefaultIcEEEE
auh:__Z44RuntimeInvoker_HashAlgorithmType_t1654661965PFvvEPK10MethodInfoPvPS4_
Fbf:_Enumerator_MoveNext_m3078170540_AdjustorThunk
Ct:__ZN13AnimationClip23VirtualRedirectTransferER17RemapPPtrTransfer
PBd:_SymmetricAlgorithm_get_Padding_m718051685
vnd:__ZN21UnityAnalyticsManager15ThreadedCleanupEv
UXj:__ZN6il2cpp6icalls8mscorlib6System10Reflection16MonoPropertyInfo16GetTypeModifiersEPvb
TVc:__ZThn160_N17PolygonCollider2D5ResetEv
o$i:_Action_Invoke_m3801112262
Gkh:__Z79RuntimeInvoker_Decimal_t724701077_RuntimeObject_Int32_t2071877448_RuntimeObjectPFvvEPK10MethodInfoPvPS4_
Osa:__ZL13BlitImageImplR14ImageReferenceiiRKS_NS_10ColorSpaceENS_8BlitModeEb
kjc:__ZN15DirectorManager17AcquireOutputNodeEv
qOb:__ZN10MonoScript23VirtualRedirectTransferER17RemapPPtrTransfer
LFg:__ZL76Convert_t2607082565_CustomAttributesCacheGenerator_Convert_ToChar_m541258017P21CustomAttributesCache
Wjh:__Z64RuntimeInvoker_RuntimeObject_Int16_t4041245914_Int16_t4041245914PFvvEPK10MethodInfoPvPS4_
nBa:__ZN16GeometryJobTasks20ScheduleGeometryJobsER9GfxDevicePFvP15GeometryJobDataEPK22GeometryJobInstructionjb
yR:__ZN12AudioManager29ShutdownReinitializeAndReloadEv
_Gi:_NetscapeCertTypeExtension_Decode_m2210025005
qCh:__Z56RuntimeInvoker_Void_t1841601450_KeyValuePair_2_t38854645PFvvEPK10MethodInfoPvPS4_
J7f:_BaseFixupRecord_DoFixup_m1821597450
Thj:__ZN15dense_hashtableINSt3__24pairIK10KeyWrapperIPK22Il2CppGenericParameterEP11Il2CppClassEES6_N6il2cpp5utils11PointerHashIS4_EEN14dense_hash_mapIS6_S9_SE_NS6_14EqualsComparerINS0_8equal_toIS5_EEEENS0_9allocatorISA_EEE9SelectKeyESJ_SL_E6insertERKSA_
M1e:_FileLoadException__ctor_m1356374414
yXi:_InvokableCall_4_Invoke_m1140294390_gshared
ULf:_TlsStream_Reset_m1504601050
pef:__ZN23InterfaceActionInvoker2IP23Int32U5BU5D_t3030399641iE6InvokeEjP11Il2CppClassP12Il2CppObjectS1_i
fqa:__ZN14DataBufferGLES16RecreateWithDataEjPKv
QEa:__Z29GetGlobalAllowNameConversionsv
Y5b:__ZN8Material8SetColorEN9ShaderLab16FastPropertyNameERK10ColorRGBAf
Neh:_Module_GetCustomAttributes_m3581287913
ntg:__ZL67Type_t_CustomAttributesCacheGenerator_Type_IsSubclassOf_m2450899481P21CustomAttributesCache
hV:__ZN11AudioSource23VirtualRedirectTransferER18StreamedBinaryReadILb0EE
Qda:__ZN21AssetReferenceStorageC2Ev
oGb:__ZN10RectOffset8TransferI19StreamedBinaryWriteILb0EEEEvRT_
u8:__ZL41AssemblyNameMatchesWithOrWithoutExtensionPKcS0_
ZDh:__Z53RuntimeInvoker_Boolean_t3825574718_Color32_t874517518PFvvEPK10MethodInfoPvPS4_
aLc:__ZN23ColliderTilingExtension5ResetEv
jya:__ZN14GfxContextGLES43AddRenderSurfaceToDeferredFBOInvalidateListEPK17RenderSurfaceGLES
xGj:__ZN6il2cpp6icalls8mscorlib6System9Threading6Thread15Thread_internalEP12Il2CppThreadP14Il2CppDelegate
TGa:__ZN11NamedObject23VirtualRedirectTransferER14SafeBinaryRead
osg:__ZL74RuntimeArray_CustomAttributesCacheGenerator_Array_BinarySearch_m3522310993P21CustomAttributesCache
l3i:_AudioListener_GetNumExtensionProperties_m2652400521
h1c:__ZNSt3__26vectorIN20TextRenderingPrivate8FontImpl13CharacterInfoE13stl_allocatorIS3_L18MemLabelIdentifier1ELi16EEE6insertENS_11__wrap_iterIPKS3_EERS9_
NHa:__ZN23PreloadManagerOperation6IsDoneEv
lsj:__ZN6il2cpp2vm7Runtime15InvokeWithThrowEPK10MethodInfoPvPS5_
QSe:_X509Certificate_get_RawData_m3000055075
xij:__ZNSt3__26vectorIPK10Il2CppTypeNS_9allocatorIS3_EEE21__push_back_slow_pathIRKS3_EEvOT_
bkc:__Z33GetHasChangedDeprecatedSystemMaskv
ERc:__ZN10Effector2D10EndContactEP9b2Contact
qSj:__ZN6il2cpp5utils11StringUtils11Utf16ToUtf8ERKNSt3__212basic_stringIDsNS2_11char_traitsIDsEENS2_9allocatorIDsEEEE
SHh:__Z30RuntimeInvoker_Link_t865133271PFvvEPK10MethodInfoPvPS4_
jVh:_Enumerator_VerifyState_m1165543189_AdjustorThunk
kle:_DateTime_AddSeconds_m722082155_AdjustorThunk
cae:_SynchronizedArrayListWrapper_CopyTo_m956887031
rji:_Comparer_1__ctor_m1202126643_gshared
clb:__ZN21LightProbeProxyVolume18HasHardwareSupportEv
Obj:_CanvasRenderer_set_materialCount_m1703953120
MTc:__ZNK20b2SeparationFunction17FindMinSeparationEPiS0_f
Ata:__ZN6prcoreL31inner_stretch_argb8888_bilinearEPKNS_9InnerInfoE
LHb:__Z18Transfer_BlittableI18StreamedBinaryReadILb1EELb1E8BitFieldEvRK29SerializationCommandArgumentsR31RuntimeSerializationCommandInfo
ILg:__ZL84Behaviour_t955675639_CustomAttributesCacheGenerator_Behaviour_set_enabled_m602406666P21CustomAttributesCache
c3c:_UNITY_FT_Outline_Decompose
$Of:_TlsClientCertificate_get_ClientCertificate_m3062440489
wDd:_StrongNamePublicKeyBlob_ToString_m3721281223
PWj:_GC_init_size_map
qai:_InternalEnumerator_1_get_Current_m198513457_AdjustorThunk
Gei:_InternalEnumerator_1__ctor_m1240086835_AdjustorThunk
_Sa:__Z20scripting_object_new17ScriptingClassPtr
$Ve:_TextInfo__ctor_m2782608694
Gpf:_Queue_1_System_Collections_ICollection_CopyTo_m772787461_gshared
Cxj:__ZN24dense_hashtable_iteratorINSt3__24pairIK10KeyWrapperINS1_IPK9FieldInfoP11Il2CppClassEEEjEES9_17ReflectionMapHashIS8_EN14dense_hash_mapIS9_jSD_NS9_14EqualsComparerINS0_8equal_toIS8_EEEENS0_9allocatorISB_EEE9SelectKeyESI_SK_E30advance_past_empty_and_deletedEv
iWe:_TextInfo_ToUpper_m299550697
qFf:_ReadOnlyCollection_1_System_Collections_IList_Contains_m4073811941_gshared
UHa:__ZN23PreloadManagerOperation21MustCompleteNextFrameEv
yVd:_Graphic_OnRectTransformDimensionsChange_m1610753363
dje:_Convert_ToUInt16_m3265369225
P:Math_exp
b8e:_MonoEnumInfo_get_Cache_m3551569711
Lo:FUNCTION_TABLE_iiifi
qOj:__ZN6il2cpp2os5posix13PosixAutoLockD2Ev
Rue:_Array_InternalArray__ICollection_Contains_TisVector3_t2243707580_m3625701788_gshared
oXc:__ZN13BoxCollider2D15InitializeClassEv
Rhh:_TypeFilter_BeginInvoke_m2395188690
AVc:__GLOBAL__sub_I_modules_physics2d_public_0_cpp
Osg:__ZL66RuntimeArray_CustomAttributesCacheGenerator_Array_Sort_m1999601238P21CustomAttributesCache
upf:_Enumerator__ctor_m1424070651_AdjustorThunk
hIb:__Z30TransferField_LinearCollectionI18StreamedBinaryReadILb1EEEvRK29SerializationCommandArgumentsR31RuntimeSerializationCommandInfo
nNb:__ZN13MonoBehaviour9SetScriptERK4PPtrI10MonoScriptE18ScriptingObjectPtr
Hue:_Array_InternalArray__ICollection_Contains_TisPlayableBinding_t2498078091_m4267109606_gshared
nXc:__ZN13ProduceHelperI13BoxCollider2DLb0EE7ProduceE18MemLabelIdentifier18ObjectCreationMode
K2c:_UNITY_FT_Create_Class_sfnt_module_class
PSh:_Text_CalculateLayoutInputHorizontal_m1578553982
lJj:__ZNSt3__218uninitialized_copyIPNS_4pairIK10KeyWrapperIP14Il2CppIUnknownEjEES8_EET0_T_SA_S9_
Tne:_Decimal_IsZero_m3557909184_AdjustorThunk
J7d:_Char_ToString_m1401375624
Zxd:_MD5CryptoServiceProvider__cctor_m3309191799
zMa:__ZNK10FileSystem16LastErrorMessageEv
IDi:_Logger_set_filterLogType_m3982626604
W1f:_InterpreterFactory_get_NamesMapping_m3186583301
nyh:__Z74RuntimeInvoker_Vector2_t2243707579_Vector2_t2243707579_Vector2_t2243707579PFvvEPK10MethodInfoPvPS4_
fdf:_Enumerator_System_Collections_IEnumerator_Reset_m3052395060_gshared
sHf:_Kernel_DwordDivMod_m3728402123
EMb:__ZN13MonoBehaviour13AwakeFromLoadE17AwakeFromLoadMode
SBb:__ZL26Transfer_SimpleNativeClassI17RemapPPtrTransfer8GradientLb1EEvRK29SerializationCommandArgumentsR31RuntimeSerializationCommandInfo
pkc:__ZN12CachedWriter9InitWriteER15CacheWriterBase
ejc:__Z21UnsignedInt64ToStringy
rgg:_UTF7Decoder__ctor_m549434986
_gi:_InternalEnumerator_1_get_Current_m1025321669_AdjustorThunk
cGi:_Object_t1021602117_marshal_pinvoke
Uwc:__Z66Register_UnityEngine_Transform_INTERNAL_CALL_InverseTransformPointv
lga:__ZZN15DirectorManager15InitializeClassEvEN41FixedUpdateDirectorFixedUpdateRegistrator7ForwardEv
Obi:_InternalEnumerator_1_MoveNext_m2720582493_gshared
HJi:_X509CrlEntry_get_RevocationDate_m1257876856
GJi:_X509Crl_VerifySignature_m1390212587
Q0f:_Group__ctor_m4103922028
$pj:__ZNSt3__214__split_bufferI6pollfdRNS_9allocatorIS1_EEEC2EjjS4_
Nek:_glLinkProgram__wrapper
Otb:__ZN18ScriptingArguments8AddInt64Ex
iua:__ZN6prcoreL12RemapGenericI17TexFormatARGB888815TexFormatBGR888EEvPKNS_9InnerInfoE
tub:__ZN12HandlerChain4LockER13FileEntryData12FileLockMode
dyd:_MD5CryptoServiceProvider_ProcessFinalBlock_m1052610785
sae:_BitArray_Set_m2878881714
D7i:__ZL25UnresolvedVirtualCall_201P12Il2CppObjectPK10MethodInfo
Tsd:__ZN28UnityConnectScriptingClasses23CallSessionStateChangedEixxbP21ScriptingExceptionPtr
MWe:_Guid_CompareTo_m2203922782_AdjustorThunk
fQh:_Selectable_get_colors_m3501193396
UJj:__ZN6il2cpp6icalls8mscorlib6System13Globalization11CultureInfo35construct_internal_locale_from_nameEP17Il2CppCultureInfoP12Il2CppString
_Db:__ZL22Transfer_ManagedObjectI24GenerateTypeTreeTransferLb1EEvRK29SerializationCommandArgumentsR31RuntimeSerializationCommandInfo
OPg:__ZL72SceneManager_t90660965_CustomAttributesCacheGenerator_activeSceneChangedP21CustomAttributesCache
Nyg:__ZL55COMException_t1790481504_CustomAttributesCacheGeneratorP21CustomAttributesCache
GNe:_ASN1_get_Count_m404940548
Mpi:_ContextAttribute_Equals_m53324298
ak:_emscripten_set_main_loop_timing
Syi:_Camera_ScreenToViewportPoint_m3458250415
Ipg:_WeakReference_AllocateHandle_m1783929473
aqa:__ZN14DataBufferGLES12RecordRenderEv
GFe:_Array_Sort_TisRuntimeObject_m3674422195_gshared
D5b:__ZN14ImageReference10FlipImageYEv
mSa:__Z32TransferEnumWithNameForceIntSizeI14SafeBinaryRead13TargetEyeMaskEvRT_RT0_PKc17TransferMetaFlags
yAc:__Z14GetDefaultSkini
Zse:_CultureInfo_get_Name_m3316229893
ale:_DateTime_get_Ticks_m310281298_AdjustorThunk
MO:__ZN4FMOD3DSP9setBypassEb
Pxf:_Collection_1_System_Collections_IList_get_Item_m287847793_gshared
$8b:__Z19NormalizeWheelInputf
C0f:_CaptureCollection_CopyTo_m1982767892
b8b:__Z29StdTemplateConversionFunctionIsaEbPvR14SafeBinaryRead
Zue:_Array_InternalArray__ICollection_Remove_TisLink_t865133271_m1984184141_gshared
uJc:__Z29Transfer_Blittable_ArrayFieldI8JSONReadhEvRT_R9ArrayInfoRK23StaticTransferFieldInfo
O0d:_LayoutRebuilder_IsDestroyed_m3442208294
MUh:_Enumerator_VerifyState_m1547102902_AdjustorThunk
l$j:__ZN6il2cpp2os20ThreadLocalValueImpl8SetValueEPv
BTa:__ZN22RenderingCommandBuffer20CleanupCommandBufferEv
pqh:__Z165RuntimeInvoker_Void_t1841601450_UInt32U26_t2197289955_Int32_t2071877448_UInt32U26_t2197289955_Int32_t2071877448_Int32_t2071877448_Int32_t2071877448_Int32_t2071877448PFvvEPK10MethodInfoPvPS4_
NGh:__Z99RuntimeInvoker_Void_t1841601450_CustomAttributeTypedArgumentU5BU5DU26_t4216645529_Int32_t2071877448PFvvEPK10MethodInfoPvPS4_
jEc:__Z18Transfer_BlittableI9JSONWriteLb1EtEvRK29SerializationCommandArgumentsR31RuntimeSerializationCommandInfo
N1e:_FileLoadException__ctor_m918124939
XPg:__ZL106SceneManager_t90660965_CustomAttributesCacheGenerator_SceneManager_Internal_ActiveSceneChanged_m1940652884P21CustomAttributesCache
tk:___syscall85
Nia:__ZN15dense_hashtableINSt3__24pairIKN4core12basic_stringIcNS2_20StringStorageDefaultIcEEEE13dynamic_arrayI4PPtrI6SpriteELj4EEEES6_20StringHash32FunctionIS6_EN14dense_hash_mapIS6_SC_SF_NS0_8equal_toIS6_EE13stl_allocatorISD_L18MemLabelIdentifier81ELi16EEE9SelectKeyESI_SL_E5clearEv
DVb:__ZNSt3__26__sortIRPFbP10GUIElementS2_EPS2_EEvT0_S7_T_
$Hf:_SequentialSearchPrimeGeneratorBase_GenerateSearchBase_m2930465198
Yhc:__ZN16GraphicsSettings12CleanupClassEv
aRj:__ZN6il2cpp2os6Thread19DetachCurrentThreadEv
mij:__ZN6il2cpp2vmL21SetupInterfacesLockedEP11Il2CppClassRKNS_2os12FastAutoLockE
Ewb:__ZN11MonoManager23VirtualRedirectTransferER24GenerateTypeTreeTransfer
Snh:__Z102RuntimeInvoker_Int32_t2071877448_RuntimeObject_Int32_t2071877448_Int32_t2071877448_Int32U26_t455636984PFvvEPK10MethodInfoPvPS4_
NE:__ZN23AnimationPlayableOutput17SetSourcePlayableEP8Playable
q0f:_Capture__ctor_m885749277
FYd:_SubmitEvent__ctor_m222860306
t$:__ZN11UnityEngine15CloudWebService14DataDispatcher15SetupWebRequestEv
V5e:_TextWriter__cctor_m4047845042
lRf:_ReceiveRecordAsyncResult_get_Record_m1336421357
Ypd:__ZN11UnityEngine15PlatformWrapper13GetShaderCapsEv
nGi:_Object_ToString_m2938729670
k1b:__ZNSt3__211__sift_downIR26RenderDeferredObjectSorterP16RenderObjectDataEEvT0_S5_T_NS_15iterator_traitsIS5_E15difference_typeES5_
IFg:__ZL76Convert_t2607082565_CustomAttributesCacheGenerator_Convert_ToByte_m509311047P21CustomAttributesCache
t$h:_Dictionary_2_System_Collections_Generic_IEnumerableU3CSystem_Collections_Generic_KeyValuePairU3CTKeyU2CTValueU3EU3E_GetEnumerator_m1742521661_gshared
lyh:__Z87RuntimeInvoker_Void_t1841601450_RuntimeObject_StringU26_t638738783_StringU26_t638738783PFvvEPK10MethodInfoPvPS4_
ZYd:_InputField_CaretBlink_m3960486606
dk:_emscripten_glGetProgramiv
fQi:_TouchScreenKeyboard_set_hideInput_m962370792
JPe:_SmallXmlParser_ReadCharacters_m1966365555
WSf:_InternalAsyncResult_get_CompletedWithError_m3993955322
Gic:__ZN21FixedBehaviourManager6UpdateEv
coc:__ZN9Transform9SetParentEPS_NS_15SetParentOptionE
LWd:_GridLayoutGroup_set_startCorner_m1660251450
nRa:__ZN19ShaderPropertySheet8SetFloatEN9ShaderLab16FastPropertyNameEfNS_8SetFlagsE
$0g:__ZL68InputField_t1631627530_CustomAttributesCacheGenerator_m_AsteriskCharP21CustomAttributesCache
Tjb:__ZN19RuntimeSceneManager24BeginIntegrateMainThreadEP10UnityScene
EPj:__ZNSt3__2plIcNS_11char_traitsIcEENS_9allocatorIcEEEENS_12basic_stringIT_T0_T1_EERKS9_S6_
M6e:_LocalDataStoreSlot__cctor_m1192669356
Oob:__ZN9ShaderLab20SerializedSubProgramaSERKS0_
j5j:_roundf
tId:_String_CreateString_m2556700934
bPa:__ZN18StreamedBinaryReadILb0EE21TransferSTLStyleArrayINSt3__26vectorI17SortingLayerEntryNS2_9allocatorIS4_EEEEEEvRT_17TransferMetaFlags
lQh:_Selectable_get_targetGraphic_m137842753
ry:__ZN8Animator15SetPrepareStageEv
ARh:_Slider_get_axis_m162140813
zfh:_MonoEventInfo_t2190036573_marshal_pinvoke
nij:__ZN6il2cpp2vmL24SetupTypeHierarchyLockedEP11Il2CppClassRKNS_2os12FastAutoLockE
h9b:__ZL11TextHandleriPK23EmscriptenKeyboardEventPv
D_b:__Z20CalculateLightMatrixRK15SharedLightDataP10Matrix4x4f
YPh:_ScrollRect_SetLayoutHorizontal_m3486408020
H0c:_destroy_face
E1i:_GenericEqualityComparer_1_GetHashCode_m116190842_gshared
$Di:_Material_SetIntImpl_m1039479734
tUh:_Enumerator_VerifyState_m1547102902_gshared
uwg:__ZL55StreamWriter_t3858580635_CustomAttributesCacheGeneratorP21CustomAttributesCache
rZc:__ZN5physx19PxAllocatorCallbackD2Ev
jYj:__ZN6il2cpp6icalls8mscorlib6System8Security12Cryptography24RNGCryptoServiceProvider13RngInitializeEP11Il2CppArray
Fmf:_List_1_System_Collections_ICollection_get_IsSynchronized_m227393674_gshared
Zsh:__Z99RuntimeInvoker_Void_t1841601450_Int32_t2071877448_Int16_t4041245914_Int16_t4041245914_RuntimeObjectPFvvEPK10MethodInfoPvPS4_
AWf:_IPAddress__cctor_m3624830012
qV:__ZN20SoundChannelInstance7setMuteEb
MXa:__ZN4PPtrI5LightE8TransferI19StreamedBinaryWriteILb0EEEEvRT_
kYf:_AsnEncodedData_EnhancedKeyUsageExtension_m1452131166
KIb:__Z19TransferField_ArrayI18StreamedBinaryReadILb1EE27Converter_SimpleNativeClassI17AnimationCurveTplIfEEEvRK23StaticTransferFieldInfoR31RuntimeSerializationCommandInfoRT0_
ROi:_SendMouseEvents__cctor_m1448404407
Ced:__ZN4Tile8TransferI19StreamedBinaryWriteILb0EEEEvRT_
WXc:__ZN7b2World18SetContactListenerEP17b2ContactListener
$Tc:__ZN14PhysicsQuery2D11LinecastAllERK8Vector2fS2_RKN10Collider2D13ContactFilterEPKS3_bP13dynamic_arrayI12RaycastHit2DLj4EE
Qqa:__ZN18GfxFramebufferGLES22MakeCurrentFramebufferENS_7BuiltinE
$Xj:__ZN6il2cpp2vm12MarshalAlloc4FreeEPv
w1f:_Interpreter_Close_m1500459069
xk:_JS_SystemInfo_GetWidth
UMa:__ZN12CachedReader4ReadEPvj
C7c:_cf2_blues_init
uai:_InternalEnumerator_1_System_Collections_IEnumerator_get_Current_m3600601141_gshared
BAd:_SHA1Internal_HashFinal_m3188468925
_eb:__ZN14SubstanceInput8TransferI18StreamedBinaryReadILb0EEEEvRT_
UZb:__Z24CalculateLightShadowFadeRK6CamerafffR8Vector4f
A8:__ZN19RuntimeSceneManagerD2Ev
KIg:__ZL55HeaderHandler_t324204131_CustomAttributesCacheGeneratorP21CustomAttributesCache
xni:_ChannelData_get_CustomProperties_m1470957369
KOg:__ZL99Material_t193706927_CustomAttributesCacheGenerator_Material_Internal_CreateWithMaterial_m1941547384P21CustomAttributesCache
SGe:_Dictionary_2_Do_ICollectionCopyTo_TisRuntimeObject_m545661084_gshared
J0:__ZN11UnityEngine15CloudWebService25WebRequestDownloadHandler17OnCompleteContentEv
zta:__ZN6prcore17GetIntegerBlitterE13TextureFormatS0_N14ImageReference8BlitModeE
BKc:__ZN13BoxCollider2DD0Ev
Ryj:__ZN6il2cpp2gc19AppendOnlyGCHashMapINSt3__24pairIPK11Il2CppImageP11Il2CppClassEEP22Il2CppReflectionModule17ReflectionMapHashIS9_ENS2_8equal_toIS9_EEE11TryGetValueERKS9_PSB_
IVh:_Enumerator_VerifyState_m3173176371_AdjustorThunk
RGh:__Z84RuntimeInvoker_Void_t1841601450_RaycastResultU5BU5DU26_t2399554255_Int32_t2071877448PFvvEPK10MethodInfoPvPS4_
IVf:_TypeConverterAttribute__cctor_m506796812
Adg:_Encoding_get_IsReadOnly_m3729101432
iqc:__ZN9BlobWrite14ReduceCopyImplERK14ReduceCopyDataj
e6:__ZNSt3__26__treeI19RepeatingLogMessageNS_4lessIS1_EE13stl_allocatorIS1_L18MemLabelIdentifier73ELi16EEE12__find_equalIS1_EERPNS_16__tree_node_baseIPvEESD_RKT_
VY:__ZN11AudioSource18IsPlayingScriptingEv
cpg:_ValueType_t3507792607_marshal_pinvoke_back
xji:_Comparer_1_System_Collections_IComparer_Compare_m1790257529_gshared
VEh:__Z55RuntimeInvoker_Int32_t2071877448_ILTokenInfo_t149559338PFvvEPK10MethodInfoPvPS4_
rXg:__ZL60TileAnimationData_t1492388264_CustomAttributesCacheGeneratorP21CustomAttributesCache
Heh:_MethodInfo_get_ContainsGenericParameters_m572340060
_Mc:__ZNK12b2WheelJoint10GetAnchorAEv
Q9j:_glShaderSource__wrapper
aLa:__ZN25MultiBlocksMemoryFileData17AdjustBlocksCountEj
hGj:__ZNSt3__214__split_bufferIN6il2cpp2vm22EmbeddedResourceRecordERNS_9allocatorIS3_EEED2Ev
WMf:_TlsClientHello__ctor_m1699671541
N_c:__ZN13TextRendering4Font8TransferI24GenerateTypeTreeTransferEEvRT_
fpi:_Context_NotifyGlobalDynamicSinks_m2916447645
yrc:__Z27CullingGroup_CUSTOM_DisposeP12Il2CppObject
vtd:__ZNSt3__26vectorIP19BaseConnectSettings13stl_allocatorIS2_L18MemLabelIdentifier6ELi16EEE21__push_back_slow_pathIKS2_EEvRT_
Nxh:__Z69RuntimeInvoker_Color_t2020392075_Color_t2020392075_Single_t2076509932PFvvEPK10MethodInfoPvPS4_
NUb:__ZN13ComputeShader15SetTextureParamEjRKN9ShaderLab16FastPropertyNameE9TextureID16TextureDimension
RQh:_Shadow_set_effectDistance_m1951993364
k1h:_Dictionary_2_ContainsKey_m416495915_gshared
hvf:_Collection_1_Remove_m1798559666_gshared
Dm:_glStencilMask
Dqh:__Z70RuntimeInvoker_Boolean_t3825574718_Int16_t4041245914_Int32_t2071877448PFvvEPK10MethodInfoPvPS4_
gPj:__ZN6il2cpp2os10ThreadImpl16GetCurrentThreadEv
INf:_TlsServerHelloDone__ctor_m2125611008
Ybe:_Hashtable__ctor_m2337481811
nVh:_Enumerator_System_Collections_IEnumerator_get_Current_m2010873149_gshared
tTd:_Resources_t2975512894_marshal_pinvoke_cleanup
stg:__ZL88Type_t_CustomAttributesCacheGenerator_Type_MakeGenericType_m2765875033____typeArguments0P21CustomAttributesCache
$2g:__ZL74SpriteState_t1353336012_CustomAttributesCacheGenerator_m_HighlightedSpriteP21CustomAttributesCache
Yv:__ZN24GenerateTypeTreeTransfer21TransferSTLStyleArrayINSt3__26vectorI24CompressedAnimationCurve13stl_allocatorIS3_L18MemLabelIdentifier26ELi16EEEEEEvRT_17TransferMetaFlags
QVj:_GC_push_conditional_with_exclusions
wng:_UInt32_System_IConvertible_ToUInt16_m2798641702_AdjustorThunk
g8f:_BinaryFormatter_get_DefaultSurrogateSelector_m219714691
iB:__ZN21AnimationPosePlayableD0Ev
Iad:_Compute_Point_Displacement
Nmh:__Z136RuntimeInvoker_Void_t1841601450_Int32_t2071877448_RuntimeObject_RuntimeObject_RuntimeObject_RuntimeObject_RuntimeObject_SByte_t454417549PFvvEPK10MethodInfoPvPS4_
xJf:_MD4Managed_Encode_m2097839378
Nxf:_Collection_1_System_Collections_IList_get_IsFixedSize_m3252091801_gshared
ASd:_FloatTween_get_ignoreTimeScale_m4161298485_AdjustorThunk
bhh:_MonoProperty_GetOptionalCustomModifiers_m3827844355
WZh:_ValueCollection_System_Collections_ICollection_get_IsSynchronized_m45572582_gshared
woi:__ZN21InterfaceFuncInvoker1IP8String_tS1_E6InvokeEjP11Il2CppClassP12Il2CppObjectS1_
SKe:_SimpleCollator_GetSortKey_m2188419329
T3g:__ZL56LayoutElement_t2808691390_CustomAttributesCacheGeneratorP21CustomAttributesCache
pNh:_Scrollbar_Set_m244028386
YXa:__ZN14RenderSettings27UpdateIndirectSpecularColorEv
NJh:__Z102RuntimeInvoker_RuntimeObject_UILineInfo_t3621277874_UILineInfo_t3621277874_RuntimeObject_RuntimeObjectPFvvEPK10MethodInfoPvPS4_
Ahb:__ZN14PlayerSettings8TransferI18StreamedBinaryReadILb0EEEEvRT_
Jli:_FixedBufferAttribute__ctor_m2048050068
Zqj:__ZN6il2cpp6icalls8mscorlib6System8MonoType16GetMethodsByNameEP20Il2CppReflectionTypeP12Il2CppStringibS5_
ODi:_Logger_Log_m302200299
hmi:_GCHandle__ctor_m2952050298
THe:_LayoutGroup_SetProperty_TisAxis_t1431825778_m2174054513_gshared
J5a:__ZN4PPtrI10GameObjectE8TransferI14SafeBinaryReadEEvRT_
QKh:_Mask_IsRaycastLocationValid_m62488857
oRb:__ZNSt3__27__sort3IRNS_4lessIN22BuiltinResourceManager8ResourceEEEPS3_EEjT0_S7_S7_T_
Nii:_DefaultComparer_Compare_m3472472212_gshared
XHh:__Z31RuntimeInvoker_Slot_t2022531261PFvvEPK10MethodInfoPvPS4_
j2e:_MonoIO_GetLength_m2812344043
o6c:_ps_hints_t2mask
pTg:__ZL68UsedByNativeCodeAttribute_t3212052468_CustomAttributesCacheGeneratorP21CustomAttributesCache
oDj:__ZN14dense_hash_mapI10KeyWrapperINSt3__24pairIP11Il2CppClassjEEES4_N6il2cpp8metadata14ArrayClassHashENS6_14EqualsComparerINS8_17ArrayClassCompareEEENS1_9allocatorINS2_IKS6_S4_EEEEEC2EjRKS9_RKSC_
Fbb:__ZN10BlendShape8TransferI19StreamedBinaryWriteILb0EEEEvRT_
qP:__Z32TransferEnumWithNameForceIntSizeI14SafeBinaryReadN10SampleClip8LoadTypeEEvRT_RT0_PKc17TransferMetaFlags
E$e:__Z21il2cpp_codegen_sizeofP11Il2CppClass
Hxa:__Z19GetTimeSinceStartupv
bFd:_SecurityFrame_get_Assembly_m2816566490
YOj:__ZN6il2cpp2os10ThreadImpl11SetPriorityENS0_14ThreadPriorityE
Mbj:_CanvasRenderer_set_hasPopInstruction_m3302400555
sbd:_TT_Load_Composite_Glyph
Ara:__ZN10DynamicVBOD2Ev
RLg:__ZL84Camera_t189460977_CustomAttributesCacheGenerator_Camera_get_targetTexture_m505846373P21CustomAttributesCache
Lsg:__ZL66RuntimeArray_CustomAttributesCacheGenerator_Array_Sort_m2323017822P21CustomAttributesCache
J2d:_Array_Sort_m2994254654
oof:_List_1__ctor_m593058937_gshared
uxe:_Array_InternalArray__IEnumerable_GetEnumerator_TisColor32_t874517518_m2198639025_gshared
lYb:__ZN29RenderNodeQueuePrepareContextC2Ev
UX:__ZN10SampleClipC2E18MemLabelIdentifier18ObjectCreationMode
Qpb:__ZN9ShaderLab20SerializedSubProgram16TextureParameter8TransferI24GenerateTypeTreeTransferEEvRT_
ofd:__ZN15TilemapRenderer23VirtualRedirectTransferER17RemapPPtrTransfer
gka:__ZN9GfxDevice19SaveStereoConstantsEv
mig:_Thread_set_Name_m1343706609
IYj:__ZN6il2cpp2os11MutexHandle4WaitEj
Yoc:__ZL34GetComponentsImplementationRecurseILb1ELi1ELi1EEbR10GameObjectbRK17CompareParametersRK39GetComponentsImplementation_ReturnValue
HYj:__ZN6il2cpp2os11MutexHandle4WaitEv
c8d:_ArrayList_set_Capacity_m592558035
sva:__ZN6prcoreL17RemapGenericFloatI15TexFormatRGHalf18TexFormatARGBFloatEEvPKNS_9InnerInfoE
V7e:_MonoEnumInfo_t2335995564_marshal_pinvoke_cleanup
cZa:__ZNK13RenderTexture13GetDataHeightEv
TPb:__Z18SimulateMouseInputi
fUb:__ZN13RenderManager23AddRemoveCamerasDelayedEv
oFc:__ZN9JSONWrite8TransferI13dynamic_arrayIdLj8EEEEvRT_PKc17TransferMetaFlags
PHa:__ZN23PreloadManagerOperation11GetPriorityEv
zre:_Exception_get_InnerException_m3722561235
uzi:_Color_op_Multiply_m2110750533
sve:_Array_InternalArray__ICollection_Remove_TisILTokenInfo_t149559338_m1523907845_gshared
And:__ZN11UnityEngine9Analytics15AnalyticsConfigC2Ev
n9h:_InternalEnumerator_1_System_Collections_IEnumerator_Reset_m138745466_AdjustorThunk
Ozh:__Z105RuntimeInvoker_Void_t1841601450_Vector2U26_t3911752445_RuntimeObject_RuntimeObject_Vector2U26_t3911752445PFvvEPK10MethodInfoPvPS4_
dlf:_List_1_GetEnumerator_m4053501645_gshared
Fpj:__ZN6il2cpp2gc9AllocatorIP17Il2CppAsyncResultE10deallocateEPvj
I1i:_Enumerator_CheckState_m1761755727_gshared
pce:_Hashtable_Rehash_m2877670513
o4b:__ZN13RenderTexture8SetWidthEi
X_d:_InputField_Insert_m1593238693
dec:__ZNK28RectTransformPropertyBinding12SetPPtrValueERKN11UnityEngine9Animation10BoundCurveEi
RJb:__Z18Transfer_BlittableI18StreamedBinaryReadILb0EELb0EfEvRK29SerializationCommandArgumentsR31RuntimeSerializationCommandInfo
Rbb:__ZN10MeshFilterD0Ev
S1c:_UNITY_FT_GlyphLoader_CheckSubGlyphs
Hpj:__ZN6il2cpp2vm21ThreadPoolCompartment20SpawnNewWorkerThreadEv
GAe:_Array_InternalArray__ICollection_Add_TisCustomAttributeTypedArgument_t1498197914_m3260005285_gshared
x_b:__Z25SetupObjectBakedOcclusionbRK15SharedLightDataRK26SharedLightmapSettingsDataRK15LightmapIndicesR17ShaderPassContext
mri:__ZN21InterfaceFuncInvoker4IP17Match_t3164245899P17Regex_t1803876613P8String_tiiE6InvokeEjP11Il2CppClassP12Il2CppObjectS3_S5_ii
PWe:_Guid_GetHashCode_m1401300871
A_i:_ListPool_1_U3Cs_ListPoolU3Em__0_m1243609651_gshared
rBj:__ZN15dense_hashtableINSt3__24pairIK10KeyWrapperIPK14Il2CppAssemblyEPK22Il2CppMonoAssemblyNameEES6_N6il2cpp5utils11PointerHashIS4_EEN14dense_hash_mapIS6_SA_SF_NS6_14EqualsComparerINS0_8equal_toIS5_EEEENS0_9allocatorISB_EEE9SelectKeyESK_SM_E16reset_thresholdsEv
HUd:_FontData__ctor_m3822008992
X3i:__ZL23UnresolvedVirtualCall_5P12Il2CppObjectsPK10MethodInfo
lJ:__ZN4PPtrI6AvatarE8TransferI19StreamedBinaryWriteILb0EEEEvRT_
X$h:_Dictionary_2_System_Collections_IDictionary_set_Item_m115188189_gshared
p6:__ZN9ShaderLab16FastPropertyName4InitEPKc
mNc:__ZN11b2GearJointD0Ev
jdc:__Z13RegisterClassIN2UI13RectTransformEEvv
oKe:_MSCompatUnicodeTable_ToWidthCompat_m2299599532
L9e:_NumberFormatter_get_IsFloatingSource_m2830957202
phc:__ZL31MeshRendererTransformChangedJobP13BoundsJobDatajPK23TransformAccessReadOnlyPKyj
Epd:__ZN11UnityEngine15PlatformWrapper19GetPhysicalMemoryMBEv
p8a:__ZN10VertexData8TransferI17RemapPPtrTransferEEvRT_
IYa:__ZN13RenderTexture9SetMipMapEb
hkj:__ZN15dense_hashtableINSt3__24pairIK10KeyWrapperIPK11Il2CppClassEPKcEES6_N6il2cpp5utils11PointerHashIS3_EEN14dense_hash_mapIS6_S9_SE_NS6_14EqualsComparerINS0_8equal_toIS5_EEEENS0_9allocatorISA_EEE9SelectKeyESJ_SL_E13set_empty_keyERKSA_
YOh:_ScrollRect_set_verticalScrollbarSpacing_m2356851539
Vfa:__Z18GetDirectorManagerv
eOi:_ResourceRequest_t2560315377_marshal_pinvoke_back
NZg:__ZL92PointerEventData_t1599784723_CustomAttributesCacheGenerator_U3CpointerDragU3Ek__BackingFieldP21CustomAttributesCache
nwc:__Z38Transform_CUSTOM_INTERNAL_get_rotationP12Il2CppObjectP11Quaternionf
Mvj:__ZNSt3__26vectorIN6il2cpp2vm17TypeNameParseInfoENS_9allocatorIS3_EEE8allocateEj
Iyg:__ZL66CriticalFinalizerObject_t1920899984_CustomAttributesCacheGeneratorP21CustomAttributesCache
Gyj:__ZNK15dense_hashtableINSt3__24pairIK10KeyWrapperINS1_IPK10MethodInfoP11Il2CppClassEEEjEES9_17ReflectionMapHashIS8_EN14dense_hash_mapIS9_jSD_NS9_14EqualsComparerINS0_8equal_toIS8_EEEENS0_9allocatorISB_EEE9SelectKeyESI_SK_E5beginEv
xwa:__ZN7ApiGLES19UploadBufferSubDataEjN2gl12BufferTargetEllPKv
zia:__ZNSt3__216__rotate_forwardINS_11__wrap_iterIPN4core12basic_stringIcNS2_20StringStorageDefaultIcEEEEEEEET_S9_S9_S9_
AGd:_String_System_IConvertible_ToInt32_m1927223638
bea:__ZdaPv
rK:__ZN7mecanim12statemachine20StateMachineConstant8TransferI14SafeBinaryReadEEvRT_
eXh:_Transform_1_EndInvoke_m4121732147_gshared
zCi:_FailedToLoadScriptObject_t3605283378_marshal_pinvoke_back
HId:_ASCIIEncoding__ctor_m4127831672
Lzi:_GameObject_GetComponent_m724360550
zbj:_CanvasGroup_get_alpha_m4171392097
Vyb:__Z19TransferField_ArrayI14SafeBinaryRead27Converter_SimpleNativeClassI8GUIStyleEEvRK23StaticTransferFieldInfoR31RuntimeSerializationCommandInfoRT0_
cth:__Z63RuntimeInvoker_Void_t1841601450_RuntimeObject_Int16_t4041245914PFvvEPK10MethodInfoPvPS4_
reg:_UTF8Encoding__ctor_m3336862259
SIj:__ZN15dense_hashtableINSt3__24pairIK10KeyWrapperIP14Il2CppIUnknownEjEES5_N6il2cpp5utils11PointerHashIS3_EEN14dense_hash_mapIS5_jSB_NS5_14EqualsComparerINS0_8equal_toIS4_EEEENS0_9allocatorIS7_EEE9SelectKeyESG_SI_ED2Ev
wYj:__ZN6il2cpp5utils10MemoryPoolC2Ej
F_f:_X509Chain_GetAuthorityKeyIdentifier_m2607407678
sYj:__ZN6il2cpp5utils10MemoryPoolC2Ev
uXa:__ZN14RenderSettings5ResetEv
Kbc:__ZN6Sprite9BindAtlasERK4PPtrI11SpriteAtlasE
$Bc:__ZN5Unity9rapidjson12GenericValueINS0_4UTF8IcEE13JSONAllocatorE10FindMemberIS4_EENS0_21GenericMemberIteratorILb0ES3_S4_EERKNS1_IS3_T_EE
uHj:__ZNSt3__212basic_stringIDsNS_11char_traitsIDsEENS_9allocatorIDsEEE6appendEPKDsj
VNd:_RaycastResult_set_gameObject_m1138581891_AdjustorThunk
ACc:__ZN5Unity9rapidjson13GenericReaderINS0_4UTF8IcEES3_13JSONAllocatorE11ParseNumberILj1ENS0_25GenericInsituStringStreamIS3_EENS0_15GenericDocumentIS3_S4_S4_EEEEvRT0_RT1_
pM:__ZN19StreamedBinaryWriteILb0EE21TransferSTLStyleArrayI22OffsetPtrArrayTransferIN7mecanim8skeleton19SkeletonMaskElementEEEEvRT_17TransferMetaFlags
Rcb:__ZN14SpriteRenderer14OnChangeSpriteEv
jHe:_Dictionary_2_Do_ICollectionCopyTo_TisKeyValuePair_2_t3716250094_m1740410536_gshared
B2h:_DefaultComparer__ctor_m580747638_gshared
SOj:__ZN6il2cpp2os10ThreadImplD2Ev
PQe:_RSAManaged_Dispose_m3018788098
_Nc:__ZN12b2MouseJoint23InitVelocityConstraintsERK12b2SolverData
rDc:__ZN8Gradient8TransferI9JSONWriteEEvRT_
Ahg:_Monitor_Monitor_pulse_m2135582245
qOf:_Context_get_ReceivedConnectionEnd_m3369356276
eVf:_NameObjectCollectionBase_get_Count_m2353593692
sHa:__ZNK12TLSAllocatorI14StackAllocatorE22GetAllocatedMemorySizeEv
Nx:__ZN7mecanim6memory16ChainedAllocator8AllocateEjj
qje:_Convert_ToUInt32_m3394039268
eBi:_DisplaysUpdatedDelegate_EndInvoke_m1055876886
iFa:__ZN17RemapPPtrTransfer12PushMetaFlagE17TransferMetaFlags
nW:__ZNK7WeakPtrI20SoundChannelInstanceE10SharedData9GetRawPtrEv
eub:__ZN12HandlerChain4NameEv
kKc:__ZN11UnityEngine9Analytics18RenderingInfoEventD0Ev
GAb:__Z29Transfer_Blittable_ArrayFieldI14SafeBinaryReadN4math12int3_storageEEvRT_R9ArrayInfoRK23StaticTransferFieldInfo
Ofb:__ZNSt3__26vectorI9InputAxisNS_9allocatorIS1_EEE10deallocateEv
NXe:_Int16_Equals_m3925135434_AdjustorThunk
Qld:__Z44Register_UnityEngine_CanvasRenderer_get_cullv
JYh:_Enumerator_Dispose_m2532362830_AdjustorThunk
evg:__ZL60IHashCodeProvider_t1980576455_CustomAttributesCacheGeneratorP21CustomAttributesCache
Gdc:__ZN13ProduceHelperI13MonoBehaviourLb0EE7ProduceE18MemLabelIdentifier18ObjectCreationMode
vcf:_Enumerator_VerifyState_m1677639504_AdjustorThunk
D8b:__Z29StdTemplateConversionFunctionIbbEbPvR14SafeBinaryRead
RRj:__ZNK15dense_hashtableINSt3__24pairIK10KeyWrapperIPK19Il2CppGenericMethodEP10MethodInfoEES6_N6il2cpp8metadata23Il2CppGenericMethodHashEN14dense_hash_mapIS6_S9_SD_NS6_14EqualsComparerINSC_26Il2CppGenericMethodCompareEEENS0_9allocatorISA_EEE9SelectKeyESH_SJ_E12test_deletedEj
eMf:_CipherSuiteCollection_get_Item_m280627160
Ywb:__Z44InitializeTransferFunctionScriptingTraitsForI17RemapPPtrTransferEvR31TransferFunctionScriptingTraits
o3f:_SerializationInfoEnumerator_MoveNext_m1876990879
Sjg:_TimeSpan_Duration_m4205681645
k6b:__ZN14UnityWebStream24UpdateAllUnityWebStreamsEv
Vdc:__ZNSt3__26vectorI16MessageForwarder13stl_allocatorIS1_L18MemLabelIdentifier7ELi8EEE6resizeEj
Nsf:_Collection_1_System_Collections_IList_get_IsReadOnly_m2329986891_gshared
Gtg:__ZL60ObsoleteAttribute_t3878847927_CustomAttributesCacheGeneratorP21CustomAttributesCache
fwi:_Uri_ParseAsWindowsAbsoluteFilePath_m1108586962
DNf:_Context_get_HandshakeState_m3443153737
iCe:_Array_InternalArray__ICollection_CopyTo_TisRaycastHit2D_t4063908774_m3837098618_gshared
RPb:__Z11StringToKeyRKN4core12basic_stringIcNS_20StringStorageDefaultIcEEEE
Rjb:__ZN18LoadSceneOperation21MustCompleteNextFrameEv
mPi:_DataUtility_GetInnerUV_m593541260
rV:__ZNK12AudioManager16GetAudioListenerEv
Gfh:_MonoField_get_FieldType_m598011426
Msf:_Collection_1_System_Collections_IList_get_IsFixedSize_m1624702704_gshared
pLd:_EventTrigger_OnScroll_m626934407
KLg:__ZL48Camera_t189460977_CustomAttributesCacheGeneratorP21CustomAttributesCache
W3b:__ZNSt3__26vectorI11CameraStackNS_9allocatorIS1_EEE8__appendEj
bGj:__ZNSt3__212basic_stringIcNS_11char_traitsIcEENS_9allocatorIcEEE6__initINS_11__wrap_iterIPcEEEENS_9enable_ifIXsr21__is_forward_iteratorIT_EE5valueEvE4typeESB_SB_
eSc:__ZNK11Rigidbody2D20GetAttachedCollidersER13dynamic_arrayIP10Collider2DLj4EE
e_d:_InputField_OnDisable_m1865339380
tng:_UInt32_System_IConvertible_ToType_m747769316
Qz:__ZN7mecanim9animation12GetHumanPoseERKNS0_18ClipMuscleConstantEPKNS0_10ValueDeltaERNS_5human9HumanPoseE
knd:__ZN11UnityEngine9Analytics15UserCustomEvent12CustomParams6InsertEPKcRNS1_11CustomValueE
qIe:_Array_InternalArray__get_Item_TisInt16_t4041245914_m2533263979_gshared
FB:__ZN22AnimationMixerPlayable17ProcessRootMotionEP35AnimationPlayableEvaluationConstantP32AnimationPlayableEvaluationInputP33AnimationPlayableEvaluationOutput
tGb:__Z29Transfer_Blittable_ArrayFieldI19StreamedBinaryWriteILb0EEjEvRT_R9ArrayInfoRK23StaticTransferFieldInfo
$ba:__Z13GetFileSystemv
sda:__ZNK5Unity4Type21FindAllDerivedClassesER13dynamic_arrayIPKS0_Lj4EENS0_17TypeFilterOptionsE
Zda:__ZN13RuntimeStaticI15GUIEventManagerLb0EE16StaticInitializeEPv
Odb:__ZN14SafeBinaryRead8TransferIfEEvRT_PKc17TransferMetaFlags
$Kb:__ZL12InvokeMethodI18StreamedBinaryReadILb0EEEvRK29SerializationCommandArgumentsR31RuntimeSerializationCommandInfo
DUe:_DaylightTime_get_Delta_m2316831491
lUc:__ZNSt3__27__sort5IR24RayHitsByDepthComparitorP12RaycastHit2DEEjT0_S5_S5_S5_S5_T_
yyc:__ZN13ProduceHelperI10GridLayoutLb1EE7ProduceE18MemLabelIdentifier18ObjectCreationMode
Nue:_Array_InternalArray__ICollection_Contains_TisUILineInfo_t3621277874_m1175659630_gshared
Oxh:__Z70RuntimeInvoker_Boolean_t3825574718_Color_t2020392075_Color_t2020392075PFvvEPK10MethodInfoPvPS4_
hjg:_WaitHandle_WaitOne_m370363697
k_g:__ZL114PointerEventData_t1599784723_CustomAttributesCacheGenerator_PointerEventData_set_pointerCurrentRaycast_m2431897513P21CustomAttributesCache
L0f:_FactoryCache_Lookup_m1681894361
Nle:_DateTime_Subtract_m698282245_AdjustorThunk
Vcb:__ZThn32_N14SpriteRenderer15AddAsRenderNodeER15RenderNodeQueueRK20DeprecatedSourceData
fji:_DefaultComparer__ctor_m2470932885_gshared
wze:_Array_InternalArray__IndexOf_TisResourceCacheItem_t333236149_m761772858_gshared
aJb:__Z29Transfer_Blittable_ArrayFieldI18StreamedBinaryReadILb1EE5RectTIfEEvRT_R9ArrayInfoRK23StaticTransferFieldInfo
qHg:__ZL79Convert_t2607082565_CustomAttributesCacheGenerator_Convert_ToUInt64_m1896191125P21CustomAttributesCache
_Ub:__ZN19ShaderPropertySheet9SetMatrixEN9ShaderLab16FastPropertyNameERK10Matrix4x4fNS_8SetFlagsE
azd:_RIPEMD160Managed_Initialize_m3365407578
c3a:__Z29GetTextureSizeAllowedMultiple13TextureFormat
zWf:_IPAddress_HostToNetworkOrder_m1092199707
Cwe:_SetPropertyUtility_SetStruct_TisSpriteState_t1353336012_m2898060836_gshared
q_g:__ZL102PointerEventData_t1599784723_CustomAttributesCacheGenerator_PointerEventData_set_pointerId_m2349910516P21CustomAttributesCache
PSb:__ZZ23InitPlayerLoopCallbacksvEN52InitializationAsyncUploadTimeSlicedUpdateRegistrator7ForwardEv
iDd:_SecurityAttribute__ctor_m3425755778
Yic:__ZN21IntermediateRenderers3AddEP20IntermediateRenderer
Hsj:_il2cpp_array_element_size
$f:_glCheckFramebufferStatus
nUg:__ZL55TextGenerator_t647235000_CustomAttributesCacheGeneratorP21CustomAttributesCache
Uxe:_Array_compare_TisInt32_t2071877448_m840310202_gshared
PVh:_Enumerator_System_Collections_IEnumerator_get_Current_m229223308_AdjustorThunk
rKj:__ZN15dense_hashtableINSt3__24pairIK10KeyWrapperINS1_IPKcS4_EEEiEES6_24NamespaceAndNamePairHashN14dense_hash_mapIS6_iS9_NS6_14EqualsComparerI26NamespaceAndNamePairEqualsEENS0_9allocatorIS8_EEE9SelectKeyESD_SF_E12resize_deltaEjj
kii:_InternalEnumerator_1_System_Collections_IEnumerator_get_Current_m442726479_AdjustorThunk
T1:__ZN19CloudServiceHandler20StartEventDispatcherERKN11UnityEngine15CloudWebService18CloudServiceConfigERNS1_23WebRequestRestHeaderMapE
sgi:_InternalEnumerator_1_System_Collections_IEnumerator_get_Current_m790514740_AdjustorThunk
eOc:__ZNK15b2DistanceJoint17GetReactionTorqueEf
nDh:__Z78RuntimeInvoker_Boolean_t3825574718_TransitionU26_t3012618447_Int32_t2071877448PFvvEPK10MethodInfoPvPS4_
cKe:__Z37il2cpp_codegen_get_executing_assemblyPK10MethodInfo
Etb:__ZN9Transform23VirtualRedirectTransferER17RemapPPtrTransfer
Zwh:__Z72RuntimeInvoker_Boolean_t3825574718_Bounds_t3033363703_Bounds_t3033363703PFvvEPK10MethodInfoPvPS4_
THi:_PKCS12_get_Keys_m1312614820
$K:__ZN15SerializeTraitsINSt3__24pairI8StateKey10StateRangeEEE8TransferI24GenerateTypeTreeTransferEEvRS4_RT_
FL:__ZN15SerializeTraitsI9OffsetPtrIN7mecanim12statemachine21SelectorStateConstantEEE8TransferI18StreamedBinaryReadILb0EEEEvRS4_RT_
cRc:__ZN24GenerateTypeTreeTransfer8TransferI13dynamic_arrayIS1_I8Vector2fLj4EELj4EEEEvRT_PKc17TransferMetaFlags
Wye:_Array_InternalArray__IndexOf_TisByte_t3683104436_m3605266236_gshared
uyf:_Collection_1_System_Collections_IList_Insert_m435904526_gshared
rYc:__ZN15dense_hashtableINSt3__24pairIKNS1_IPK10Collider2DS4_EE11Collision2DEES5_NS2_23ColliderPairHashFunctorEN14dense_hash_mapIS5_S7_S9_NS0_8equal_toIS5_EE13stl_allocatorIS8_L18MemLabelIdentifier67ELi16EEE9SelectKeyESC_SF_E13set_empty_keyERKS8_
$Mh:_RaycastAllCallback_Invoke_m981876639
deg:_UnicodeEncoding__ctor_m72484327
KPi:_Texture_INTERNAL_get_texelSize_m3335010007
VIj:__ZN14dense_hash_mapI10KeyWrapperIP14Il2CppIUnknownEjN6il2cpp5utils11PointerHashIS1_EENS3_14EqualsComparerINSt3__28equal_toIS2_EEEENS9_9allocatorINS9_4pairIKS3_jEEEEE15set_deleted_keyERSF_
Hda:__ZN22BuiltinResourceManager16StaticInitializeEPv
dbc:__ZN19SpriteMeshGenerator12path_segment12max_distanceENSt3__26vectorINS_6vertexENS1_9allocatorIS3_EEEEii
xx:__ZN7mecanim4hand8HandPose8TransferI19StreamedBinaryWriteILb0EEEEvRT_
YYe:_NumberFormatter_ScaleOrder_m1915154678
cFj:__ZN6il2cpp2gc9AllocatorIP12Il2CppThreadE10deallocateEPvj
ZSc:__ZN24b2ChainAndCapsuleContact8EvaluateEP10b2ManifoldRK11b2TransformS4_
hBj:__ZN13Il2CppHashMapIPK14Il2CppAssemblyPK22Il2CppMonoAssemblyNameN6il2cpp5utils11PointerHashIS1_EENSt3__28equal_toIS2_EENSA_9allocatorINSA_4pairIK10KeyWrapperIS2_ES5_EEEEEC2EjRKS9_RKSC_
$Nf:_ClientSessionInfo_SetContext_m2649357891
IKi:_PropertyAttribute__ctor_m1714388149
LZe:_Int32_System_IConvertible_ToInt64_m3790029067_AdjustorThunk
UKc:__ZN13BoxCollider2D13PrepareShapesER13dynamic_arrayIP7b2ShapeLj4EERK10Matrix4x4f
au:__ZN14AnimationEvent8TransferI14SafeBinaryReadEEvRT_
TKd:_RaycasterManager_GetRaycasters_m1154876874
mTf:_SslStreamBase_InternalReadCallback_m2524917586
eba:__ZN8Remapper6RemoveEi
uhf:_List_1_CheckCollection_m2608305187_gshared
CLa:__ZN10MemoryFile4ReadEyPvPy
Hlg:_Type_get_ContainsGenericParameters_m505913180
wpc:__ZN9Scripting27CreateArgumentNullExceptionEPKc
o1c:__ZL36CleanupTextRenderingScriptingClassesv
Ukh:__Z52RuntimeInvoker_UInt32_t2149682021_Decimal_t724701077PFvvEPK10MethodInfoPvPS4_
l4b:__ZN15ReflectionProbe17UseRendererResultEP13ProbeRenderer
p2d:_Array_BinarySearch_m3270245097
$tc:__Z34Mesh_CUSTOM_SetArrayForChannelImplP12Il2CppObject30InternalScriptingShaderChannel34InternalScriptingVertexChannelTypeiP11Il2CppArrayi
z1e:_MonoIO_DeleteFile_m3273821223
_Le:_BigInteger_GenerateRandom_m2507308768
oke:_DateTime_System_IConvertible_ToDouble_m1431748426_AdjustorThunk
zue:_Array_InternalArray__ICollection_Contains_TisUInt16_t986882611_m510319131_gshared
nDe:_Array_InternalArray__Insert_TisRaycastHit2D_t4063908774_m3174907903_gshared
hoe:_Decimal_ToString_m541380585
y1f:_RepeatContext_get_Previous_m808449037
XAh:__Z46RuntimeInvoker_CharacterValidation_t3437478890PFvvEPK10MethodInfoPvPS4_
geh:_MemberFilter__ctor_m1775909550
Zsj:_il2cpp_class_is_valuetype
MM:__ZN11UnityEngine9Animation28GenericAnimationBindingCache25RegisterIAnimationBindingEPKN5Unity4TypeEiP17IAnimationBinding
Uld:__Z70RectTransformUtility_CUSTOM_INTERNAL_CALL_RectangleContainsScreenPointP12Il2CppObjectRK13Vector2fIcallS0_
Xqe:_Enum_ToObject_m2601523252
M5j:dynCall_viiffiii
NSf:_InternalAsyncResult_get_FromWrite_m2893408424
eij:__ZN6il2cpp2vm5Class15GetElementClassEP11Il2CppClass
F0d:_U3CDelayedSetDirtyU3Ec__Iterator0_System_Collections_IEnumerator_get_Current_m851854792
Umd:__ZN14UnityAnalytics25UnregisterGlobalCallbacksEv
N2b:__Z40ProcessCameraIndexListIsNodeVisibleInOutRK22SceneCullingParametersPK9SceneNodePK4AABBR9IndexList
jEi:_Mathf_Sqrt_m3274009347
jVa:__ZN16GraphicsSettings8TransferI17RemapPPtrTransferEEvRT_
UHf:_BigInteger_op_LessThanOrEqual_m3528380540
E4e:_StreamReader__ctor_m2654332332
wjd:__ZN2UI6Canvas13UpdateBatchesEb
GGi:_Playable__cctor_m3745623656
KE:__ZNK23AnimationPlayableOutput11DerivesFromE17ScriptingClassPtr
SQc:__ZN17PolygonCollider2D15TransformPointsERK13dynamic_arrayI8Vector2fLj4EERK10Matrix4x4fRKS1_fP6b2Vec2
b2a:__ZN7Texture19SupportsAsyncUploadI19StreamedBinaryWriteILb0EEEEbRT_
qzi:_Color_op_Implicit_m3487763211
Aff:_List_1_CheckCollection_m3968030679_gshared
iaj:_Predicate_1_BeginInvoke_m3556950370_gshared
Zeg:_StringBuilder_ToString_m617673931
Vja:__ZNK13GfxDeviceGLES12GetWireframeEv
Ygg:_UTF8Encoding_GetString_m1836344205
HCf:_ReadOnlyCollection_1_System_Collections_ICollection_get_IsSynchronized_m3127987432_gshared
yqd:__ZN11UnityEngine7Connect13ConfigHandler12GetListenersERKN4core12basic_stringIcNS2_20StringStorageDefaultIcEEEE
vVg:__ZL110AudioSource_t1135106623_CustomAttributesCacheGenerator_AudioSource_INTERNAL_CALL_ReadExtensionName_m3515549821P21CustomAttributesCache
yla:__ZN9GfxDevice18AllocRenderSurfaceEb
QMh:_GetRayIntersectionAllNonAllocCallback_BeginInvoke_m273046189
Ebc:__ZN10TagManager32GetSortingLayerUniqueIDFromValueEi
gui:_AnchorInfo_get_IsComplete_m1247624133
$Td:_Dropdown_Show_m324374589
c8:__ZL27CleanupCoreScriptingClassesv
cnh:__Z68RuntimeInvoker_RuntimeObject_RuntimeObject_DSAParameters_t1872138834PFvvEPK10MethodInfoPvPS4_
Qch:_ParameterBuilder_get_Position_m4023585547
Uzf:_ReadOnlyCollection_1_System_Collections_ICollection_get_SyncRoot_m769863805_gshared
YBh:__Z101RuntimeInvoker_Void_t1841601450_RuntimeObject_Int32_t2071877448_Single_t2076509932_Single_t2076509932PFvvEPK10MethodInfoPvPS4_
mNd:_RaycastResult_get_isValid_m2482925612
Vtc:__Z26AnimationCurve_CUSTOM_InitP12Il2CppObjectP11Il2CppArray
tdk:_glUniform1uiv__wrapper
hLc:__ZNK14b2PolygonShape5CloneEP16b2BlockAllocator
UAj:__ZN6il2cpp2vm10Reflection7IsEventEP12Il2CppObject
a$j:__ZNSt3__26__treeINS_12__value_typeIPFvvEPK10MethodInfoEENS_19__map_value_compareIS3_S7_NS_4lessIS3_EELb1EEENS_9allocatorIS7_EEE16__insert_node_atEPNS_16__tree_node_baseIPvEERSI_SI_
l9:__ZN17PersistentManager26GetStreamNameSpaceInternalEi
PLi:_Rect_set_y_m3273335367
zP:__ZN4FMOD6System11createSoundEPKcjP22FMOD_CREATESOUNDEXINFOPPNS_5SoundE
BIh:__Z72RuntimeInvoker_Int32_t2071877448_Vector2_t2243707579_Vector2_t2243707579PFvvEPK10MethodInfoPvPS4_
gvf:__ZN23InterfaceActionInvoker2Ii22UICharInfo_t3056636800E6InvokeEjP11Il2CppClassP12Il2CppObjectiS0_
eo:FUNCTION_TABLE_iiifiiii
lwj:__ZN6il2cpp2vm4Type14IsSystemDBNullEPK10Il2CppType
j7:__ZN9ShaderLab19CommonPropertyNames13StaticCleanupEPv
waa:__Z31scripting_method_get_returntype18ScriptingMethodPtr
ePh:_ScrollRect_UpdateBounds_m3266596336
r4a:__ZN15SerializeTraitsI12LightmapDataE8TransferI24GenerateTypeTreeTransferEEvRS0_RT_
QQi:_Transform_INTERNAL_set_localScale_m1610244689
ERd:_ColorBlock_GetHashCode_m649325222
S9j:_glStencilOpSeparate__wrapper
Qlc:__ZN4Mesh5SetUvEiPKfjj
P6a:__ZN7Texture13SetAnisoLimitENS_20AnisotropicFilteringE
Pkb:__ZN28LightProbeProxyVolumeManager25UpdateSHCoeffsTextureDataER21LightProbeProxyVolume
YLa:__Z18CreateDecompressor15CompressionType18MemLabelIdentifier
jX:__ZN11AudioModule16SetListenerPauseEb
Uh:_emscripten_glCompressedTexSubImage2D
_xa:__ZN13GfxDeviceGLES22MemoryBarrierImmediateEyN2gl17MemoryBarrierTypeE
kia:__ZZN18SpriteAtlasManagerC1EvEN46EarlyUpdateSpriteAtlasManagerUpdateRegistrator7ForwardEv
eIj:__ZN6il2cpp6icalls8mscorlib6System4Type18internal_from_nameEP12Il2CppStringbb
Gva:__ZN6prcoreL26RemapGenericFloatToIntegerI18TexFormatARGBFloat17TexFormatARGB8888EEvPKNS_9InnerInfoE
Soc:__Z46GetShaderModelNumericValueFromRequirementsMask18ShaderRequirements
F9c:_cff_ps_has_glyph_names
GXh:_Transform_1_EndInvoke_m1025924012_gshared
DDf:_ReadOnlyCollection_1_System_Collections_Generic_ICollectionU3CTU3E_get_IsReadOnly_m2873538493_gshared
Wri:_PatternCompiler_EmitPosition_m3013268572
h0f:_X509SubjectKeyIdentifierExtension__ctor_m1109455121
rac:__Z13tessTesselateP14TESStesselatoriiiiPKf
J4i:__ZL24UnresolvedVirtualCall_45P12Il2CppObject19DateTime_t693205669PK10MethodInfo
lWd:_Graphic_CreateColorFromAlpha_m2614574534
Lfg:_UnicodeEncoding_GetHashCode_m2443440683
NBc:__Z44Register_UnityEngine_GUIStyle_SetDefaultFontv
Mah:_GenericTypeParameterBuilder_GetPropertyImpl_m3566422383
Jac:__ZN19SpriteMeshGenerator9MakeShapeEP11ColorRGBA32iifhbjfi
TGb:__Z18Transfer_BlittableI18StreamedBinaryReadILb1EELb1EiEvRK29SerializationCommandArgumentsR31RuntimeSerializationCommandInfo
CG:__ZN9BlobWrite8TransferI22OffsetPtrArrayTransferIKN4math7_float3EEEEvRT_PKc17TransferMetaFlags
eCd:_TripleDES_IsWeakKey_m483013953
wZf:_X509Certificate2_get_PrivateKey_m2662162956
PYh:_Enumerator__ctor_m3819430617_AdjustorThunk
Jzj:__ZN15dense_hashtableINSt3__24pairIK10KeyWrapperINS1_IPK12PropertyInfoP11Il2CppClassEEEjEES9_17ReflectionMapHashIS8_EN14dense_hash_mapIS9_jSD_NS9_14EqualsComparerINS0_8equal_toIS8_EEEENS0_9allocatorISB_EEE9SelectKeyESI_SK_E12maybe_shrinkEv
sth:__Z75RuntimeInvoker_RuntimeObject_RuntimeObject_Single_t2076509932_RuntimeObjectPFvvEPK10MethodInfoPvPS4_
sHb:__Z18Transfer_BlittableI18StreamedBinaryReadILb1EELb1EsEvRK29SerializationCommandArgumentsR31RuntimeSerializationCommandInfo
wBh:__Z54RuntimeInvoker_Void_t1841601450_ColorBlock_t2652774230PFvvEPK10MethodInfoPvPS4_
FFd:_Single_System_IConvertible_ToSByte_m3757385387
FQi:_Vector3_get_forward_m1316319684
x2e:_StreamAsyncResult_SetComplete_m2141125667
T6a:__ZL21SetAnisoLimitEnumImplN7Texture20AnisotropicFilteringEb
Ood:__ZN22BaseUnityConnectClient17OnEnterStateReadyEv
fgd:__ZN7Tilemap15QueueCameraViewERK13TilemapBounds
x8:__Z21GetManagerFromContexti
zTa:__ZN14GrowableBufferD2Ev
YUi:_GUIStyle_get_stretchWidth_m813991504
gtc:__Z29Input_CUSTOM_GetMouseButtonUpi
xrj:__ZN6il2cpp6icalls8mscorlib6System8MonoType16InternalGetEventEP20Il2CppReflectionTypeP12Il2CppStringi
xng:_UInt32_System_IConvertible_ToUInt32_m1257480358_AdjustorThunk
PHh:__Z55RuntimeInvoker_CustomAttributeTypedArgument_t1498197914PFvvEPK10MethodInfoPvPS4_
xhg:_Interlocked_CompareExchange_m3339239614
x3c:_UNITY_tt_face_load_maxp
utc:__Z46Input_CUSTOM_INTERNAL_set_compositionCursorPosRK13Vector2fIcall
Ty:__ZN7mecanim5human12FullBodyMaskEv
jFg:__ZL98Activator_t1850728717_CustomAttributesCacheGenerator_Activator_CreateInstance_m1465989661____args1P21CustomAttributesCache
xQi:_Transform_set_position_m2942701431
wdb:__ZN19ShaderPropertySheet11ComputeHashEv
Qlj:__ZN30dense_hashtable_const_iteratorI10KeyWrapperIPK19Il2CppGenericMethodES4_N6il2cpp8metadata23Il2CppGenericMethodHashEN14dense_hash_setIS4_S7_NS4_14EqualsComparerINS6_26Il2CppGenericMethodCompareEEENSt3__29allocatorIS4_EEE8IdentityESB_SE_EppEv
uTc:__ZN12b2EPCollider24ComputePolygonSeparationEv
oIb:__ZN4PPtrI6ObjectE8TransferI18StreamedBinaryReadILb1EEEEvRT_
s0:__ZN11UnityEngine15CloudWebService20WebRequestRestClient6IsDoneEv
qVg:__ZL93AudioSource_t1135106623_CustomAttributesCacheGenerator_AudioSource_Play_m1385529671____delay0P21CustomAttributesCache
_Rd:_ColorTween_get_tweenMode_m2919867230_AdjustorThunk
Qi:_llvm_fabs_f32
IQd:_CanvasScaler_HandleScaleWithScreenSize_m80056230
SXh:_Transform_1_EndInvoke_m687617772_gshared
X$:__ZN11UnityEngine15CloudWebService16SessionContainer16GetJsonDataBlockEjRKN4core12basic_stringIcNS2_20StringStorageDefaultIcEEEERS6_PjSA_
fbg:_SByte_System_IConvertible_ToUInt64_m2174352876_AdjustorThunk
ou:__ZN7mecanim9animation18ClipMuscleConstant8TransferI14SafeBinaryReadEEvRT_
Zah:_GenericTypeParameterBuilder_get_AssemblyQualifiedName_m902593295
FBj:__ZN15dense_hashtableINSt3__24pairIK10KeyWrapperIPK14Il2CppAssemblyEPK22Il2CppMonoAssemblyNameEES6_N6il2cpp5utils11PointerHashIS4_EEN14dense_hash_mapIS6_SA_SF_NS6_14EqualsComparerINS0_8equal_toIS5_EEEENS0_9allocatorISB_EEE9SelectKeyESK_SM_E13set_empty_keyERKSB_
igg:_UTF7Encoding_InternalGetBytes_m2772055844
V5h:_EqualityComparer_1__ctor_m831468288_gshared
h$h:_Dictionary_2_System_Collections_IDictionary_set_Item_m2290664072_gshared
jph:__Z76RuntimeInvoker_Void_t1841601450_Int64_t909078037_ResourceInfoU26_t3126209420PFvvEPK10MethodInfoPvPS4_
AKe:_SimpleCollator__cctor_m2693747668
aoe:_Decimal_CompareTo_m2454501434_AdjustorThunk
B9:__ZN14SafeBinaryReadD2Ev
emg:_UInt16_System_IConvertible_ToChar_m4055364664
cdc:__Z13RegisterClassI7TextureEvv
kvi:_ExpressionCollection_OnValidate_m1703610065
fJe:_Component_GetComponentInChildren_TisRuntimeObject_m2461586036_gshared
IIb:__ZN8Gradient8TransferI18StreamedBinaryReadILb1EEEEvRT_
cYh:_Enumerator_Dispose_m2369319718_AdjustorThunk
MGg:__ZL79Convert_t2607082565_CustomAttributesCacheGenerator_Convert_ToUInt16_m3991499696P21CustomAttributesCache
Lng:_UInt32_ToString_m554020223_AdjustorThunk
eqf:_Enumerator_Dispose_m1520016780_AdjustorThunk
OCi:_GameObject_SendMessage_m3423113156
hIj:__ZN6il2cpp6icalls8mscorlib6System4Type15MakeGenericTypeEP20Il2CppReflectionTypeP11Il2CppArray
pj:_SDL_PauseAudio
ctj:_il2cpp_class_from_type
X2d:_Array_Sort_m2323017822
_xc:__ZNK4Grid12LocalToWorldERKN4math7_float3E
i7:__ZN9ShaderLab19CommonPropertyNames16StaticInitializeEPv
i7e:_MissingMemberException__ctor_m3710131950
$lb:__ZN13MemoryManager31DisallowAllocationsOnThisThreadEv
ALi:_Ray_get_direction_m4136268940_AdjustorThunk
EI:__ZN7mecanim9animation18CreateAvatarOutputEPKNS0_14AvatarConstantEbbRNS_6memory9AllocatorE
iuh:__Z91RuntimeInvoker_Void_t1841601450_RuntimeObject_Int32_t2071877448_RuntimeObject_RuntimeObjectPFvvEPK10MethodInfoPvPS4_
ecg:_CspParameters__ctor_m2546931874
jV:__ZN11AudioSource23VirtualRedirectTransferER24GenerateTypeTreeTransfer
vs:__ZN15AnimationBinder10BindCurvesERK14dense_hash_mapI7CurveIDj10hash_curveNSt3__28equal_toIS1_EE13stl_allocatorINS3_4pairIKS1_jEEL18MemLabelIdentifier1ELi16EEER9TransformR13dynamic_arrayI20BoundCurveDeprecatedLj4EERNS3_6vectorIPSF_S6_ISM_LSA_26ELi16EEEERi
Lnd:__ZN14UnityAnalytics15SendCustomEventERN11UnityEngine9Analytics15UserCustomEventE
n9a:__ZN14Texture2DArray23VirtualRedirectTransferER14SafeBinaryRead
PZb:__ZNK6Camera21CalculateCanDoShadowsEv
U1h:_Dictionary_2_make_pair_m2631942124_gshared
pWd:_Graphic__cctor_m1643894470
VQj:__ZN6il2cpp2os6Thread12SetStackSizeEj
Ejh:__Z99RuntimeInvoker_Void_t1841601450_Int32_t2071877448_RuntimeObject_Int32_t2071877448_Int32_t2071877448PFvvEPK10MethodInfoPvPS4_
SZf:_X509ChainElementEnumerator_get_Current_m2232618221
MAi:_DebugLogHandler_LogFormat_m2866699703
dph:__Z54RuntimeInvoker_CallingConventions_t1097349142_IntPtr_tPFvvEPK10MethodInfoPvPS4_
eQd:_U3COnFinishSubmitU3Ec__Iterator0_Reset_m2080388334
hlc:__ZNK8Renderer16IsVisibleInSceneEv
_Oh:_ScrollRect_set_onValueChanged_m3957749575
m5:__Z13VFormatBufferPciPKcz
PJb:__Z18Transfer_BlittableI18StreamedBinaryReadILb0EELb1EhEvRK29SerializationCommandArgumentsR31RuntimeSerializationCommandInfo
N9i:_U3CCreateWhereIteratorU3Ec__Iterator1D_1_Dispose_m1879652802_gshared
kzg:__ZL90SafeHandle_t2733794115_CustomAttributesCacheGenerator_SafeHandle_get_IsInvalid_m3910183075P21CustomAttributesCache
Sbc:__ZL24GenerateTilingJobCombineP22GenerateTilingAreaInfo
iYd:_Image_GenerateSimpleSprite_m4275440988
Vmg:_UInt16_ToString_m3280699191
Kva:__ZN6prcoreL27StretchGenericFloatBilinearI15TexFormatRFloatEEvPKNS_9InnerInfoE
jAg:__ZL62IDynamicMessageSink_t3056162262_CustomAttributesCacheGeneratorP21CustomAttributesCache
Hwe:_Array_InternalArray__IEnumerable_GetEnumerator_TisBoolean_t3825574718_m798244337_gshared
Ylf:_List_1_CopyTo_m158925060_gshared
IB:__Z24ProcessAnimationMixBeginP35AnimationPlayableEvaluationConstantP32AnimationPlayableEvaluationInputP33AnimationPlayableEvaluationOutput
Hye:_Array_IndexOf_TisCustomAttributeNamedArgument_t94157543_m745056346_gshared
Nsa:__Z14PadImageBorderR14ImageReferenceii
myj:__ZN15dense_hashtableINSt3__24pairIK10KeyWrapperINS1_IPK10MethodInfoP11Il2CppClassEEEjEES9_17ReflectionMapHashIS8_EN14dense_hash_mapIS9_jSD_NS9_14EqualsComparerINS0_8equal_toIS8_EEEENS0_9allocatorISB_EEE9SelectKeyESI_SK_E4findERSA_
Uoj:__ZN6il2cpp2vm13MetadataCache28GetFieldDefaultValueForFieldEPK9FieldInfo
g7h:_ArrayReadOnlyList_1_ReadOnlyError_m2289309720_gshared
kC:__ZN27AnimationLayerMixerPlayableD2Ev
Trj:__ZN6il2cpp2vm8basepathEPKc
F3h:_DefaultComparer_GetHashCode_m320514092_gshared
XJf:_PKCS1_Verify_v15_m478274703
ZNg:__ZL99Input_t1785128008_CustomAttributesCacheGenerator_Input_INTERNAL_set_compositionCursorPos_m144787813P21CustomAttributesCache
ER:__ZN12AudioManager39HandlePendingAudioConfigurationCallbackEv
Dmh:__Z119RuntimeInvoker_Int32_t2071877448_RuntimeObject_RuntimeObject_Int32_t2071877448_Int32_t2071877448_BooleanU26_t3168250738PFvvEPK10MethodInfoPvPS4_
mk:_emscripten_glIsFramebuffer
dQa:__ZN12_GLOBAL__N_16qAtan2Eff
Aie:_Convert_ToInt64_m954367741
qk:_JS_Sound_SetLoopPoints
W7d:_ArrayList__ctor_m1467563650
vW:__ZN12AudioManager17ShouldSourcePauseEb
OYj:__ZN6il2cpp2vm26MetadataAllocGenericMethodEv
oBa:__ZN19ConstantBuffersGLES12RecordRenderEv
hFc:__ZN9JSONWrite8TransferI10RectOffsetEEvRT_PKc17TransferMetaFlags
ssa:__ZN4crnd12symbol_codec11decode_bitsEj
vJi:_X509Crl_get_Extensions_m1795830276
HTc:__ZN15b2CircleContact8EvaluateEP10b2ManifoldRK11b2TransformS4_
TFe:_Array_Sort_TisRaycastResult_t21186376_TisRaycastResult_t21186376_m38820193_gshared
Fic:__ZN21FixedBehaviourManagerD0Ev
sNg:__ZL84RectOffset_t3387826427_CustomAttributesCacheGenerator_RectOffset_set_top_m1587840032P21CustomAttributesCache
aUg:__ZL55RaycastHit2D_t4063908774_CustomAttributesCacheGeneratorP21CustomAttributesCache
eIi:_PKCS12_EncryptedContentInfo_m938119256
J1e:_StreamReader__ctor_m3454466728
IR:__ZN4FMOD6System12createReverbEPPNS_6ReverbE
eNi:_RectTransform_get_anchorMin_m3466802567
bC:__ZN7mecanim19ValueArrayBlendNodeILb1EEEvRKNS_10ValueArrayERKNS_14ValueArrayMaskERS1_RS4_RNS_16ValueArrayWeightEf
bmb:__Z16MarkDependenciesR27GarbageCollectorThreadStatej
K$f:_X509ChainElementEnumerator_Reset_m3832280427
hZg:__ZL75EventSystem_t3466835263_CustomAttributesCacheGenerator_U3CU3Ef__mgU24cache0P21CustomAttributesCache
o9e:_MulticastDelegate_RemoveImpl_m2024746777
SQd:_CanvasUpdateRegistry_ParentCount_m2367607495
i9e:_MulticastDelegate_Equals_m3064081489
JTe:_Activator_CreateInstance_m1465989661
gja:__ZNK9Transform11GetPositionEv
Hvi:_PositionAssertion_GetWidth_m2294218483
lWa:__ZN23SharedMeshRenderingData18UnloadVertexStreamEi
Xic:__ZN31CanvasBatchIntermediateRenderer11AddSubBatchERK16DrawBuffersRangePK19ShaderPropertySheet
Alh:__Z99RuntimeInvoker_Void_t1841601450_RuntimeObject_Int32_t2071877448_Int32_t2071877448_Int32_t2071877448PFvvEPK10MethodInfoPvPS4_
Dhc:__ZN19RenderEventsContextC2Ei
j_:__Z6simd4fRKf
cCe:_Array_InternalArray__ICollection_CopyTo_TisColor32_t874517518_m379086718_gshared
yRh:_Slider_ClampValue_m2851810895
Uk:_emscripten_glEnable
KMj:__ZN6il2cpp2gc16GarbageCollector29RegisterFinalizerForNewObjectEP12Il2CppObject
GOa:__ZN10TagManager23VirtualRedirectTransferER14SafeBinaryRead
Emi:_MarshalAsAttribute__ctor_m1892084128
T2c:_UNITY_FT_Init_Class_ft_grays_raster
Xfa:__ZN14PlayableOutput26ClearInvalidSourcePlayableEv
C0b:__Z15InitLightMeshesv
fFg:__ZL97WaitHandle_t677569169_CustomAttributesCacheGenerator_WaitHandle_t677569169____Handle_PropertyInfoP21CustomAttributesCache
Iaf:_KeyValuePair_2_ToString_m1391611625_AdjustorThunk
Gn:FUNCTION_TABLE_iifiii
qkf:_List_1_Sort_m4156683373_gshared
Ehe:_Double_Parse_m1617409931
avh:__Z70RuntimeInvoker_Boolean_t3825574718_Int32_t2071877448_Int16_t4041245914PFvvEPK10MethodInfoPvPS4_
K6a:__ZN15QualitySettings8TransferI19StreamedBinaryWriteILb0EEEEvRT_
Ogf:_List_1_System_Collections_Generic_IEnumerableU3CTU3E_GetEnumerator_m1503548298_gshared
eFb:__Z18Transfer_BlittableI19StreamedBinaryWriteILb0EELb1E8Vector2fEvRK29SerializationCommandArgumentsR31RuntimeSerializationCommandInfo
J7c:_cf2_arrstack_init
Qyg:__ZL65ClassInterfaceAttribute_t910653559_CustomAttributesCacheGeneratorP21CustomAttributesCache
Awj:__ZN15dense_hashtableINSt3__24pairIK10KeyWrapperINS1_IPK14Il2CppAssemblyP11Il2CppClassEEEjEES9_17ReflectionMapHashIS8_EN14dense_hash_mapIS9_jSD_NS9_14EqualsComparerINS0_8equal_toIS8_EEEENS0_9allocatorISB_EEE9SelectKeyESI_SK_E15insert_noresizeERKSB_
d4:__Z15CleanLogHandler7LogTypePKcz
sqb:__ZN9ShaderLab19SerializedSubShader8TransferI19StreamedBinaryWriteILb0EEEEvRT_
S7d:_CharEnumerator_Reset_m2412204068
Dxc:__ZN4GridD0Ev
Pfg:_UTF32Encoding_GetBytes_m2290150495
_Mb:__ZN6Camera17RemoveImageFilterERK11ImageFilter
mxa:__ZNSt3__218__insertion_sort_3IR25ValueParameterArraySorterPN20GpuProgramParameters14ValueParameterEEEvT0_S6_T_
ROc:__ZN10ClipperLib7Clipper27ProcessEdgesAtTopOfScanbeamEx
Zxh:__Z74RuntimeInvoker_Boolean_t3825574718_HitInfo_t1761367055_HitInfo_t1761367055PFvvEPK10MethodInfoPvPS4_
nkd:__ZZN2UI11CanvasGroup15InitializeClassEvEN38FunctorImpl_117kTransformParentChanged4CallEPviR11MessageData
nKh:_LayoutUtility_GetLayoutProperty_m4052007472
gAa:__ZNSt3__214__split_bufferI20ComputeShaderVariantRNS_9allocatorIS1_EEED2Ev
H5i:__ZL24UnresolvedVirtualCall_97P12Il2CppObjectS0_iS0_iPK10MethodInfo
jKb:__Z18Transfer_BlittableI18StreamedBinaryReadILb0EELb1E9BoundsIntEvRK29SerializationCommandArgumentsR31RuntimeSerializationCommandInfo
xOf:_Context_set_WriteSequenceNumber_m3356252710
UTj:__ZN6il2cpp2vm13ManagedObject7GetIidsEPjPP10Il2CppGuid
bkd:__ZN2UI26InitializeDeviceForOverlayEi
NWe:_Guid_Equals_m2389236871
c6:__Z27LogRepeatingStringWithFlagsRKN4core12basic_stringIcNS_20StringStorageDefaultIcEEEE15LogMessageFlagsi
xdf:_Enumerator_MoveNext_m3483405135_gshared
tz:__ZN17AnimationPlayable28ComputeNeedsBindingRebuildedEv
zy:__ZN17AnimationPlayable23RequestAllocateBindingsEv
Sii:_DefaultComparer__ctor_m2859550749_gshared
KAe:_Array_InternalArray__ICollection_Add_TisMonoResource_t3127387157_m2070096275_gshared
Cef:_List_1_CheckIndex_m3609163576_gshared
IPg:__ZL62PlayableOutputHandle_t551742311_CustomAttributesCacheGeneratorP21CustomAttributesCache
GVb:__ZNSt3__227__insertion_sort_incompleteIRPFbP10GUIElementS2_EPS2_EEbT0_S7_T_
sZf:_X509ExtensionCollection__ctor_m1324282194
Ird:__ZN18UnityConnectClient33OnPlayerSessionStateChangedStaticEPS_jyy
iO:__ZN25RuntimeAnimatorController12CleanupClassEv
Kug:__ZL74CaseInsensitiveHashCodeProvider_t2307530285_CustomAttributesCacheGeneratorP21CustomAttributesCache
Mog:_UIntPtr__ctor_m3900568171_AdjustorThunk
XXg:__ZL103UISystemProfilerApi_t845863050_CustomAttributesCacheGenerator_UISystemProfilerApi_EndSample_m3264820872P21CustomAttributesCache
a1:__ZNK11UnityEngine15CloudWebService23WebRequestUploadHandler11GetProgressEv
qpa:__ZN7ApiGLES4LoadE16GfxDeviceLevelGL
F4a:__ZN18StreamedBinaryReadILb0EE21TransferSTLStyleArrayI13dynamic_arrayI31EnlightenSystemAtlasInformationLj8EEEEvRT_17TransferMetaFlags
lsa:__ZN4crnd12crn_unpacker22decode_color_endpointsEv
RLj:__ZN15dense_hashtableI10KeyWrapperIP18Il2CppGenericClassES3_N6il2cpp8metadata22Il2CppGenericClassHashEN14dense_hash_setIS3_S6_NS3_14EqualsComparerINS5_25Il2CppGenericClassCompareEEENSt3__29allocatorIS3_EEE8IdentityESA_SD_E15insert_noresizeERKS3_
TAf:_ReadOnlyCollection_1_System_Collections_IList_Clear_m3006875897_gshared
Jgc:__ZZL31RegisterOtherRendererPropertiesR22GenericPropertyBindingEN30Wrapper_RendererReceiveShadows13GetFloatValueEPv
ZMg:__ZL80GameObject_t1756533147_CustomAttributesCacheGenerator_GameObject_Find_m279709565P21CustomAttributesCache
qnh:__Z130RuntimeInvoker_Void_t1841601450_RuntimeObject_Int32U26_t455636984_ByteU26_t1147306860_Int32U26_t455636984_ByteU5BU5DU26_t790777611PFvvEPK10MethodInfoPvPS4_
Pdf:_Enumerator_System_Collections_IEnumerator_get_Current_m3866069145_gshared
NLe:_PreviousInfo_t581002487_marshal_pinvoke_cleanup
kQb:__ZN8Material11SetPassFastEPN9ShaderLab4PassER17ShaderPassContextP6Shaderib
h7a:__ZNK13ScreenManager13GetLockCursorEv
Grd:__ZN11UnityEngine7Connect20BasePersistentValues10SaveValuesER9JSONWrite
xeb:__ZN14SafeBinaryRead21TransferSTLStyleArrayINSt3__26vectorI17SubstanceEnumItemNS1_9allocatorIS3_EEEEEEvRT_17TransferMetaFlags
g3i:_AudioListener_AddExtension_m2954727157
TLd:_ExecuteEvents_get_pointerDownHandler_m1172742772
kUc:__ZNSt3__27__sort4IR24RayHitsByDepthComparitorP12RaycastHit2DEEjT0_S5_S5_S5_T_
Gmc:__Z14ScaleCurveTimeR17AnimationCurveTplIfEf
dea:__ZN22VirtualJoystickManagerC2Ev
LWb:__Z12SetupLODFadeR9GfxDeviceR17ShaderPassContextf
T0a:__ZNK14PlayableOutput7GetTypeEv
TSc:__ZN26b2PolygonAndCapsuleContact6CreateEP9b2FixtureiS1_iP16b2BlockAllocator
Jmh:__Z203RuntimeInvoker_Boolean_t3825574718_RuntimeObject_Int32U26_t455636984_Int32_t2071877448_Int32_t2071877448_RuntimeObject_SByte_t454417549_Int32_t2071877448_ContractionU26_t2019974048_ContextU26_t3131521781PFvvEPK10MethodInfoPvPS4_
kIi:_X501_ToString_m3328169518
p0b:__ZL24CollectForwardObjectsJobP27CollectForwardObjectsHeader
ZTh:_Enumerator_System_Collections_IDictionaryEnumerator_get_Entry_m345330700_gshared
loj:__ZNK15dense_hashtableINSt3__24pairIK10KeyWrapperIPK11Il2CppClassEPKcEES6_N6il2cpp5utils11PointerHashIS3_EEN14dense_hash_mapIS6_S9_SE_NS6_14EqualsComparerINS0_8equal_toIS5_EEEENS0_9allocatorISA_EEE9SelectKeyESJ_SL_E12test_deletedERK24dense_hashtable_iteratorISA_S6_SE_SN_SJ_SL_E
sCg:__ZL53HMACSHA256_t2622794722_CustomAttributesCacheGeneratorP21CustomAttributesCache
O3b:__ZNK25CameraStackRenderingState24ResolveTempToEyeTexturesEv
m2b:__Z13IsNodeVisibleRK9SceneNodeRK4AABBRK22SceneCullingParameters
Rdh:_EventInfo__ctor_m1190141300
_8h:_InternalEnumerator_1_MoveNext_m3585886944_gshared
$ed:__ZN13dynamic_arrayIS_I8Vector2fLj4EELj4EE6insertEPS1_PKS1_S5_
Wld:__Z57RectTransformUtility_CUSTOM_INTERNAL_CALL_PixelAdjustRectP12Il2CppObjectS0_R5RectTIfE
k3b:__Z24ScheduleCullingAllGroupsR8JobFenceRK22SceneCullingParametersiRK13CullingOutputRK13dynamic_arrayIP12CullingGroupLj4EERKS_
O7f:_DelayedFixupRecord_FixupImpl_m4249966635
pfk:_emscripten_glStencilMask__wrapper
Glj:__ZN15dense_hashtableI10KeyWrapperIPK19Il2CppGenericMethodES4_N6il2cpp8metadata23Il2CppGenericMethodHashEN14dense_hash_setIS4_S7_NS4_14EqualsComparerINS6_26Il2CppGenericMethodCompareEEENSt3__29allocatorIS4_EEE8IdentityESB_SE_EC2ERKSH_j
kMe:_BigInteger_ToString_m3837784224
_ne:_Decimal_decimalCompare_m26009298
LJa:__ZNK17ArchiveFileSystem8PositionERK13FileEntryData
tZc:__ZN16NovodexAllocator8allocateEjPKcS1_i
mpe:_DllNotFoundException__ctor_m267198482
Q$b:__Z17PrepareShadowMapsRK11CullResultsRK11ActiveLightRK10MinMaxAABB
A1g:__ZL81U3CMouseDragOutsideRectU3Ec__Iterator1_t2599668326_CustomAttributesCacheGeneratorP21CustomAttributesCache
khg:_NativeEventCalls_CreateEvent_internal_m1605829321
uff:_List_1_GetIndex_m3409004147_gshared
kRg:__ZL73RuntimePlatform_t1869584967_CustomAttributesCacheGenerator_MetroPlayerX64P21CustomAttributesCache
d4i:__ZL24UnresolvedVirtualCall_13P12Il2CppObjectaPK10MethodInfo
Sci:_InternalEnumerator_1_System_Collections_IEnumerator_get_Current_m3239681450_AdjustorThunk
hob:__ZNSt3__26vectorIN9ShaderLab20SerializedSubProgram15VectorParameterENS_9allocatorIS3_EEEC2ERKS6_
m0b:__ZN9ShaderLab10GrabPassesD2Ev
y9a:__ZN14Texture2DArray13UploadTextureEv
TEd:_SecurityFrame_t1002202659_marshal_pinvoke
g5c:_tt_cmap14_done
Ujb:__ZN18AwakeFromLoadQueue25RegisterObjectInstanceIDsEv
WLg:__ZL75Camera_t189460977_CustomAttributesCacheGenerator_Camera_get_main_m881971336P21CustomAttributesCache
n5d:_Buffer_BlockCopy_m1586717258
SBg:__ZL93X509Certificate_t283079845_CustomAttributesCacheGenerator_X509Certificate_GetName_m2354987368P21CustomAttributesCache
pC:__ZNK27AnimationLayerMixerPlayable11DerivesFromE17ScriptingClassPtr
x$c:__ZN20TextRenderingPrivate19NativeTextGenerator15InsertCharacterEiPj
Wai:_InternalEnumerator_1__ctor_m3589241961_AdjustorThunk
Dse:_CompareInfo_GetSortKey_m3691382873
j9h:_InternalEnumerator_1_MoveNext_m1791963761_AdjustorThunk
yMc:__ZN11b2RopeJoint24SolveVelocityConstraintsERK12b2SolverData
Wme:_DBNull_ToString_m3228904745
EXf:_WebHeaderCollection_AddWithoutValidate_m1479880592
efj:_Physics2D_Raycast_m608778191
HAd:_SHA1Managed_HashCore_m2658295635
YA:__ZN17AnimationPlayableD0Ev
mKf:_RC4_get_IV_m506011366
sJi:_X509Crl__ctor_m2469408229
YFb:__Z18Transfer_BlittableI19StreamedBinaryWriteILb0EELb0EyEvRK29SerializationCommandArgumentsR31RuntimeSerializationCommandInfo
czg:__ZL82SafeHandle_t2733794115_CustomAttributesCacheGenerator_SafeHandle_Close_m1146946803P21CustomAttributesCache
kUh:_Enumerator_get_CurrentValue_m3562053380_AdjustorThunk
n0f:_X509SubjectKeyIdentifierExtension_CopyFrom_m136762226
ZSg:__ZL86Logger_t3328995178_CustomAttributesCacheGenerator_Logger_get_filterLogType_m3137240955P21CustomAttributesCache
Xbf:_Enumerator_System_Collections_IEnumerator_Reset_m610822832_AdjustorThunk
r1c:__ZN20TextRenderingPrivate15DynamicFontData21GetFontMetricsForFaceERK13dynamic_arrayIN4core17string_with_labelILi35EEELj4EEiRKS1_I4PPtrIN13TextRendering4FontEELj4EEPfSF_
r0c:_UNITY_FT_Open_Face
gbk:_glGenRenderbuffers__wrapper
fNe:_BigInteger_op_Division_m1581119694
a9f:_CallbackHandler_Invoke_m1498072969
cwd:_DSACryptoServiceProvider__ctor_m701823690
uGh:__Z74RuntimeInvoker_Void_t1841601450_Int32_t2071877448_ResourceInfo_t3933049236PFvvEPK10MethodInfoPvPS4_
e7g:_CustomAttributeData_GetCustomAttributes_m2421330738
JRf:_SecurityParameters_set_ClientWriteMAC_m1970377285
S8i:_TextGenerator_GetVerticesInternal_m514005870
FKj:__ZN30dense_hashtable_const_iteratorINSt3__24pairIK10KeyWrapperINS1_IPKcS4_EEEiEES6_24NamespaceAndNamePairHashN14dense_hash_mapIS6_iS9_NS6_14EqualsComparerI26NamespaceAndNamePairEqualsEENS0_9allocatorIS8_EEE9SelectKeyESD_SF_EppEv
Okg:_Type_get_IsEnum_m313908919
vrc:__Z44Register_UnityEngine_Component_get_transformv
jmf:_List_1_Reverse_m3395936565_gshared
ntf:_Collection_1_System_Collections_ICollection_CopyTo_m1335644572_gshared
GH:__ZN12_GLOBAL__N_120ProcessPlayableGraphERN8Animator11AnimatorJobER35AnimationPlayableEvaluationConstantR32AnimationPlayableEvaluationInputR33AnimationPlayableEvaluationOutputPFvS4_R17AnimationPlayableEPFvS4_S6_S8_EPFvS8_S4_S6_S8_fESE_MS9_FvPS3_PS5_PS7_E
ekf:_List_1_CheckMatch_m2830747427_gshared
wSb:__ZN17ArchiveFileSystem12MountArchiveEPKcS1_
Zoe:_StackFrame_GetMethod_m72881026
mEc:__Z18Transfer_BlittableI9JSONWriteLb1E8Vector4fEvRK29SerializationCommandArgumentsR31RuntimeSerializationCommandInfo
Cn:FUNCTION_TABLE_viififiii
xPa:__Z30GetScriptableCullingParametersR6CameraR27ScriptableCullingParameters
UUh:_Enumerator_System_Collections_IEnumerator_Reset_m70453843_gshared
l5a:__ZThn32_NK8Renderer14GetSubsetIndexEi
oph:__Z58RuntimeInvoker_Byte_t3683104436_IntPtr_t_Int32_t2071877448PFvvEPK10MethodInfoPvPS4_
bHe:_Dictionary_2_Do_CopyTo_TisKeyValuePair_2_t1174980068_TisRuntimeObject_m3279061992_gshared
W2g:__ZL59Slider_t297367283_CustomAttributesCacheGenerator_m_MinValueP21CustomAttributesCache
ufc:__ZN13ProduceHelperI15ResourceManagerLb0EE7ProduceE18MemLabelIdentifier18ObjectCreationMode
rma:__ZN9GfxDevice15ImmediateVertexEfff
Lcc:__Z13RegisterClassI8MaterialEvv
lDg:__ZL51Evidence_t1407710183_CustomAttributesCacheGeneratorP21CustomAttributesCache
U3a:__ZNK16LightmapSettings22GetTypeVirtualInternalEv
yUi:_WindowFunction_BeginInvoke_m87819360
VTa:__ZN16GraphicsSettings13AwakeFromLoadE17AwakeFromLoadMode
Kre:_FieldAccessException__ctor_m3893881490
NIc:__ZN8JSONRead21TransferSTLStyleArrayI13dynamic_arrayItLj2EEEEvRT_17TransferMetaFlags
cq:__ZN6Object13AwakeFromLoadE17AwakeFromLoadMode
Oja:__ZN13GfxDeviceGLES15SetStencilStateEPK18DeviceStencilStatei
Mwh:__Z107RuntimeInvoker_Void_t1841601450_Single_t2076509932_Single_t2076509932_Single_t2076509932_Single_t2076509932PFvvEPK10MethodInfoPvPS4_
n1j:_cycle
gJg:__ZL72PKCS12_t1362584795_CustomAttributesCacheGenerator_U3CU3Ef__switchU24map5P21CustomAttributesCache
Jd:_emscripten_glUniform1iv
VSh:_Text_get_preferredHeight_m452532789
xSc:__ZN15b2DistanceProxy3SetEPK7b2Shapei
yGd:_String_System_IConvertible_ToDouble_m3860911722
Avb:__ZN16MemoryFileSystemD2Ev
shi:_InternalEnumerator_1_get_Current_m3732458101_AdjustorThunk
c0h:_Dictionary_2_System_Collections_Generic_ICollectionU3CSystem_Collections_Generic_KeyValuePairU3CTKeyU2CTValueU3EU3E_Contains_m842343255_gshared
GIf:_ARC4Managed__ctor_m2922048522
I$c:__Z17dynamic_pptr_castIP9Texture2D7TextureET_RK4PPtrIT0_E
GBf:_ReadOnlyCollection_1_System_Collections_IList_set_Item_m1272038804_gshared
k8h:_InternalEnumerator_1_System_Collections_IEnumerator_get_Current_m1931522460_AdjustorThunk
eDd:_SecurityPermission_IsEmpty_m1869313067
__f:_X509CertificateCollection__ctor_m3709509050
erc:__Z37Register_UnityEngine_Camera_get_depthv
sQe:_EncryptedPrivateKeyInfo_get_Salt_m2734354394
IOi:_UsedByNativeCodeAttribute__ctor_m3185822159
VM:__ZN13AnimationClip24SetDidModifyClipCallbackEPFvPS_R4ListI8ListNodeI14AnimationStateEEE
Csf:_Collection_1_System_Collections_ICollection_CopyTo_m3896480607_gshared
zMd:_PointerEventData_set_position_m794507622
eCi:_UnityEvent_GetDelegate_m1261032859
kcc:__ZN15ApplicationInfo16GetInstallerNameEv
F8b:__Z23ConvertIntegerToTypePtrItEbPvR14SafeBinaryRead
iI:__ZN7mecanim5human29HumanGetGoalOrientationOffsetENS0_4GoalE
_d:_emscripten_glStencilFunc
M9d:_SynchronizedArrayListWrapper_get_Capacity_m2541698837
Y3i:__ZL23UnresolvedVirtualCall_6P12Il2CppObjectiPK10MethodInfo
F2h:_DefaultComparer_GetHashCode_m3315096533_gshared
vgh:_MonoMethod_MakeGenericMethod_impl_m2063853616
UEd:__Z46il2cpp_codegen_get_marshal_directive_exceptionPKc
Drb:__ZN9ShaderLab20SerializedSubProgram14AddMatrixParamEPKcii15ShaderParamTypei
ee:_glGetActiveUniformBlockName
cVd:_FontData_set_verticalOverflow_m4211463083
Pf:_emscripten_glUniform1fv
VWe:_Guid_AppendByte_m2890893073
z6d:_Char_System_IConvertible_ToType_m3106771703_AdjustorThunk
q2f:_Interval_Intersects_m3480157390_AdjustorThunk
Qtc:__Z39Quaternion_CUSTOM_INTERNAL_CALL_InverseRK11QuaternionfRS_
omi:_GCHandle_Alloc_m1063472408
CS:__ZN4FMOD7Channel20set3DConeOrientationEP11FMOD_VECTOR
V_g:__ZL86StandaloneInputModule_t70867863_CustomAttributesCacheGenerator_m_InputActionsPerSecondP21CustomAttributesCache
tn:FUNCTION_TABLE_iiifii
SUg:__ZL54SkeletonBone_t345082847_CustomAttributesCacheGeneratorP21CustomAttributesCache
Tbg:_CryptoConfig_CreateFromName_m391442950
kcj:_RectTransformUtility_INTERNAL_CALL_PixelAdjustRect_m3338747528
VNj:__ZN6il2cpp2vm12GenericClass11SetupEventsEP11Il2CppClass
bbd:_tt_delta_interpolate
$4c:_tt_cmap12_get_info
zUd:_U3CDelayedDestroyDropdownListU3Ec__Iterator0_Dispose_m3973609370
wJj:__ZN6il2cpp2vm15ReboxIReferenceEP14Il2CppIUnknownP11Il2CppClass
h5e:_StreamWriter_LowLevelWrite_m4205372900
xej:__ZN6il2cpp6icalls8mscorlib6System7Decimal14decimalCompareEP19il2cpp_decimal_reprS5_
YTj:__ZThn4_N6il2cpp2vm13CachedCCWBaseINS0_13ManagedObjectEE7ReleaseEv
Keh:_Module__ctor_m3853650010
cbe:_CollectionBase_System_Collections_IList_get_Item_m2370387510
$M:__ZN29AnimationStateNetworkProvider24GetNetworkAnimationStateER9AnimationP24AnimationStateForNetworki
gBg:__ZL59RemotingException_t109604560_CustomAttributesCacheGeneratorP21CustomAttributesCache
LFe:_Array_Sort_TisCustomAttributeNamedArgument_t94157543_m3436077809_gshared
sck:_glCopyTexImage2D__wrapper
N$d:_LayoutElement__ctor_m789941073
TXc:__ZN16PhysicsManager2D11CreateWorldERK8Vector2f
tyg:__ZL68TargetInvocationException_t4098620458_CustomAttributesCacheGeneratorP21CustomAttributesCache
mIg:__ZL56RankException_t1539875949_CustomAttributesCacheGeneratorP21CustomAttributesCache
F4:__GLOBAL__sub_I_runtime_graphics_billboard_0_cpp
rQb:__Z18ClearByDrawingQuad13GfxClearFlagsRK10ColorRGBAffjR17ShaderPassContext
$oi:_DynamicPropertyCollection_FindProperty_m1233265924
hva:__ZN6prcoreL17RemapGenericFloatI14TexFormatRHalf15TexFormatRFloatEEvPKNS_9InnerInfoE
AWb:__Z16ShouldUseShadowsb
Qfa:__ZN15DirectorManager21RebuildStageCallbacksEv
EQb:__ZN19RuntimeSceneManager9LoadSceneERKN4core12basic_stringIcNS0_20StringStorageDefaultIcEEEES6_S6_RK9UnityGUIDiNS_11LoadingModeE
Zdd:__ZN21TilemapRefCountedDataI10ColorRGBAfE8TransferI14SafeBinaryReadEEvRT_
v4i:__ZL24UnresolvedVirtualCall_31P12Il2CppObjectiS0_S0_PK10MethodInfo
eYg:__ZL115CanvasRenderer_t261436805_CustomAttributesCacheGenerator_CanvasRenderer_INTERNAL_CALL_EnableRectClipping_m610385697P21CustomAttributesCache
rwa:__ZN7ApiGLES10DrawArraysE16GfxPrimitiveTypejjj
aQ:__ZN10SampleClip13LoadBaseSoundEv
SMi:_RectOffset_get_left_m1496351507
Cph:__Z49RuntimeInvoker_TimeSpan_t3430258949_RuntimeObjectPFvvEPK10MethodInfoPvPS4_
rZ:__Z57AudioSource_CUSTOM_INTERNAL_CALL_ClearExtensionPropertiesP12Il2CppObjectRK12PropertyName
rx:__ZN7mecanim9animation4Clip8TransferI19StreamedBinaryWriteILb0EEEEvRT_
YMj:__ZN15dense_hashtableINSt3__24pairIK10KeyWrapperIP12Il2CppObjectEN6il2cpp2gc9CachedCCWEEES5_NS7_5utils11PointerHashIS3_EEN14dense_hash_mapIS5_S9_SD_NS5_14EqualsComparerINS0_8equal_toIS4_EEEENS0_9allocatorISA_EEE9SelectKeyESI_SK_E15insert_noresizeERKSA_
xwf:_Collection_1_Contains_m643401393_gshared
FYg:__ZL94CustomEventData_t1269126727_CustomAttributesCacheGenerator_CustomEventData_AddChar_m2955651223P21CustomAttributesCache
n0a:__ZN22DeviceMVPMatricesStateC2ER9GfxDevice
vPg:__ZL111Object_t1021602117_CustomAttributesCacheGenerator_Object_DestroyImmediate_m3250094537____allowDestroyingAssets1P21CustomAttributesCache
qGd:_String__ctor_m372528291
cn:FUNCTION_TABLE_iifii
S7a:__ZNSt3__26vectorI13dynamic_arrayI8Vector2fLj4EENS_9allocatorIS3_EEE6assignINS_11__wrap_iterIPS3_EEEENS_9enable_ifIXaasr21__is_forward_iteratorIT_EE5valuesr16is_constructibleIS3_NS_15iterator_traitsISC_E9referenceEEE5valueEvE4typeESC_SC_
$3a:__ZN21EnlightenSceneMapping8TransferI14SafeBinaryReadEEvRT_
gCi:_UnityEvent_FindMethod_Impl_m947332673
vIa:__ZNSt3__26__treeIiNS_4lessIiEE13stl_allocatorIiL18MemLabelIdentifier1ELi16EEE7destroyEPNS_11__tree_nodeIiPvEE
nc:invoke_viiifi
OQg:__ZL139AttributeHelperEngine_t958797062_CustomAttributesCacheGenerator_AttributeHelperEngine_GetParentTypeDisallowingMultipleInclusion_m3087158272P21CustomAttributesCache
f8e:_LongComparer_Compare_m3981323622
Hrj:__ZNSt3__214__split_bufferIP11Il2CppClassRNS_9allocatorIS2_EEEC2EjjS5_
HRd:_ContentSizeFitter_get_horizontalFit_m892469688
L4g:__ZL109LayoutUtility_t4076838048_CustomAttributesCacheGenerator_LayoutUtility_U3CGetFlexibleHeightU3Em__7_m947156537P21CustomAttributesCache
IPe:__ZN23InterfaceActionInvoker2IP8String_tP12Il2CppObjectE6InvokeEjP11Il2CppClassS3_S1_S3_
KRh:_Slider_FindSelectableOnUp_m15474611
wIa:__ZNK11AssetBundle14GetPreloadDataEiR13dynamic_arrayIiLj4EE
ARe:_EncryptedData_get_EncryptedContent_m2732115576
ZRi:_Vector3__ctor_m2761639014
of:_JS_Sound_SetPosition
kti:_Assertion_set_FalseExpression_m1781616372
j0f:_X509SubjectKeyIdentifierExtension_FromHexChars_m2515150420
wYa:__ZN19RenderBufferManager13GetTempBufferEii17DepthBufferFormat19RenderTextureFormatj22RenderTextureReadWrite14VRTextureUsagei23RenderTextureMemoryless
uoj:__ZL13GetSharedInstPK17Il2CppGenericInst
wtg:__ZL51IReflect_t3412036974_CustomAttributesCacheGeneratorP21CustomAttributesCache
zOd:_StandaloneInputModule_SendSubmitEventToSelectedObject_m3421155293
wXc:__ZN13ProduceHelperI10Collider2DLb1EE7ProduceE18MemLabelIdentifier18ObjectCreationMode
iLi:_Quaternion_Equals_m798965363_AdjustorThunk
L1b:__Z17PrepareSceneNodesP11CullResults
lbj:_Canvas_get_sortingLayerID_m137448982
Nqi:_CallContextRemotingData_Clone_m2226242476
_8:__Z63ThreadAndSerializationSafeCheckSetMonoBehaviourBeingTransferredP13MonoBehaviour
s0b:__Z24SetupActiveLightsContextR21ActiveLightingContextRK12ActiveLightsRK11CullResultsP14ShadowMapCacheRK10MinMaxAABB
T0h:_Dictionary_2_System_Collections_Generic_ICollectionU3CSystem_Collections_Generic_KeyValuePairU3CTKeyU2CTValueU3EU3E_Contains_m3400497673_gshared
vvc:__Z38Sprite_CUSTOM_INTERNAL_get_textureRectP12Il2CppObjectP5RectTIfE
Tme:_DBNull_System_IConvertible_ToUInt32_m2681284284
Sv:__ZNSt3__26vectorIN13AnimationClip15QuaternionCurveE13stl_allocatorIS2_L18MemLabelIdentifier26ELi16EEE7reserveEj
Poc:__ZN9TextAsset7SetTextERKN4core12basic_stringIcNS0_20StringStorageDefaultIcEEEE
nSa:__ZN6Camera8TransferI24GenerateTypeTreeTransferEEvRT_
x5h:_EqualityComparer_1__cctor_m416314417_gshared
Ja:invoke_iiiiiiif
Fa:invoke_iiiiiiii
C_f:_X509ChainElementCollection_Contains_m3599995067
L3b:__ZN8Renderer17PendingAddToSceneEv
jgk:b123
igk:b122
lgk:b125
kgk:b124
ngk:b127
mgk:b126
pgk:b129
Huc:__Z52Register_UnityEngine_RectTransform_INTERNAL_get_rectv
R7:__Z21PostprocessStacktracePKcRN4core12basic_stringIcNS1_20StringStorageDefaultIcEEEE
plf:_List_1_ToArray_m2390522926_gshared
lzg:__ZL70TypeLibImportClassAttribute_t2390314680_CustomAttributesCacheGeneratorP21CustomAttributesCache
Ghb:__ZN18StreamedBinaryReadILb0EE21TransferSTLStyleArrayI13dynamic_arrayI16SplashScreenLogoLj4EEEEvRT_17TransferMetaFlags
Zqb:__ZNSt3__26vectorIPN9ShaderLab9SubShaderENS_9allocatorIS3_EEE21__push_back_slow_pathIKS3_EEvRT_
Ave:_Array_InternalArray__ICollection_Remove_TisX509ChainStatus_t4278378721_m4127982424_gshared
orc:__Z47Register_UnityEngine_Camera_get_allCamerasCountv
TXg:__ZL92Canvas_t209405766_CustomAttributesCacheGenerator_Canvas_GetDefaultCanvasMaterial_m4265316988P21CustomAttributesCache
awd:___clang_call_terminate
OD:__ZThn148_NK26AnimatorControllerPlayable24HasStateMachineBehaviourEv
Zod:__ZN22BaseUnityConnectClient20StartEventDispatcherEv
Ulc:__ZNSt3__26vectorIj13stl_allocatorIjL18MemLabelIdentifier1ELi16EEE6assignIPKtEENS_9enable_ifIXaasr21__is_forward_iteratorIT_EE5valuesr16is_constructibleIjNS_15iterator_traitsIS9_E9referenceEEE5valueEvE4typeES9_S9_
YG:__ZN7mecanim9animation16EvaluateAvatarIKEPKNS0_14AvatarConstantEPKNS0_11AvatarInputEPNS0_12AvatarOutputEPNS0_12AvatarMemoryEPNS0_15AvatarWorkspaceEb
Rwa:__ZL25ProgramUniformMatrix4x3fvPK7ApiGLESjiihPKv
Y7b:__Z29StdTemplateConversionFunctionIsiEbPvR14SafeBinaryRead
JTb:__ZN12InputManager13InputEndFrameEv
ANc:__ZN15b2RevoluteJointC2EPK18b2RevoluteJointDef
Uqj:__ZNSt3__26__treeIP11Il2CppClassNS_4lessIS2_EENS_9allocatorIS2_EEE25__emplace_unique_key_argsIS2_JRKS2_EEENS_4pairINS_15__tree_iteratorIS2_PNS_11__tree_nodeIS2_PvEEiEEbEERKT_DpOT0_
fFj:__ZN6il2cpp2vm6Thread5SetupEP12Il2CppThread
REf:_ReadOnlyCollection_1_System_Collections_IList_Remove_m2200089035_gshared
xsf:_Collection_1_CheckWritable_m2756357359_gshared
s2j:___munmap
gZd:_InputField_get_characterLimit_m2386380888
H$g:__ZL68ColorBlock_t2652774230_CustomAttributesCacheGenerator_m_PressedColorP21CustomAttributesCache
mie:_Convert_ToInt64_m1722087499
fg:_localtime_r
mFg:__ZL81AppDomain_t2719102437_CustomAttributesCacheGenerator_assembly_resolve_in_progressP21CustomAttributesCache
Zyg:__ZL65InterfaceTypeAttribute_t4113096249_CustomAttributesCacheGeneratorP21CustomAttributesCache
ig:_strftime
hza:__ZN7Texture33SetStoredColorSpaceNoDirtyNoApplyE17TextureColorSpace
zca:__ZN12FileAccessorD2Ev
qSa:__ZN10ColorRGBAf8TransferI18StreamedBinaryReadILb0EEEEvRT_
zWa:__ZN14VertexDataInfoC2Ev
iQj:__ZN6il2cpp2gc16GarbageCollector14CollectALittleEv
Bbi:_InternalEnumerator_1_get_Current_m2415979394_gshared
fIb:__ZL17Transfer_GUIStyleI18StreamedBinaryReadILb1EELb1EEvRK29SerializationCommandArgumentsR31RuntimeSerializationCommandInfo
KOh:_ScrollRect_SetDirtyCaching_m1491302821
nrj:__ZN6il2cpp6icalls8mscorlib6SystemL9IsPrivateEPK12PropertyInfo
STg:__ZL100Physics2D_t2540166467_CustomAttributesCacheGenerator_Physics2D_GetRigidbodyFromInstanceID_m299234688P21CustomAttributesCache
kVg:__ZL122AudioListener_t1996719162_CustomAttributesCacheGenerator_AudioListener_INTERNAL_CALL_ReadExtensionPropertyName_m3421262708P21CustomAttributesCache
g7g:_CustomAttributeData_GetCustomAttributes_m3258419955
HEi:_Matrix4x4_GetColumn_m83396621
f7:__ZN9shadertag10InitializeEv
NWb:__ZN13BatchRenderer20RenderSingleWithPassER17ShaderPassContextPK18SharedMaterialDataP6ShaderPN9ShaderLab4PassEiPKNS7_10GrabPassesEjib15BatchBreakCause
pHh:__Z71RuntimeInvoker_CustomAttributeNamedArgument_t94157543_Int32_t2071877448PFvvEPK10MethodInfoPvPS4_
Ucg:_EncoderFallback__ctor_m1639180960
Gii:_InternalEnumerator_1_MoveNext_m1441038493_gshared
H6a:__ZN15QualitySettings14QualitySetting8TransferI24GenerateTypeTreeTransferEEvRT_
RBe:_Array_InternalArray__ICollection_CopyTo_TisParameterModifier_t1820634920_m4127516211_gshared
Jcg:_DecoderReplacementFallback__ctor_m2344783488
xaf:_OutOfMemoryException__ctor_m239206850
cPi:_Sprite_get_rect_m3985037234
BVd:_GraphicRegistry_UnregisterGraphicForCanvas_m820096873
xcd:__Z28Font_Get_Custom_PropMaterialP12Il2CppObject
lZg:__ZL65EventTrigger_t1967201810_CustomAttributesCacheGenerator_delegatesP21CustomAttributesCache
zKc:__ZL34CleanupModule_PerformanceReportingv
Mtf:_Collection_1_Remove_m4136193368_gshared
lLd:_EventTrigger_OnPointerUp_m2791622548
fHh:__Z60RuntimeInvoker_DictionaryEntry_t3048875398_Int32_t2071877448PFvvEPK10MethodInfoPvPS4_
TQh:_Shadow_set_useGraphicAlpha_m141905402
xkc:__ZN22BlockMemoryCacheWriter14LockCacheBlockEjPPhS1_
WQj:__ZN6il2cpp2os6Thread10RunWrapperEPv
eAc:__ZNSt3__218__insertion_sort_3IRPFbPKN5IMGUI9GUIWindowES4_EPPS2_EEvT0_SA_T_
z1i:_GenericEqualityComparer_1_Equals_m1109000020_gshared
RWg:__ZL61GUISkin_t1436893342_CustomAttributesCacheGenerator_m_textAreaP21CustomAttributesCache
Nah:_GenericTypeParameterBuilder_HasElementTypeImpl_m2592272488
YHc:__Z22TransferField_NonArrayI8JSONRead27Converter_SimpleNativeClassI8GUIStyleEEvRK23StaticTransferFieldInfoR31RuntimeSerializationCommandInfoRT0_
Ilj:__ZN15dense_hashtableI10KeyWrapperIPK19Il2CppGenericMethodES4_N6il2cpp8metadata23Il2CppGenericMethodHashEN14dense_hash_setIS4_S7_NS4_14EqualsComparerINS6_26Il2CppGenericMethodCompareEEENSt3__29allocatorIS4_EEE8IdentityESB_SE_E16reset_thresholdsEv
lff:__ZN23InterfaceActionInvoker2IP24ObjectU5BU5D_t3614634134iE6InvokeEjP11Il2CppClassP12Il2CppObjectS1_i
Og:_llvm_eh_typeid_for
Ccc:__Z13RegisterClassI10GameObjectEvv
Nmj:__ZNK15dense_hashtableINSt3__24pairIK10KeyWrapperIN6il2cpp5utils13dynamic_arrayIPK10Il2CppTypeLj4EEEEPFvvEEESA_NS3_8metadata19Il2CppSignatureHashEN14dense_hash_mapISA_SD_SG_NSA_14EqualsComparerINSF_22Il2CppSignatureCompareEEENS0_9allocatorISE_EEE9SelectKeyESK_SM_E5beginEv
_ug:__ZL53HashValues_t2390200547_CustomAttributesCacheGeneratorP21CustomAttributesCache
mZf:_X509BasicConstraintsExtension_get_PathLengthConstraint_m3004531343
JE:__ZNK23AnimationPlayableOutput7GetTypeEv
Kwg:__ZL125GenericTypeParameterBuilder_t1370236603_CustomAttributesCacheGenerator_GenericTypeParameterBuilder_GetConstructors_m103067670P21CustomAttributesCache
_Vi:_GUIUtility_BeginGUI_m2381890998
o7e:_MissingMemberException__ctor_m4277447068
sff:_List_1_Find_m1881447651_gshared
vVf:_NameValueCollection__ctor_m1767369537
uKb:__Z18Transfer_BlittableI18StreamedBinaryReadILb0EELb1E8Vector4fEvRK29SerializationCommandArgumentsR31RuntimeSerializationCommandInfo
H0i:_EqualityComparer_1__ctor_m3155445483_gshared
sPj:__ZN6il2cpp2vm6Method8GetParamEPK10MethodInfoj
Y_e:_Int64_CompareTo_m1953686218
W0i:_GenericComparer_1__ctor_m221205314_gshared
lBh:__Z31RuntimeInvoker_Axis_t2427050347PFvvEPK10MethodInfoPvPS4_
Rek:_glBindVertexArray__wrapper
Rvd:_DSA_Create_m3450041777
B_a:__ZN8Material8TransferI14SafeBinaryReadEEvRT_
B1a:__ZN12CubemapArray17UploadToGfxDeviceEv
kPh:_ScrollRect_AdjustBounds_m1033723448
B6b:__ZN18ScreenManagerWebGL13SetShowCursorEb
txf:_Collection_1_get_Item_m3791221403_gshared
CCg:__ZL54PaddingMode_t3032142640_CustomAttributesCacheGeneratorP21CustomAttributesCache
REj:__ZN24dense_hashtable_iteratorINSt3__24pairIK10KeyWrapperIP11Il2CppClassES4_EES5_N6il2cpp8metadata16SZArrayClassHashEN14dense_hash_mapIS5_S4_SA_NS5_14EqualsComparerINS9_19SZArrayClassCompareEEENS0_9allocatorIS7_EEE9SelectKeyESE_SG_E30advance_past_empty_and_deletedEv
Mda:__ZN13RuntimeStaticI21AssetReferenceStorageLb0EE16StaticInitializeEPv
Cea:__ZN15dense_hashtableINSt3__24pairIKiiEEi21InstanceIDHashFunctorN14dense_hash_mapIiiS4_NS0_8equal_toIiEE13stl_allocatorIS3_L18MemLabelIdentifier67ELi16EEE9SelectKeyES7_SA_E14squash_deletedEv
_Zf:_X509Chain_CheckRevocationOnChain_m2441901351
RTj:__ZN6il2cpp2vm13ManagedObject14QueryInterfaceERK10Il2CppGuidPPv
Gv:__ZNSt3__26vectorI24CompressedAnimationCurve13stl_allocatorIS1_L18MemLabelIdentifier26ELi16EEE6assignINS_11__wrap_iterIPS1_EEEENS_9enable_ifIXaasr21__is_forward_iteratorIT_EE5valuesr16is_constructibleIS1_NS_15iterator_traitsISB_E9referenceEEE5valueEvE4typeESB_SB_
rlg:_Type_GetMethod_m3650909507
yQ:__ZN11AudioSource4StopEb
V0j:_frexp
$zb:__ZN14SafeBinaryRead21TransferSTLStyleArrayI13dynamic_arrayI10Matrix4x4fLj4EEEEvRT_17TransferMetaFlags
yxf:_Collection_1_CheckWritable_m732350052_gshared
cTa:__ZN15LODGroupManager26CollectAllLODGroupManagersERK16CoreCameraValuesR13dynamic_arrayIPS_Lj4EEb
A5d:_Byte_System_IConvertible_ToDecimal_m1036493607
dFg:__ZL47Timer_t791717973_CustomAttributesCacheGeneratorP21CustomAttributesCache
$Pb:__Z25GetSplashScreenBackgroundRK5RectTIfE
I9h:_InternalEnumerator_1_System_Collections_IEnumerator_get_Current_m1679297177_gshared
O0g:__ZL65Image_t2042527209_CustomAttributesCacheGenerator_m_PreserveAspectP21CustomAttributesCache
cji:_DefaultComparer_Compare_m1247109616_gshared
Hki:_ResourceManager__ctor_m498829021
XBa:__ZN18GlslGpuProgramGLESD2Ev
$5b:__ZN13RenderTexture14SetVolumeDepthEi
qEh:__Z88RuntimeInvoker_Int32_t2071877448_UIVertex_t1204258818_UIVertex_t1204258818_RuntimeObjectPFvvEPK10MethodInfoPvPS4_
b9f:_SerializationCallbacks__ctor_m722356782
CIc:__ZN10Matrix4x4f8TransferI8JSONReadEEvRT_
v_c:__ZN14SafeBinaryRead21TransferSTLStyleArrayI13dynamic_arrayIN4core17string_with_labelILi35EEELj4EEEEvRT_17TransferMetaFlags
eMi:_Rect_set_width_m2294291744
CRc:__ZThn4_N16PhysicsManager2D9PostSolveEP9b2ContactPK16b2ContactImpulse
_yg:__ZL49Marshal_t785896760_CustomAttributesCacheGeneratorP21CustomAttributesCache
O8:__ZN17PersistentManager18ReadObjectThreadedEi
hoa:__ZN25TransformFeedbackSkinning31CleanupTransformFeedbackShadersEv
TSa:__Z22scripting_object_unbox18ScriptingObjectPtr
z$c:__ZNK20TextRenderingPrivate8FontImpl19GetCharacterAdvanceEjijfPj
YZj:__ZN6il2cpp6icalls8mscorlib4Mono8Security12Cryptography18KeyPairPersistence16_IsUserProtectedEP12Il2CppString
NCf:_ReadOnlyCollection_1_Contains_m3936562733_gshared
MVf:_DefaultUriParser__ctor_m4218024811
F8g:_DerivedType_GetField_m3960169619
tne:_Decimal_System_IConvertible_ToInt16_m3159038792_AdjustorThunk
Nih:__Z59RuntimeInvoker_Int64_t909078037_RuntimeObject_RuntimeObjectPFvvEPK10MethodInfoPvPS4_
VHh:__Z41RuntimeInvoker_KeyValuePair_2_t3716250094PFvvEPK10MethodInfoPvPS4_
v8a:__ZN10VertexData8TransferI18StreamedBinaryReadILb0EEEEvRT_
tyh:__Z73RuntimeInvoker_Single_t2076509932_Vector4_t2243707581_Vector4_t2243707581PFvvEPK10MethodInfoPvPS4_
dSe:_PKCS12_GetExistingParameters_m2413397265
gjh:__Z111RuntimeInvoker_Boolean_t3825574718_RuntimeObject_SByte_t454417549_SByteU26_t3920581883_ExceptionU26_t1467204777PFvvEPK10MethodInfoPvPS4_
Lvf:_Collection_1_ClearItems_m4268731177_gshared
Ejb:__ZN14PreloadManager16UpdatePreloadingEv
hPa:__ZN12BaseRendererD2Ev
hHi:_X509CertificateCollection__ctor_m858704242
Ldf:_Enumerator__ctor_m425576865_AdjustorThunk
OEf:_ReadOnlyCollection_1_System_Collections_IList_Contains_m1545447998_gshared
nRj:__ZN14dense_hash_mapI10KeyWrapperIPK19Il2CppGenericMethodEP10MethodInfoN6il2cpp8metadata23Il2CppGenericMethodHashENS4_14EqualsComparerINS8_26Il2CppGenericMethodCompareEEENSt3__29allocatorINSD_4pairIKS4_S6_EEEEEC2EjRKS9_RKSC_
Ezi:_Color32_op_Implicit_m3337994915
S2:__ZNK21UnityDefaultAllocatorI17LowLevelAllocatorE8ContainsEPKv
Epj:__ZNSt3__213__vector_baseI6pollfdNS_9allocatorIS1_EEED2Ev
UNf:_ClientSessionInfo_get_Id_m3046630969
Yh:_emscripten_get_main_loop_timing
p1e:_DirectoryInfo__ctor_m3750996792
QPd:_BaseMeshEffect_ModifyMesh_m2134816219
WEe:_Array_qsort_TisVector2_t2243707579_m3527759534_gshared
G6a:__ZN24GenerateTypeTreeTransfer21TransferSTLStyleArrayINSt3__26vectorIN15QualitySettings14QualitySettingENS1_9allocatorIS4_EEEEEEvRT_17TransferMetaFlags
Heb:__ZNSt3__26vectorI14SubstanceInputNS_9allocatorIS1_EEE8__appendEj
fOi:_ResourceRequest_t2560315377_marshal_pinvoke_cleanup
zlf:_List_1_System_Collections_Generic_IEnumerableU3CTU3E_GetEnumerator_m166627113_gshared
Kfb:__ZNSt3__26vectorI9InputAxisNS_9allocatorIS1_EEE6resizeEj
pye:__ZN21InterfaceFuncInvoker2Ii19Vector2_t2243707579S0_E6InvokeEjP11Il2CppClassP12Il2CppObjectS0_S0_
UWb:__ZN13BatchRendererC2ER15RenderLoopStatsRK15RenderNodeQueuebbb
lDd:_SecurityElement_IsValidAttributeValue_m483287146
WOi:_FormerlySerializedAsAttribute__ctor_m3044655632
Tsb:__ZNK2UI13RectTransform22GetTypeVirtualInternalEv
qFg:__ZL56AppDomainSetup_t611332832_CustomAttributesCacheGeneratorP21CustomAttributesCache
op:getTempRet0
eDh:__Z79RuntimeInvoker_Boolean_t3825574718_ContentTypeU26_t1802785839_Int32_t2071877448PFvvEPK10MethodInfoPvPS4_
y6g:_AssemblyTitleAttribute__ctor_m1696431446
KYi:_UnityEvent_1_RemoveListener_m2146288709_gshared
qYd:_Image_AddQuad_m1603575622
TRj:__ZN24dense_hashtable_iteratorINSt3__24pairIK10KeyWrapperIPK19Il2CppGenericMethodEP10MethodInfoEES6_N6il2cpp8metadata23Il2CppGenericMethodHashEN14dense_hash_mapIS6_S9_SD_NS6_14EqualsComparerINSC_26Il2CppGenericMethodCompareEEENS0_9allocatorISA_EEE9SelectKeyESH_SJ_E30advance_past_empty_and_deletedEv
hKf:_PrivateKeyInfo_RemoveLeadingZero_m3396807048
fzf:_ReadOnlyCollection_1_System_Collections_Generic_ICollectionU3CTU3E_get_IsReadOnly_m1251192075_gshared
jff:_List_1_GrowIfNeeded_m185971996_gshared
CGj:__ZN6il2cpp6icalls8mscorlib6System9ThreadingL21lookup_cached_cultureEP12Il2CppThreadi
l1b:__ZN18DeferredRenderLoopD2Ev
Kah:_GenericTypeParameterBuilder_GetMethods_m1243855818
MEa:__ZNK16TypeTreeIterator4NameEv
A2i:_PCMReaderCallback_Invoke_m877950113
ISg:__ZL90PlayableBinding_t2498078091_CustomAttributesCacheGenerator_U3CstreamTypeU3Ek__BackingFieldP21CustomAttributesCache
Zba:__ZN15FileSystemEntry3SetEPKc
Ntj:_il2cpp_method_has_attribute
fii:_InternalEnumerator_1__ctor_m2808001655_gshared
Lxd:_MACTripleDES__ctor_m884945242
bOi:_RenderTexture_get_height_m428170183
lVi:_GUILayoutGroup_SetHorizontal_m4089360220
lS:__ZN20SoundChannelInstance15ParameterBuffer5ApplyEPN4FMOD7ChannelE
Q4i:__ZL24UnresolvedVirtualCall_52P12Il2CppObjectPK10MethodInfo
w$c:__ZN20TextRenderingPrivate19NativeTextGenerator9InsertTabEv
Krg:__ZL73Enum_t2459695545_CustomAttributesCacheGenerator_Enum_ToObject_m1688724857P21CustomAttributesCache
ku:__ZN15SerializeTraitsI13dynamic_arrayIN11UnityEngine9Animation14GenericBindingELj4EEE19ResizeSTLStyleArrayERS4_i
Nab:__ZN14SafeBinaryRead21TransferSTLStyleArrayI13dynamic_arrayI16BlendShapeVertexLj4EEEEvRT_17TransferMetaFlags
ypd:__ZN11UnityEngine15PlatformWrapper24GetRuntimePlatformStringEv
Hi:_glIsEnabled
Dmb:__ZN15CacheWriterBaseD2Ev
Z2g:__ZL56Slider_t297367283_CustomAttributesCacheGenerator_m_ValueP21CustomAttributesCache
Ryb:__Z25scripting_class_get_image17ScriptingClassPtr
bKi:_PlayableAsset_Internal_CreatePlayable_m2166162235
mjb:__ZNSt3__26vectorIN4core12basic_stringIcNS1_20StringStorageDefaultIcEEEE13stl_allocatorIS5_L18MemLabelIdentifier13ELi16EEEC2INS_11__wrap_iterIPS5_EEEET_SE_RKS8_PNS_9enable_ifIXaasr21__is_forward_iteratorISE_EE5valuesr16is_constructibleIS5_NS_15iterator_traitsISE_E9referenceEEE5valueEvE4typeE
Li:_emscripten_glDrawElementsInstanced
zD:__ZN26AnimatorControllerPlayable27SetupStateMachineBehavioursEv
JIf:_ARC4Managed_Dispose_m4102232694
bJf:_HMAC_Initialize_m3052649104
GUa:__ZN18JobBatchDispatcherD2Ev
Osb:__ZN9Transform17MainThreadCleanupEv
vSg:__ZL143UnitySynchronizationContext_t1205147244_CustomAttributesCacheGenerator_UnitySynchronizationContext_InitializeSynchronizationContext_m2786500889P21CustomAttributesCache
uWj:_GC_clear_hdr_marks
P9j:_glScissor__wrapper
Nfk:_emscripten_glCreateShader__wrapper
UYd:_InputField_get_caretSelectPositionInternal_m3523572533
n7c:_cff_fd_select_get
Eyg:__ZL73CompilationRelaxationsAttribute_t238494011_CustomAttributesCacheGeneratorP21CustomAttributesCache
IOg:__ZL86Material_t193706927_CustomAttributesCacheGenerator_Material_GetTextureImpl_m2799453342P21CustomAttributesCache
kN:__Z13RegisterClassI18AnimatorControllerEvv
USh:_Text_get_minHeight_m1562513104
eKe:_MSCompatUnicodeTable_GetTailoringInfo_m2792223347
aVf:_NameObjectCollectionBase_get_Keys_m446053925
Wi:_emscripten_glGetShaderiv
zXh:_Transform_1__ctor_m353209818_gshared
EBh:__Z30RuntimeInvoker_Axis_t375128448PFvvEPK10MethodInfoPvPS4_
lT:__ZN4FMOD6System10getVersionEPj
zze:_Array_InternalArray__IndexOf_TisSByte_t454417549_m1427585061_gshared
jhd:__ZN2UI6Canvas23VirtualRedirectTransferER24GenerateTypeTreeTransfer
gfe:_Decimal_u64_m3991988111
fTi:_YieldInstruction_t3462875981_marshal_pinvoke
uaj:_Predicate_1_BeginInvoke_m2959352225_gshared
BHi:_X509Certificate_Parse_m1764345628
Uhc:__ZN8GUILayer17RemoveFromManagerEv
eGc:__ZN9JSONWrite8TransferIN4math12int2_storageEEEvRT_PKc17TransferMetaFlags
h_c:__ZN13TextRendering4Font13AwakeFromLoadE17AwakeFromLoadMode
pEi:_Mathf_Pow_m1117712374
Cyh:__Z70RuntimeInvoker_Void_t1841601450_Guid_t_RuntimeObject_Int32_t2071877448PFvvEPK10MethodInfoPvPS4_
Yka:__ZN9GfxDevice21ReleaseSharedMeshDataEP14SharedMeshData
rTe:_SmallXmlParser_Peek_m2814840810
zgb:__ZNSt3__27__sort5IRNS_6__lessINS_4pairIPKN5Unity4TypeE7Hash128EES8_EEPS8_EEjT0_SC_SC_SC_SC_T_
Ade:_Enumerator_Reset_m466659019
BVj:_GC_unreachable_finalize_mark_proc
dTi:_WaitForSecondsRealtime_get_keepWaiting_m4138104467
WBh:__Z70RuntimeInvoker_Single_t2076509932_Int32_t2071877448_Single_t2076509932PFvvEPK10MethodInfoPvPS4_
gDh:__Z77RuntimeInvoker_Boolean_t3825574718_InputTypeU26_t4050577942_Int32_t2071877448PFvvEPK10MethodInfoPvPS4_
wtf:_Collection_1_System_Collections_ICollection_get_SyncRoot_m2547259708_gshared
zuc:__Z43RectTransform_CUSTOM_INTERNAL_get_anchorMaxP12Il2CppObjectP13Vector2fIcall
tkh:__Z50RuntimeInvoker_Void_t1841601450_Single_t2076509932PFvvEPK10MethodInfoPvPS4_
sme:_DateTimeOffset_get_DateTime_m229084964_AdjustorThunk
M3a:__ZN8Material28UpdateHashesOnPropertyChangeEN9ShaderLab16FastPropertyNameE
nvc:__Z53Register_UnityEngine_SortingLayer_GetLayerValueFromIDv
L0e:_DirectoryInfo_get_Parent_m1198766078
q6h:_EqualityComparer_1_System_Collections_IEqualityComparer_Equals_m349194518_gshared
Iae:_CaseInsensitiveComparer_Compare_m1192858479
Jxb:__Z18Transfer_BlittableI14SafeBinaryReadLb1E8Vector4fEvRK29SerializationCommandArgumentsR31RuntimeSerializationCommandInfo
w4e:_StreamAsyncResult_set_Done_m4272090534
L0d:_LayoutRebuilder_Clear_m2390054824
Ruf:_Collection_1_System_Collections_IList_Insert_m2968289909_gshared
ina:__ZN13GfxDeviceGLES20SetComputeBufferDataE15ComputeBufferIDPKvjj
S6g:_Default_SelectMethod_m622251293
nV:__ZN11AudioSource12AddToManagerEv
CLd:_ExecuteEvents_Execute_m1429058057
Dqi:_AsyncResult_get_NextSink_m1172723924
eF:__ZN11UnityEngine9Animation32CreateAnimatorGenericBindingsOptERKNS0_20AnimationSetBindingsER9TransformPKN7mecanim9animation14AvatarConstantEPKNS0_21AvatarBindingConstantEbRNS6_6memory9AllocatorER8Animator
cKj:__ZN6il2cpp2vm5Image13ClassFromNameEPK11Il2CppImagePKcS6_
R5j:dynCall_vdddddd
Epb:__ZN24GenerateTypeTreeTransfer21TransferSTLStyleArrayINSt3__26vectorIN9ShaderLab14SerializedPassENS1_9allocatorIS4_EEEEEEvRT_17TransferMetaFlags
F7:__ZL32MarkLevelGameManagerDependenciesR27GarbageCollectorThreadState
pna:__ZNK13GfxDeviceGLES26HasActiveRandomWriteTargetEv
Gak:_glGetActiveUniformsiv__wrapper
kvc:__Z43Register_UnityEngine_Material_EnableKeywordv
W9:__ZN13MonoBehaviour19SetupScriptingCacheE17ScriptingClassPtrP10MonoScript
Xpj:__ZNSt3__214__split_bufferIP12Il2CppThreadRNS_9allocatorIS2_EEED2Ev
lt:__Z20AnimationEventToMonoRK14AnimationEventR18MonoAnimationEvent
z8:__ZNK15dense_hashtableINSt3__24pairIKiiEEi21InstanceIDHashFunctorN14dense_hash_mapIiiS4_NS0_8equal_toIiEE13stl_allocatorIS3_L18MemLabelIdentifier1ELi16EEE9SelectKeyES7_SA_E13find_positionERS2_
k9:__ZN17PersistentManager29ReadAndActivateObjectThreadedEiRK26SerializedObjectIdentifierP14SerializedFilebb
uWh:_ShimEnumerator_get_Current_m3610131784_gshared
bpf:_List_1_Sort_m2158253314_gshared
nSg:__ZL74UnityEventBase_t828812576_CustomAttributesCacheGenerator_m_PersistentCallsP21CustomAttributesCache
rga:__ZZN15DirectorManager15InitializeClassEvEN52PreLateUpdateDirectorUpdateAnimationBeginRegistrator7ForwardEv
y2h:_DefaultComparer__ctor_m2265472997_gshared
AIj:__ZN6il2cpp2vm13LivenessState18ShouldProcessValueEP12Il2CppObjectP11Il2CppClass
sGa:__ZN4PPtrI6SpriteE8TransferI14SafeBinaryReadEEvRT_
AJh:__Z49RuntimeInvoker_UIVertex_t1204258818_RuntimeObjectPFvvEPK10MethodInfoPvPS4_
KL:__ZN7mecanim12statemachine13StateConstant8TransferI18StreamedBinaryReadILb0EEEEvRT_
XDj:__ZN15dense_hashtableINSt3__24pairIK10KeyWrapperIP11Il2CppClassES4_EES5_N6il2cpp8metadata16SZArrayClassHashEN14dense_hash_mapIS5_S4_SA_NS5_14EqualsComparerINS9_19SZArrayClassCompareEEENS0_9allocatorIS7_EEE9SelectKeyESE_SG_E16reset_thresholdsEv
GEi:_Matrix4x4_GetHashCode_m375571566
DWi:_InvokableCall_1__ctor_m1584932671_gshared
$ob:__ZNSt3__26vectorIN9ShaderLab14SerializedPassENS_9allocatorIS2_EEE8__appendEj
qob:__ZNSt3__26vectorIN9ShaderLab20SerializedSubProgram13BufferBindingENS_9allocatorIS3_EEEC2INS_11__wrap_iterIPS3_EEEET_SB_RKS5_PNS_9enable_ifIXaasr21__is_forward_iteratorISB_EE5valuesr16is_constructibleIS3_NS_15iterator_traitsISB_E9referenceEEE5valueEvE4typeE
sRc:__ZNK16PhysicsManager2D21GetAutoSyncTransformsEv
Hyi:_Camera__ctor_m2624089815
v7a:__ZNK13ScreenManager21IsMultiDisplayEnabledEv
fNc:__ZN12b2WheelJoint24SolveVelocityConstraintsERK12b2SolverData
cCh:__Z133RuntimeInvoker_RuntimeObject_Vector2_t2243707579_Vector2_t2243707579_Single_t2076509932_Int32_t2071877448_RuntimeObject_RuntimeObjectPFvvEPK10MethodInfoPvPS4_
t3a:__ZN9Texture2D23VirtualRedirectTransferER18StreamedBinaryReadILb0EE
ZPc:__ZN10Collider2D8TransferI24GenerateTypeTreeTransferEEvRT_
LGi:_ExtendedKeyUsageExtension_Encode_m3429751649
Mpe:_Double_System_IConvertible_ToUInt16_m286326038_AdjustorThunk
j7f:_TypeInfo__ctor_m1475908211
Ckj:__ZN30dense_hashtable_const_iteratorINSt3__24pairIK10KeyWrapperIPKcEP11Il2CppClassEES5_N6il2cpp5utils11StringUtils12StringHasherIS4_EEN14dense_hash_mapIS5_S8_SE_NS5_14EqualsComparerINSB_13VmStringUtils21CaseSensitiveComparerEEENS0_9allocatorIS9_EEE9SelectKeyESJ_SL_E30advance_past_empty_and_deletedEv
bUg:__ZL73g_UnityEngine_TextRenderingModule_Assembly_CustomAttributesCacheGeneratorP21CustomAttributesCache
Daa:__ZN16ScriptingManager27NativeTypeForScriptingClassE17ScriptingClassPtr
$Zf:_X509Chain_WrapUp_m1072032285
WIi:_X509CertificateEnumerator_System_Collections_IEnumerator_MoveNext_m1448966539
t4c:_get_sfnt_table
jtf:_Collection_1_IsSynchronized_m3261594010_gshared
BMd:_PointerEventData_set_pressPosition_m2094137883
_4a:__ZN8Renderer20RendererAddedToSceneEv
pcg:_DES_get_Key_m2584608215
G2b:__ZL22ScheduleSceneNodesJobsP25ScheduleSceneNodesJobDataj
Lk:_emscripten_set_canvas_size
_fd:__ZN15TilemapRenderer15InitializeClassEv
Iob:__ZNSt3__26vectorIN9ShaderLab20SerializedSubProgramENS_9allocatorIS2_EEE8__appendEj
A3:__ZN20DynamicHeapAllocatorI17LowLevelAllocatorE8AllocateEji
gnd:__ZN11UnityEngine9Analytics15UserCustomEvent12ToJsonStringER9JSONWrite
tXb:__ZN20DynamicPropertySheet15SetVectorQueuedERKN9ShaderLab16FastPropertyNameERK8Vector4fN19ShaderPropertySheet8SetFlagsE
YHd:_String_Format_m1263743648
Dsg:__ZL69RuntimeArray_CustomAttributesCacheGenerator_Array_Reverse_m3883292526P21CustomAttributesCache
zCf:_ReadOnlyCollection_1_System_Collections_IEnumerable_GetEnumerator_m4248982967_gshared
gG:__ZN7mecanim9animation22EvaluateAvatarRetargetEPKNS0_14AvatarConstantEPKNS0_11AvatarInputEPNS0_12AvatarOutputEPNS0_12AvatarMemoryEPNS0_15AvatarWorkspaceEb
W0d:_LayoutRebuilder_GetHashCode_m2745108660
wXa:__ZN14RenderSettings23VirtualRedirectTransferER19StreamedBinaryWriteILb0EE
DEc:__ZL26Transfer_SimpleNativeClassI9JSONWrite10RectOffsetLb0EEvRK29SerializationCommandArgumentsR31RuntimeSerializationCommandInfo
zab:__ZN14SafeBinaryRead21TransferSTLStyleArrayI13dynamic_arrayI12BoneWeights4Lj16EEEEvRT_17TransferMetaFlags
VVj:_GC_push_conditional
tnd:__ZN21UnityAnalyticsManager23VirtualRedirectTransferER24GenerateTypeTreeTransfer
qra:__ZN17GenericDynamicVBO10AllocateVBEjR21DynamicVBOChunkHandle
Jgf:_List_1_get_Item_m1547593893_gshared
a1e:_Path_GetPathRoot_m1269357080
Hdd:__ZN7Tilemap19UpdateTileAnimationEv
Hbe:_KeyNotFoundException__ctor_m264393096
QKd:_EventSystem_SetSelectedGameObject_m2211816110
LXh:_Transform_1__ctor_m4161450529_gshared
jl:_glMapBufferRange
l3a:__ZN9Texture2D8TransferI18StreamedBinaryReadILb0EEEEvRT_
ftc:__Z31Input_CUSTOM_GetMouseButtonDowni
muh:__Z41RuntimeInvoker_HandshakeState_t1820731088PFvvEPK10MethodInfoPvPS4_
uuc:__Z75Register_UnityEngine_Playables_PlayableHandle_INTERNAL_CALL_IsValidInternalv
qjc:__ZN13PlayableGraph4PlayEv
ZNa:__ZNK9Transform16GetLocalPositionEv
x1d:_Array_System_Collections_ICollection_get_Count_m2897196527
SHa:__ZN13LoadOperation19IntegrateTimeSlicedEi
V6h:_ArrayReadOnlyList_1_get_Item_m176001975_gshared
P1f:_InterpreterFactory__ctor_m3331468903
KSe:_X501__cctor_m3795360380
Ana:__ZN13GfxDeviceGLES22DispatchComputeProgramE12ObjectHandleI18ComputeProgram_TagPvE15ComputeBufferIDj
hSb:__ZN20DefaultGfxDeviceImpl32InitStereoGlobalsBuffersPlatformEiijPKv
Ht:__ZNK13AnimationClip15GetAverageSpeedEv
fie:_Convert_ToInt32_m2297793940
blb:__Z17TransformAABBSlowRK4AABBRK10Matrix4x4fRS_
RCj:__ZN13Il2CppHashMapINSt3__24pairIPK9FieldInfoP11Il2CppClassEEj17ReflectionMapHashIS7_ENS0_8equal_toIS7_EENS0_9allocatorINS1_IK10KeyWrapperIS7_EjEEEEEC2EjRKS9_RKSB_
rnb:__ZN9ShaderLab21SerializedShaderState8TransferI14SafeBinaryReadEEvRT_
$2j:_ftruncate
oAd:_RSAPKCS1SignatureFormatter_SetKey_m2365816458
OXe:_Int16_GetHashCode_m304503362_AdjustorThunk
i8c:_cf2_stack_pushInt
tJ:__ZN7mecanim9animation20DestroyLayerConstantEPNS0_13LayerConstantERNS_6memory9AllocatorE
LKi:_PropertyName__ctor_m4147171238_AdjustorThunk
$gg:_CompressedStack__ctor_m276924800
dMd:_ExecuteEvents_get_cancelHandler_m1964324668
o$a:__ZN15SerializeTraitsINSt3__24pairIN4core12basic_stringIcNS2_20StringStorageDefaultIcEEEES6_EEE8TransferI24GenerateTypeTreeTransferEEvRS7_RT_
Zck:b89
Yck:b88
hEi:_Mathf_Sin_m712860563
cWg:__ZL70GUISettings_t622856320_CustomAttributesCacheGenerator_m_SelectionColorP21CustomAttributesCache
kSi:_Vector3_Dot_m827632793
qck:b81
pck:b80
xza:__ZN7ApiGLES19CreateSparseTextureEjj14GraphicsFormatiiiiRiS1_S1_
nba:__ZN18ResourceImageGroup7CleanupEv
Gck:b85
Fck:b84
Ock:b87
Nck:b86
Kp:__ZN11Quaternionf8TransferI24GenerateTypeTreeTransferEEvRT_
jGh:__Z68RuntimeInvoker_Void_t1841601450_Int32_t2071877448_Double_t4078015681PFvvEPK10MethodInfoPvPS4_
uhc:__ZN13ProduceHelperI4MeshLb0EE7ProduceE18MemLabelIdentifier18ObjectCreationMode
fKf:_PrivateKeyInfo_Decode_m1053025782
F$f:_X509ChainElementCollection_System_Collections_ICollection_CopyTo_m1467895312
NRe:_PKCS12_Decrypt_m2457743414
H0a:__ZN8Playable19SetOutputConnectionEPS_i
Tjj:__ZN15dense_hashtableINSt3__24pairIK10KeyWrapperIPK11Il2CppClassEPKcEES6_N6il2cpp5utils11PointerHashIS3_EEN14dense_hash_mapIS6_S9_SE_NS6_14EqualsComparerINS0_8equal_toIS5_EEEENS0_9allocatorISA_EEE9SelectKeyESJ_SL_EC2ERKSO_j
Yl:_glDeleteShader
qOg:__ZL88Mesh_t1356156583_CustomAttributesCacheGenerator_Mesh_Internal_Create_m384282753____mono0P21CustomAttributesCache
Cre:_Exception_GetType_m3898489832
pva:__ZN6prcoreL17RemapGenericFloatI15TexFormatRGHalf16TexFormatRGFloatEEvPKNS_9InnerInfoE
hgj:_CustomEventData_InternalCreate_m2399239074
oqf:_Stack_1_Peek_m1548778538_gshared
Ayf:_Collection_1_System_Collections_IList_get_Item_m1995028750_gshared
jVi:_GUILayoutUtility_get_spaceStyle_m4248899869
QQh:_Shadow_set_effectColor_m3110056844
Voc:__Z27scripting_add_internal_callPKcPKv
gDe:_Array_InternalArray__Insert_TisUriScheme_t1876590943_m2728325409_gshared
WWg:__ZL72GUISkin_t1436893342_CustomAttributesCacheGenerator_m_verticalSliderThumbP21CustomAttributesCache
BCj:__ZN13Il2CppHashMapINSt3__24pairIPK9EventInfoP11Il2CppClassEEj17ReflectionMapHashIS7_ENS0_8equal_toIS7_EENS0_9allocatorINS1_IK10KeyWrapperIS7_EjEEEEEC2EjRKS9_RKSB_
oEi:_Mathf_Max_m2902748112
nza:__Z17GetPlayerSettingsv
Tob:__ZNSt3__26vectorIN9ShaderLab20SerializedSubProgram16SamplerParameterENS_9allocatorIS3_EEE6assignIPS3_EENS_9enable_ifIXaasr21__is_forward_iteratorIT_EE5valuesr16is_constructibleIS3_NS_15iterator_traitsISA_E9referenceEEE5valueEvE4typeESA_SA_
HG:__ZN34BlobWriteTransferSTLStyleArrayImplI22OffsetPtrArrayTransferIiEEclERS1_17TransferMetaFlagsR9BlobWrite
hJi:_X509Store_CheckStore_m1027496478
hxi:_AddComponentMenu__ctor_m686408932
_xg:__ZL82MethodBase_t904190842_CustomAttributesCacheGenerator_MethodBase_Invoke_m1075809207P21CustomAttributesCache
Cy:__ZN26AnimatorControllerPlayable18SetLayerAutoWeightEv
Bmd:__Z44Register_UnityEngine_Canvas_get_pixelPerfectv
B3j:__ZNSt3__212basic_stringIcNS_11char_traitsIcEENS_9allocatorIcEEEC2ERKS5_jjRKS4_
HHd:_String_Contains_m4017059963
sGe:_Array_swap_TisCustomAttributeNamedArgument_t94157543_TisCustomAttributeNamedArgument_t94157543_m3600072996_gshared
Kii:_DefaultComparer_Compare_m1606207039_gshared
Ojd:__ZN2UI14CanvasRenderer12SyncMaterialENS0_8SyncFlagE
QZj:__ZN6il2cpp2vm9Parameter30GetDefaultParameterValueObjectEPK10MethodInfoPK13ParameterInfoPb
Ifj:_Rigidbody2D_set_velocity_m2161463521
q$i:_Action_EndInvoke_m4281032350
WDe:_Array_InternalArray__set_Item_TisLabelData_t3712112744_m2253365137_gshared
bfh:_MonoCMethod_get_Attributes_m3914742834
i8g:_ConstructorBuilder_get_DeclaringType_m4264602248
o5e:_StringReader__ctor_m643998729
DWf:_IPv6Address_TryParse_m2220524278
G2i:_PCMReaderCallback_EndInvoke_m4163012370
E0d:_U3CDelayedSetDirtyU3Ec__Iterator0_System_Collections_Generic_IEnumeratorU3CobjectU3E_get_Current_m2210283424
mx:__ZN14AnimationEvent8TransferI19StreamedBinaryWriteILb0EEEEvRT_
oGa:__ZN4PPtrI9Texture2DE8TransferI14SafeBinaryReadEEvRT_
j4c:_UNITY_tt_face_done_kern
Soi:_Context_get_DefaultContext_m2211922324
qeb:__ZN14SafeBinaryRead21TransferSTLStyleArrayINSt3__26vectorI14SubstanceInputNS1_9allocatorIS3_EEEEEEvRT_17TransferMetaFlags
bbb:__ZN12BoneWeights48TransferI24GenerateTypeTreeTransferEEvRT_
wKf:_RSAManaged_GetPaddedValue_m2972141669
zPh:_ScrollRect_OnDrag_m1424848249
OPf:_TlsServerCertificate_ProcessAsSsl3_m277089231
qxe:_Array_InternalArray__IEnumerable_GetEnumerator_TisUInt16_t986882611_m3665860884_gshared
uPb:__Z19scripting_gc_enablev
QSb:__ZZ23InitPlayerLoopCallbacksvEN41InitializationPlayerUpdateTimeRegistrator7ForwardEv
bui:_AnchorInfo__ctor_m617409099
B7b:__Z29StdTemplateConversionFunctionIihEbPvR14SafeBinaryRead
Lah:_GenericTypeParameterBuilder_GetMethodImpl_m528545634
Cld:__Z55Register_UnityEngine_CanvasRenderer_DisableRectClippingv
u2f:_Interval_CompareTo_m2909556284_AdjustorThunk
Aab:__ZN14SafeBinaryRead21TransferSTLStyleArrayI13dynamic_arrayI11ColorRGBA32Lj4EEEEvRT_17TransferMetaFlags
WUj:_GC_should_collect
gDa:__ZN9GfxDevice22UploadTextureCubeArrayE9TextureIDPKhjii14GraphicsFormati18TextureUploadFlags
jsg:__ZL87RuntimeArray_CustomAttributesCacheGenerator_Array_CreateInstance_m679102425____lengths1P21CustomAttributesCache
ALh:_Navigation_t1571958496_marshal_pinvoke
l1f:_Interpreter_GetLastDefined_m2450713313
uti:_Parser_ParseAssertionType_m3316669790
mrb:__ZN9ShaderLab7Program27CreateFromSerializedProgramERKNS_17SerializedProgramE10ShaderTypeiP16PropertyNamesSetPK6Shader
rQh:_Selectable_get_isPointerDown_m774209881
Org:__ZL73Enum_t2459695545_CustomAttributesCacheGenerator_Enum_ToObject_m2460371738P21CustomAttributesCache
Isb:__ZNSt3__27__sort4IRNS_6__lessIN4core12basic_stringIcNS2_20StringStorageDefaultIcEEEES6_EEPS6_EEjT0_SA_SA_SA_T_
w6j:dynCall_viiiifii
t7f:_TypeInfo__ctor_m1219583114
dBj:__ZN6il2cpp2gc19AppendOnlyGCHashMapINSt3__24pairIPK11Il2CppImageP11Il2CppClassEEP22Il2CppReflectionModule17ReflectionMapHashIS9_ENS2_8equal_toIS9_EEEC2Ev
L8:__Z20GetPersistentManagerv
nbd:_UNITY_TT_Set_Var_Design
Roi:_Context_Finalize_m1386439645
q5:__ZN21SystemInfoStringCache16StaticInitializeEPv
TLf:_TlsStream__ctor_m4117943603
Sxj:__ZN15dense_hashtableINSt3__24pairIK10KeyWrapperIPK10Il2CppTypeEjEES6_N6il2cpp8metadata14Il2CppTypeHashEN14dense_hash_mapIS6_jSB_NS6_14EqualsComparerINSA_26Il2CppTypeEqualityComparerEEENS0_9allocatorIS8_EEE9SelectKeyESF_SH_E12maybe_shrinkEv
gSh:_Text_FontTextureChanged_m4236993972
sQj:__ZN6il2cpp2gc16GarbageCollector23MakeDescriptorForObjectEPji
oMj:__ZNK10KeyWrapperIP12Il2CppObjectE14EqualsComparerINSt3__28equal_toIS1_EEEclERKS2_S9_
Ahh:_ParameterModifier_t1820634920_marshal_pinvoke
IMb:__ZNK13MonoBehaviour7GetNameEv
hmb:__ZN19ScriptingInvocation28AdjustArgumentsToMatchMethodEv
PLj:__ZN15dense_hashtableI10KeyWrapperIP18Il2CppGenericClassES3_N6il2cpp8metadata22Il2CppGenericClassHashEN14dense_hash_setIS3_S6_NS3_14EqualsComparerINS5_25Il2CppGenericClassCompareEEENSt3__29allocatorIS3_EEE8IdentityESA_SD_E6insertERKS3_
$P:__Z15_CheckFMODError11FMOD_RESULTPKciS1_
pJd:_AbstractEventData_Use_m1797212290
LVa:__Z20RenderMultipleMeshesRK15RenderNodeQueueRK18RenderMultipleData17ShaderChannelMask
g0g:__ZL150U3CDelayedDestroyDropdownListU3Ec__Iterator0_t3461999471_CustomAttributesCacheGenerator_U3CDelayedDestroyDropdownListU3Ec__Iterator0_Reset_m3485957852P21CustomAttributesCache
ujh:__Z199RuntimeInvoker_Void_t1841601450_ByteU2AU26_t3544685828_ByteU2AU26_t3544685828_DoubleU2AU26_t3349029_UInt16U2AU26_t1636670495_UInt16U2AU26_t1636670495_UInt16U2AU26_t1636670495_UInt16U2AU26_t1636670495PFvvEPK10MethodInfoPvPS4_
_vj:__ZN6il2cpp2vm4Type19GetGenericParameterEPK10Il2CppType
cld:__Z51Register_UnityEngine_CanvasGroup_get_blocksRaycastsv
dhi:_InternalEnumerator_1_get_Current_m2826780083_gshared
ove:_Array_InternalArray__ICollection_Remove_TisCustomAttributeNamedArgument_t94157543_m2838387005_gshared
I4g:__ZL105LayoutUtility_t4076838048_CustomAttributesCacheGenerator_LayoutUtility_U3CGetMinHeightU3Em__4_m1769295917P21CustomAttributesCache
h2h:_Dictionary_2_GetEnumerator_m1752238884_gshared
qii:_InternalEnumerator_1__ctor_m2782443954_AdjustorThunk
yd:_glBeginQuery
M5g:_Assembly_GetCustomAttributes_m95309865
XK:__ZN18AnimatorController19TransferRuntimeDataI24GenerateTypeTreeTransferEEvRT_
_Xc:__ZN10Effector2D25CheckEffectorColliderMaskEP10Collider2DS1_
mUb:__ZN6Camera12RenderStereoENS_10RenderFlagE8CullFlagPNS_24PerformEyeRenderFunctionE
_3g:__ZL73LayoutElement_t2808691390_CustomAttributesCacheGenerator_m_FlexibleHeightP21CustomAttributesCache
Xub:__ZN20LocalFileSystemPosix10ToAbsoluteEPKc
yVa:__ZN20TierGraphicsSettings8TransferI19StreamedBinaryWriteILb0EEEEvRT_
L4:__GLOBAL__sub_I_runtime_input_0_cpp
Xee:_Convert_ToBoolean_m48997236
Vqe:_Enum_ToObject_m275924358
bs:__ZN14AnimationState19SetupUnstoppedStateEv
bq:__ZN6Object17MainThreadCleanupEv
O8d:_ArrayListWrapper_set_Capacity_m2792463350
VUa:__Z32TransferEnumWithNameForceIntSizeI14SafeBinaryRead7HDRModeEvRT_RT0_PKc17TransferMetaFlags
GZf:_X509Certificate2_ImportPkcs12_m3993877002
Q1j:_getcwd
dfg:_StringBuilder_Append_m1128243247
PSc:__ZN16b2CapsuleContact6CreateEP9b2FixtureiS1_iP16b2BlockAllocator
cui:_AnchorInfo_get_Offset_m142119297
aHa:__ZN25ThreadsafeLinearAllocatorD2Ev
BEe:_Array_InternalArray__set_Item_TisVector4_t2243707581_m3878172417_gshared
wkb:__Z21SendMessageToEveryoneRK17MessageIdentifier11MessageData
XXi:_UnityAction_1_EndInvoke_m902670333_gshared
uea:__ZN21BillboardBatchManager16StaticInitializeEPv
J6:__ZN12_GLOBAL__N_138ArchiveRedirectFileSystemStaticDestroyEPv
Ldd:__Z13InvokeStartUpRKN4math12int3_storageE4PPtrI6ObjectEP7TilemapP10GameObject
tre:_EventHandler_Invoke_m1137722757
y1a:__ZN12CubemapArray34UpdateFileTextureUploadInstructionEP26FileAssetUploadInstructionj
L8e:_MonoType_IsSubclassOf_m2211166238
Shh:_TypeFilter_EndInvoke_m997625354
_tf:_Collection_1_System_Collections_ICollection_CopyTo_m2859266050_gshared
wza:__Z23CreateSparseTextureGLES9TextureIDii14GraphicsFormati
zji:_Comparer_1__ctor_m2876014041_gshared
EWj:_GC_continue_reclaim
Y$e:_InvalidCastException__ctor_m2730571470
G$f:_X509ChainElementCollection_System_Collections_IEnumerable_GetEnumerator_m2559704689
aJg:__ZL86BigInteger_t925946153_CustomAttributesCacheGenerator_BigInteger_op_Implicit_m622924526P21CustomAttributesCache
R$g:__ZL59Dropdown_t1985816271_CustomAttributesCacheGenerator_m_ValueP21CustomAttributesCache
T1f:_InterpreterFactory_set_Gap_m2761943153
WYf:_PublicKey_get_Key_m126090744
p0c:__ZNSt3__23mapIN20TextRenderingPrivate7FontRefEP11FT_FaceRec_NS_4lessIS2_EENS_9allocatorINS_4pairIKS2_S4_EEEEEixERS9_
pJa:__ZN17ArchiveFileSystem10AddStorageEP20ArchiveStorageReader
O5i:__ZL25UnresolvedVirtualCall_104P12Il2CppObjectS0_S0_S0_iPK10MethodInfo
hGi:_Object_INTERNAL_CALL_Internal_InstantiateSingle_m846595043
Qie:_Convert_ToSingle_m690748777
fMc:__ZNK12b2MotorJoint16GetReactionForceEf
Woj:__ZN6il2cpp2vm13MetadataCache37GetParameterDefaultValueDataFromIndexEi
x4h:_EqualityComparer_1_System_Collections_IEqualityComparer_GetHashCode_m1203798961_gshared
fij:__ZN6il2cpp2vm5Class15GetEnumBaseTypeEP11Il2CppClass
m1e:_DirectoryNotFoundException__ctor_m3713860966
B2a:__ZNK9Texture2D16GetNpotTexelSizeEv
Bai:_InternalEnumerator_1__ctor_m245588437_gshared
w0f:_Capture_get_Text_m3472127896
FKh:_Mask_get_rectTransform_m3304369086
Dyh:__Z78RuntimeInvoker_Void_t1841601450_ScriptableRenderContext_t4271526_RuntimeObjectPFvvEPK10MethodInfoPvPS4_
vra:__ZN9GfxDevice22GetDefaultVertexBufferE26GfxDefaultVertexBufferTypej
RNg:__ZL83Input_t1785128008_CustomAttributesCacheGenerator_Input_get_mousePresent_m1100327283P21CustomAttributesCache
WBf:_ReadOnlyCollection_1_System_Collections_ICollection_CopyTo_m1129689124_gshared
g2j:___fseeko_unlocked
Ack:_glGetActiveUniform__wrapper
_1j:_sscanf
ixf:_Collection_1_Contains_m1999290510_gshared
Pab:__ZN14SafeBinaryRead21TransferSTLStyleArrayINSt3__26vectorI17BlendShapeChannelNS1_9allocatorIS3_EEEEEEvRT_17TransferMetaFlags
uQb:__Z17BeginSplashScreenv
qqb:__ZN9ShaderLab16SerializedShader8TransferI19StreamedBinaryWriteILb0EEEEvRT_
Nmg:_UInt32_Parse_m2400360707
BI:__ZN7mecanim9animation18CreateAvatarMemoryEPKNS0_14AvatarConstantERNS_6memory9AllocatorE
tee:_Stack_Pop_m3788808882
nUh:_Enumerator_VerifyCurrent_m4246196125_AdjustorThunk
f1h:_Dictionary_2_pick_value_m3484897877_gshared
jBi:_ArgumentCache__ctor_m1191928438
Ule:_DateTime_op_Equality_m1867073872
qH:__ZN7mecanim8skeleton16SkeletonPoseCopyIN4math4trsXENS2_7affineXEEEvPKNS0_13SkeletonPoseTIT_EEPNS5_IT0_EE
SFb:__Z18Transfer_BlittableI19StreamedBinaryWriteILb0EELb0EaEvRK29SerializationCommandArgumentsR31RuntimeSerializationCommandInfo
ara:__ZN18GfxFramebufferGLES18GetFramebufferNameERK20GfxRenderTargetSetup
d5j:_saveSetjmp
UAc:__Z30Event_Get_Custom_PropCharacterP12Il2CppObject
Mfa:__ZN13PlayableGraph27SchedulePlayableDestructionERK9HPlayable
J9j:_glGetFramebufferAttachmentParameteriv__wrapper
Btd:__Z13RegisterClassI20UnityConnectSettingsEvv
Oyb:__Z22scripting_array_length17ScriptingArrayPtr
hDd:_SecurityElement_GetAttribute_m4288291176
Vwi:_UriParser_get_DefaultPort_m1377931533
EZi:_IndexedSet_1_get_Count_m2839545138_gshared
M1a:__ZN14SafeBinaryRead20TransferTypelessDataEjPvi
Hyg:__ZL66StringFreezingAttribute_t2691375565_CustomAttributesCacheGeneratorP21CustomAttributesCache
Scb:__ZN14SpriteRenderer18UpdateCachedSpriteEb
Tkf:_List_1_AddCollection_m3284813601_gshared
T5c:_Horizontal_Sweep_Init
o3g:__ZL102ToggleGroup_t1030026315_CustomAttributesCacheGenerator_ToggleGroup_U3CActiveTogglesU3Em__1_m4052653494P21CustomAttributesCache
EW:__ZN13dynamic_arrayI12SoundChannelLj4EE9push_backERKS0_
Xya:__Z19GetActiveColorSpacev
Q4h:_EqualityComparer_1__cctor_m1672307556_gshared
H5f:_SoapTypeAttribute_get_IsInteropXmlElement_m2941294827
C3c:_UNITY_tt_face_load_kern
tdf:_Enumerator_System_Collections_IEnumerator_get_Current_m3542273247_gshared
d7d:_Char_System_IConvertible_ToUInt32_m1557991717_AdjustorThunk
ieg:_Encoding_get_UTF8Unmarked_m628720656
QYe:_NumberFormatter_RoundBits_m1545255255
b6:__Z6StrCmpPKcS0_
agi:_InternalEnumerator_1_MoveNext_m2906956792_gshared
Rph:__Z119RuntimeInvoker_Void_t1841601450_RuntimeObject_Int64U26_t763825331_ObjectU26_t597476745_SerializationInfoU26_t4051840202PFvvEPK10MethodInfoPvPS4_
Wrb:__Z21CheckGpuProgramUsable20ShaderGpuProgramType
B6g:_Binder__cctor_m3736115807
BPj:__ZN6il2cpp2os9Directory20GetFileSystemEntriesERKNSt3__212basic_stringIcNS2_11char_traitsIcEENS2_9allocatorIcEEEESA_iiPi
mEh:__Z84RuntimeInvoker_Int32_t2071877448_Color32_t874517518_Color32_t874517518_RuntimeObjectPFvvEPK10MethodInfoPvPS4_
a2h:_Dictionary_2_OnDeserialization_m2160537783_gshared
y3d:_Attribute_GetHashCode_m2653962112
o$c:__ZN20TextRenderingPrivate19NativeTextGenerator5SetupEv
Fqi:_AsyncResult_GetReplyMessage_m262842621
T$b:__ZNK15SharedLightData24GetFinalShadowResolutionEv
Ubf:_Enumerator__ctor_m3021143890_AdjustorThunk
Dhb:__ZN12AspectRatios8TransferI18StreamedBinaryReadILb0EEEEvRT_
rug:__ZL66X509ExtensionCollection_t1640144839_CustomAttributesCacheGeneratorP21CustomAttributesCache
Pic:__ZN10GameObject14CopyPropertiesERS_
IBc:__Z44Register_UnityEngine_GUIStyle_get_fixedWidthv
Ozd:_RSACryptoServiceProvider_Common_m2581564813
JHi:_X509CertificateEnumerator_MoveNext_m4060814498
JNi:_Vector2_Scale_m2260641886
o3e:_MemoryStream_CheckIfClosedThrowDisposed_m2253054610
r7h:_ArrayReadOnlyList_1_GetEnumerator_m634288642_gshared
t7a:__ZNK13ScreenManager12IsFullScreenEv
B2j:_rand
kak:_emscripten_glFramebufferRenderbuffer__wrapper
_xh:__Z72RuntimeInvoker_Boolean_t3825574718_Ray_t2469606224_SingleU26_t4173844468PFvvEPK10MethodInfoPvPS4_
aQj:__ZN6il2cpp5utils9PathUtils7CombineIcEENSt3__212basic_stringIT_NS3_11char_traitsIS5_EENS3_9allocatorIS5_EEEERKNS0_10StringViewIS5_EERKSA_
$Ef:_ReadOnlyCollection_1_GetEnumerator_m2481390116_gshared
jnh:__Z77RuntimeInvoker_Void_t1841601450_RuntimeObject_Int32_t2071877448_RuntimeObjectPFvvEPK10MethodInfoPvPS4_
Kzb:__ZN14SafeBinaryRead21TransferSTLStyleArrayINSt3__26vectorI17AnimationCurveTplIfE13stl_allocatorIS4_L18MemLabelIdentifier1ELi16EEEEEEvRT_17TransferMetaFlags
kzj:__ZN15dense_hashtableINSt3__24pairIK10KeyWrapperINS1_IPK11Il2CppImageP11Il2CppClassEEEjEES9_17ReflectionMapHashIS8_EN14dense_hash_mapIS9_jSD_NS9_14EqualsComparerINS0_8equal_toIS8_EEEENS0_9allocatorISB_EEE9SelectKeyESI_SK_E12expand_arrayEjN21dense_hash_map_traits17integral_constantIbLb0EEE
x8f:_ObjectManager_RegisterObject_m872610295
p2b:__Z22PrepareOptimizedPlanesPK5PlaneiPKN4math7_float4E
LMi:_RectOffset_t3387826427_marshal_pinvoke
wVd:_Graphic_SetVerticesDirty_m1607014370
o2:__ZN11UnityEngine15CloudWebService17WebFileDownloaderINS0_20WebRequestRestClientENS0_23WebRequestRestHeaderMapEE10InitializeERKN4core12basic_stringIcNS5_20StringStorageDefaultIcEEEE
sea:__ZN17UniqueIDGenerator15CreatePureIndexEv
Mkc:__ZN14dense_hash_mapI12TriangleEdgei16TriangleEdgeHashNSt3__28equal_toIS0_EENS2_9allocatorINS2_4pairIKS0_iEEEEEixERS7_
eJf:_MD2__ctor_m3133818738
Vx:__ZN11UnityEngine9Animation28GenericAnimationBindingCache15DidReloadDomainEv
XTe:_AppDomain_InternalGetProcessGuid_m1278588156
L_d:_InputField_MoveRight_m386206014
Tce:_HashValues_get_Count_m234926373
sib:__ZNSt3__26vectorIN15ResourceManager10DependencyE13stl_allocatorIS2_L18MemLabelIdentifier52ELi16EEE6assignINS_11__wrap_iterIPS2_EEEENS_9enable_ifIXaasr21__is_forward_iteratorIT_EE5valuesr16is_constructibleIS2_NS_15iterator_traitsISC_E9referenceEEE5valueEvE4typeESC_SC_
mM:__ZN19StreamedBinaryWriteILb0EE8TransferIN7mecanim9animation23BlendDirectDataConstantEEEvRT_PKc17TransferMetaFlags
slh:__Z116RuntimeInvoker_Boolean_t3825574718_RuntimeObject_Int32_t2071877448_RuntimeObject_Int32_t2071877448_Int32_t2071877448PFvvEPK10MethodInfoPvPS4_
s0e:_BinaryReader_ReadBoolean_m2892291883
vhj:__ZN15dense_hashtableINSt3__24pairIK10KeyWrapperIPK22Il2CppGenericParameterEP11Il2CppClassEES6_N6il2cpp5utils11PointerHashIS4_EEN14dense_hash_mapIS6_S9_SE_NS6_14EqualsComparerINS0_8equal_toIS5_EEEENS0_9allocatorISA_EEE9SelectKeyESJ_SL_E14squash_deletedEv
WNc:__ZNK12b2MouseJoint17GetReactionTorqueEf
mCg:__ZL66DSASignatureDeformatter_t2187578719_CustomAttributesCacheGeneratorP21CustomAttributesCache
QXg:__ZL85Canvas_t209405766_CustomAttributesCacheGenerator_Canvas_get_sortingLayerID_m137448982P21CustomAttributesCache
czc:__Z14GUIClipTextureP9Texture2DPhiiii
Qv:__ZN14SafeBinaryRead21TransferSTLStyleArrayI13dynamic_arrayI11KeyframeTplI11QuaternionfELj4EEEEvRT_17TransferMetaFlags
Z8h:_InternalEnumerator_1_Dispose_m1064404287_AdjustorThunk
Xwa:__ZNSt3__26vectorI27ComputeShaderBuiltinSamplerNS_9allocatorIS1_EEE21__push_back_slow_pathIKS1_EEvRT_
Qdj:_AnimatorControllerPlayable__ctor_m4080566273
RPf:_TlsServerCertificate_validateCertificates_m1988583701
Htg:__ZL61DllImportAttribute_t3000813225_CustomAttributesCacheGeneratorP21CustomAttributesCache
bkh:__Z66RuntimeInvoker_Int32_t2071877448_RuntimeObject_Int32U26_t455636984PFvvEPK10MethodInfoPvPS4_
NPa:__ZNK9Transform18TransformDirectionERK8Vector3f
lKa:__ZNK17ArchiveFileSystem12GetAssetGUIDERK13FileEntryData
Nrb:__ZNSt3__26vectorIN9ShaderLab20SerializedSubProgram15MatrixParameterENS_9allocatorIS3_EEE21__push_back_slow_pathIKS3_EEvRT_
nfk:_emscripten_glClearStencil__wrapper
KFh:__Z60RuntimeInvoker_Void_t1841601450_ResourceCacheItem_t333236149PFvvEPK10MethodInfoPvPS4_
l5h:_EqualityComparer_1_get_Default_m1852501307_gshared
Hnj:__ZN15dense_hashtableINSt3__24pairIK10KeyWrapperIPK11Il2CppClassEPKcEES6_N6il2cpp5utils11PointerHashIS3_EEN14dense_hash_mapIS6_S9_SE_NS6_14EqualsComparerINS0_8equal_toIS5_EEEENS0_9allocatorISA_EEE9SelectKeyESJ_SL_E12resize_deltaEjj
m4j:__ZNK10__cxxabiv120__si_class_type_info27has_unambiguous_public_baseEPNS_19__dynamic_cast_infoEPvi
mVe:_NumberFormatInfo_get_PercentNegativePattern_m1162448153
$ug:__ZL56SyncHashtable_t1343674558_CustomAttributesCacheGeneratorP21CustomAttributesCache
X7j:_glTexSubImage3D__wrapper
Iwf:_Collection_1_get_Item_m4215988522_gshared
I0f:_FactoryCache_Add_m2602974721
ura:__Z30AddDefaultStreamsToMeshBuffersR9GfxDeviceR11MeshBuffersj17ShaderChannelMaskS3_
l6:__ZL16GetInterfaceImpl18UnityInterfaceGUID
zVe:_RegionInfo_construct_internal_region_from_name_m3316088619
yij:__ZN6il2cpp2vmL17SetupFieldOffsetsENS0_15FieldLayoutKindEP11Il2CppClassjRKNSt3__26vectorIjNS4_9allocatorIjEEEE
gff:_List_1_System_Collections_IList_get_Item_m936612973_gshared
NSj:__ZN6il2cpp6icalls8mscorlib6System15MonoCustomAttrs27GetCustomAttributesInternalEP12Il2CppObjectP20Il2CppReflectionTypeb
ubd:_UNITY_TT_Set_MM_Blend
O4:__GLOBAL__sub_I_runtime_math_random_0_cpp
H8f:_ObjectReader_ReadAssembly_m869834280
iPi:_Sprite_INTERNAL_get_textureRect_m127050026
FQb:__ZN14PreloadManager35WaitForAllAsyncOperationsToCompleteEv
tEf:_ReadOnlyCollection_1_System_Collections_IList_get_Item_m1831743662_gshared
kyf:_Collection_1_IsSynchronized_m971497175_gshared
V7:__ZNK18ScriptingObjectPtr17ToScriptingStringEv
PLd:_ExecuteEvents_Execute_m1617536317
dSh:_Text_get_cachedTextGeneratorForLayout_m1357670532
GR:__ZL31InitializeAudioScriptingClassesv
CVb:__Z14SortGUIByDepthP10GUIElementS0_
sZe:_NumberFormatter_NumberToString_m126384393
Obk:_emscripten_glVertexAttrib4fv__wrapper
I5:__ZN13RuntimeStaticI13dynamic_arrayIPK31TransferFunctionScriptingTraitsLj4EELb0EE16StaticInitializeEPv
k3f:_LogicalCallContext__ctor_m3173272863
_H:__ZN12_GLOBAL__N_120ProcessRootMotionMixER33AnimationPlayableEvaluationOutputR35AnimationPlayableEvaluationConstantR32AnimationPlayableEvaluationInputS1_f
Wfj:_CustomEventData_AddChar_m2955651223
w7e:_MonoCustomAttrs__cctor_m2608447972
_Xe:_Int32_FindSign_m3803672540
BNg:__ZL98TouchScreenKeyboard_t601950206_CustomAttributesCacheGenerator_TouchScreenKeyboard_Open_m4126304679P21CustomAttributesCache
Pnh:__Z92RuntimeInvoker_Void_t1841601450_DateTime_t693205669_DateTime_t693205669_TimeSpan_t3430258949PFvvEPK10MethodInfoPvPS4_
pCh:__Z95RuntimeInvoker_Void_t1841601450_ObjectU5BU5DU26_t3223402458_Int32_t2071877448_Int32_t2071877448PFvvEPK10MethodInfoPvPS4_
xvb:__ZNK20LocalFileSystemPosix21GetAvailableDiskSpaceEPKcRy
u5:__ZNSt3__26__treeIiNS_4lessIiEENS_9allocatorIiEEE7destroyEPNS_11__tree_nodeIiPvEE
Uaj:_Predicate_1__ctor_m2995226103_gshared
JLf:_CipherSuite_InitializeCipher_m229247572
pZf:_X509Certificate2__ctor_m1095336775
jka:__ZNK9GfxDevice14GetWorldMatrixEv
Rgh:_MonoProperty_GetGetMethod_m1100580870
I0h:_Dictionary_2__ctor_m1950568359_gshared
IRj:__ZN15dense_hashtableINSt3__24pairIK10KeyWrapperIPK19Il2CppGenericMethodEP10MethodInfoEES6_N6il2cpp8metadata23Il2CppGenericMethodHashEN14dense_hash_mapIS6_S9_SD_NS6_14EqualsComparerINSC_26Il2CppGenericMethodCompareEEENS0_9allocatorISA_EEE9SelectKeyESH_SJ_E13set_empty_keyERKSA_
Ntb:__Z19scripting_array_new17ScriptingClassPtrjj
sW:__ZN11SoundHandle13CreateChannelEb
mph:__Z90RuntimeInvoker_Void_t1841601450_IntPtr_t_Int32_t2071877448_RuntimeObject_Int32_t2071877448PFvvEPK10MethodInfoPvPS4_
b4a:__ZN14SafeBinaryRead21TransferSTLStyleArrayI13dynamic_arrayI12LightmapDataLj4EEEEvRT_17TransferMetaFlags
oUe:_ArgumentException__ctor_m3312963299
Pob:__ZNSt3__26vectorIN9ShaderLab20SerializedSubProgram16TextureParameterENS_9allocatorIS3_EEE6assignIPS3_EENS_9enable_ifIXaasr21__is_forward_iteratorIT_EE5valuesr16is_constructibleIS3_NS_15iterator_traitsISA_E9referenceEEE5valueEvE4typeESA_SA_
uDf:_ReadOnlyCollection_1_get_Item_m1696267180_gshared
lmj:__ZN13Il2CppHashMapIN6il2cpp5utils13dynamic_arrayIPK10Il2CppTypeLj4EEEPFvvENS0_8metadata19Il2CppSignatureHashENS9_22Il2CppSignatureCompareENSt3__29allocatorINSC_4pairIK10KeyWrapperIS6_ES8_EEEEEC2EjRKSA_RKSB_
M9i:_U3CCreateWhereIteratorU3Ec__Iterator1D_1_MoveNext_m3533253043_gshared
LBj:__ZN15dense_hashtableINSt3__24pairIK10KeyWrapperIPK22Il2CppGenericParameterEPK24MonoGenericParameterInfoEES6_N6il2cpp5utils11PointerHashIS4_EEN14dense_hash_mapIS6_SA_SF_NS6_14EqualsComparerINS0_8equal_toIS5_EEEENS0_9allocatorISB_EEE9SelectKeyESK_SM_E15set_deleted_keyERKSB_
pbi:_InternalEnumerator_1_System_Collections_IEnumerator_Reset_m2726857860_AdjustorThunk
yac:__ZN6prcoreL11inner_clearILj2EEEvPhjjj
l0f:_X509SubjectKeyIdentifierExtension__ctor_m3887138480
Mbf:_Enumerator_System_Collections_IEnumerator_get_Current_m2853089017_AdjustorThunk
gNc:__ZN12b2WheelJoint24SolvePositionConstraintsERK12b2SolverData
Mg:_emscripten_exit_fullscreen
JYd:_InputField_get_mesh_m3276583786
rmi:_GCHandle_Free_m1639542352_AdjustorThunk
s3c:_sfnt_done_face
LOj:__ZN6il2cpp6icalls8mscorlib6System6String19InternalAllocateStrEi
cJc:__Z29Transfer_Blittable_ArrayFieldI8JSONRead11QuaternionfEvRT_R9ArrayInfoRK23StaticTransferFieldInfo
NAg:__ZL65SoapParameterAttribute_t2780084514_CustomAttributesCacheGeneratorP21CustomAttributesCache
evb:__ZN20LocalFileSystemPosix8SetFlagsER13FileEntryDatajj
krc:__Z45Register_UnityEngine_Camera_get_targetDisplayv
$gc:__ZNK24RendererAnimationBinding15GenerateBindingERKN4core12basic_stringIcNS0_20StringStorageDefaultIcEEEEbRN11UnityEngine9Animation14GenericBindingE
oUa:__Z15GetFlareManagerv
icc:__ZN15ApplicationInfo24GetApplicationIdentifierEv
eDf:_ReadOnlyCollection_1_System_Collections_IList_Contains_m927375828_gshared
lFa:__ZN9Behaviour8TransferI18StreamedBinaryReadILb0EEEEvRT_
Ari:_Enumerator_System_Collections_IEnumerator_get_Current_m1429268283
fAf:_ReadOnlyCollection_1_System_Collections_Generic_ICollectionU3CTU3E_Clear_m388357963_gshared
A0j:___toread
NOb:__ZNSt3__26vectorI10vector_mapIiiNS_4lessIiEE13stl_allocatorINS_4pairIiiEEL18MemLabelIdentifier38ELi16EEES4_IS9_LS7_38ELi16EEE26__swap_out_circular_bufferERNS_14__split_bufferIS9_RSA_EE
P4j:___cxa_is_pointer_type
Ofj:_UnityAnalyticsHandler_InternalCreate_m427483392
ZHd:_String_Concat_m56707527
aI:__ZN7mecanim9animation16EvaluateAvatarDXEPKNS0_14AvatarConstantEPKNS0_11AvatarInputEPNS0_12AvatarMemoryEPNS0_15AvatarWorkspaceEPNS0_12AvatarOutputE
lya:__ZN4gles20DestroyRenderSurfaceEP7ApiGLESP17RenderSurfaceGLES
Lbf:_Enumerator_System_Collections_IEnumerator_get_Current_m2853089017_gshared
Bwc:__Z34Transform_CUSTOM_SetAsFirstSiblingP12Il2CppObject
Fwj:__ZNK15dense_hashtableINSt3__24pairIK10KeyWrapperINS1_IPK14Il2CppAssemblyP11Il2CppClassEEEjEES9_17ReflectionMapHashIS8_EN14dense_hash_mapIS9_jSD_NS9_14EqualsComparerINS0_8equal_toIS8_EEEENS0_9allocatorISB_EEE9SelectKeyESI_SK_E10test_emptyEj
Kdf:_Enumerator_get_Current_m827571811_AdjustorThunk
cUg:__ZL62Font_t4239498691_CustomAttributesCacheGenerator_textureRebuiltP21CustomAttributesCache
AFa:__ZN17PersistentManager40GlobalToLocalSerializedFileIndexInternalERK26SerializedObjectIdentifier
p$:__ZN11UnityEngine15CloudWebService17SessionEventQueue14ParseEventDataERKN4core12basic_stringIcNS2_20StringStorageDefaultIcEEEE
zJd:_BaseEventData_get_selectedObject_m3551206992
cLe:_SimpleCollator_CompareOrdinal_m2176988387
IRg:__ZL47Rect_t3681755626_CustomAttributesCacheGeneratorP21CustomAttributesCache
dse:_CCGregorianCalendar_GetYear_m1289900195
qZe:_Int16_ToString_m2592645088
nMg:__ZL90CullingGroup_t1091689465_CustomAttributesCacheGenerator_CullingGroup_SendEvents_m386073533P21CustomAttributesCache
spa:__ZN13TranslateGLES4InitERK12GraphicsCaps16GfxDeviceLevelGL
RLb:__Z29Transfer_Blittable_ArrayFieldI18StreamedBinaryReadILb0EE10ColorRGBAfEvRT_R9ArrayInfoRK23StaticTransferFieldInfo
aag:_SerializationInfoEnumerator_Reset_m2206466680
iak:_emscripten_glGetShaderPrecisionFormat__wrapper
hod:__Z32CustomEventData_CUSTOM_AddUInt32P12Il2CppObjectP12Il2CppStringj
F1i:_GenericEqualityComparer_1_Equals_m1934771410_gshared
lvg:__ZL57DebuggingModes_t2073970606_CustomAttributesCacheGeneratorP21CustomAttributesCache
RZj:__ZN6il2cpp5utils9Exception26FormatInvalidCastExceptionEPK11Il2CppClassS4_
Vuf:_Collection_1_System_Collections_IList_get_IsFixedSize_m993584401_gshared
Tec:__ZN13ProduceHelperI10TagManagerLb0EE7ProduceE18MemLabelIdentifier18ObjectCreationMode
u_j:__ZN6il2cpp2os6Memory12AlignedAllocEjj
hfi:_InternalEnumerator_1__ctor_m691972083_gshared
jUj:__ZN6il2cpp8metadataL7CompareEPK10Il2CppTypeS3_
JBb:__Z18Transfer_BlittableI17RemapPPtrTransferLb0E11ColorRGBA32EvRK29SerializationCommandArgumentsR31RuntimeSerializationCommandInfo
a8g:_TypeBuilder_get_is_created_m736553860
oKf:_RSAManaged__ctor_m1370411656
fKb:__Z18Transfer_BlittableI18StreamedBinaryReadILb0EELb1E10ColorRGBAfEvRK29SerializationCommandArgumentsR31RuntimeSerializationCommandInfo
q1a:__ZN12CubemapArray23VirtualRedirectTransferER17RemapPPtrTransfer
OKi:_PropertyName_op_Equality_m112228798
$oc:__ZL27GetComponentsImplementationILb0ELi0EEbR10GameObjectbRK17CompareParametersRK39GetComponentsImplementation_ReturnValue
tNb:__ZN9Scripting36IsSystemCollectionsGenericDictionaryE17ScriptingClassPtr
ZMh:_Raycast3DCallback_EndInvoke_m3234280377
uzh:__Z34RuntimeInvoker_KeyCode_t2283395152PFvvEPK10MethodInfoPvPS4_
qKi:_PlayableHandle_op_Equality_m2854547329
kSd:_ColorTweenCallback__ctor_m3619686788
Tba:__ZL16ReadTypeTreeImplILb0EEbR8TypeTreeRK16TypeTreeIteratorRPKhS6_i
tM:__ZN25RuntimeAnimatorControllerD2Ev
aE:__ZN27AnimationLayerMixerPlayable16SetLayerMaskCopyEjRKN7mecanim6bitsetILj70EEEPKNS0_8skeleton12SkeletonMaskE
I6i:__ZL25UnresolvedVirtualCall_152P12Il2CppObject38CustomAttributeNamedArgument_t94157543S1_PK10MethodInfo
NXa:__ZNK22BuiltinResourceManager21GetResourceInstanceIDEPKN5Unity4TypeERKN4core12basic_stringIcNS4_20StringStorageDefaultIcEEEE
Ysc:__Z42Register_UnityEngine_RectOffset_set_bottomv
Y8d:_ArrayListWrapper_IndexOf_m3574835167
rBc:__Z28GUIStyleState_CUSTOM_CleanupP12Il2CppObject
HXb:__ZN28LightProbeProxyVolumeContext8CopyFromERKS_
bQd:_U3COnFinishSubmitU3Ec__Iterator0_System_Collections_Generic_IEnumeratorU3CobjectU3E_get_Current_m1823105495
pOa:__ZN23TransformChangeDispatch32QueueTransformChangeIfHasChangedER18TransformHierarchy
HBd:_SymmetricAlgorithm_get_FeedbackSize_m544664262
mya:__ZN7ApiGLES18DeleteRenderbufferERj
Swa:__ZL23ProgramUniformMatrix4fvPK7ApiGLESjiihPKv
yya:__ZN7ApiGLES13CreateTextureEjj14GraphicsFormatiiiii
zBh:__Z41RuntimeInvoker_SelectionState_t3187567897PFvvEPK10MethodInfoPvPS4_
Ifi:_InternalEnumerator_1_MoveNext_m3629145604_gshared
xob:__ZN9ShaderLab20SerializedSubProgram15MatrixParameter8TransferI14SafeBinaryReadEEvRT_
hkh:__Z51RuntimeInvoker_Int32_t2071877448_Single_t2076509932PFvvEPK10MethodInfoPvPS4_
L3d:_BitConverter_AmILittleEndian_m2716658112
bpc:__ZL27GetComponentsImplementationILb0ELi1EEbR10GameObjectbRK17CompareParametersRK39GetComponentsImplementation_ReturnValue
Bad:_Round_Down_To_Grid
Tgg:_UTF8Decoder__ctor_m1460357288
yoa:__ZN13RenderTexture7ReleaseEv
BGc:__Z18Transfer_BlittableI8JSONReadLb1EN4math12int3_storageEEvRK29SerializationCommandArgumentsR31RuntimeSerializationCommandInfo
Ybb:__ZN10MeshFilter23VirtualRedirectTransferER14SafeBinaryRead
$Bi:_UnityAction_BeginInvoke_m1146054769
mfe:_Convert_ToByte_m1201588964
gcb:__ZN12MeshRenderer17MainThreadCleanupEv
JBa:__ZN22CreateGpuProgramOutput12CreateParamsEv
QS:__ZN10ObjectPoolIN4FMOD7ChannelENS0_8ChannelIEE7GetFreeEi
Gwg:__ZL55EventBuilder_t2927243889_CustomAttributesCacheGeneratorP21CustomAttributesCache
xag:_RuntimeMethodHandle_GetHashCode_m2682236001_AdjustorThunk
q3i:_AudioListenerExtension_get_audioListener_m2614481031
WFh:__Z54RuntimeInvoker_Void_t1841601450_UILineInfo_t3621277874PFvvEPK10MethodInfoPvPS4_
ovj:__ZNSt3__26vectorIiNS_9allocatorIiEEE21__push_back_slow_pathIiEEvOT_
CAh:__Z45RuntimeInvoker_HorizontalWrapMode_t2027154177PFvvEPK10MethodInfoPvPS4_
ipa:__ZNK14GfxContextGLES13GetDefaultFBOEv
zve:_Array_InternalArray__ICollection_Remove_TisSByte_t454417549_m2474211570_gshared
EDd:_Evidence_get_IsSynchronized_m1427392003
YPb:__ZN14GraphicsHelper5ClearE13GfxClearFlagsRK10ColorRGBAffjR17ShaderPassContext
kNi:_RectTransform_set_anchorMax_m1168582032
_kc:__Z13GetImagePixelI10ColorRGBAfET_PKhii13TextureFormat15TextureWrapModeS5_ii
ftj:_il2cpp_class_is_enum
lFj:__ZN6il2cpp2vm6Thread49CheckCurrentThreadForInterruptAndThrowIfNecessaryEv
xRa:__ZNSt3__23mapIN9ShaderLab16FastPropertyNameEN18UnityPropertySheet11UnityTexEnvENS_4lessIS2_EENS_9allocatorINS_4pairIKS2_S4_EEEEEixERS9_
Cxa:__ZNK13TranslateGLES25GetTextureTargetDimensionEj
KZd:_InputField_SetToCustom_m250029371
ADe:_Array_InternalArray__set_Item_TisByte_t3683104436_m1694926640_gshared
yvf:_Collection_1_System_Collections_IList_Contains_m1897568526_gshared
pah:_FieldBuilder_get_FieldType_m2267463269
g3d:_SimpleEnumerator_Clone_m3032847657
nsi:_PatternCompiler_EmitInfo_m597931026
FHf:_ModulusRing_Multiply_m3113924743
Svc:__Z47Texture2D_CUSTOM_INTERNAL_CALL_GetPixelBilinearP12Il2CppObjectffR10ColorRGBAf
M7:__ZN9Scripting12LogExceptionE21ScriptingExceptionPtriPKcb
Wej:_Collision2D_get_gameObject_m1296200797
oOf:_Context_get_ServerSettings_m225713600
Mi:_emscripten_glVertexAttrib4f
Lzf:_ReadOnlyCollection_1_System_Collections_IEnumerable_GetEnumerator_m531171980_gshared
vrb:__ZNSt3__26vectorIN20GpuProgramParameters14ConstantBufferENS_9allocatorIS2_EEE8__appendEj
QMi:_RectOffset__ctor_m976836251
bGe:_Array_Sort_TisUILineInfo_t3621277874_m3105833015_gshared
uac:__Z15tessGetElementsP14TESStesselator
TYb:__ZN11HaloManager21ReleaseGeometryJobMemEP25DynamicVBOGeometryJobData
mff:_List_1_AddEnumerable_m2489692396_gshared
GAh:__Z51RuntimeInvoker_Color_t2020392075_Single_t2076509932PFvvEPK10MethodInfoPvPS4_
Z0i:_GenericEqualityComparer_1_GetHashCode_m3450627064_gshared
jhg:_WaitHandle__ctor_m1256161634
bD:__ZN7mecanim12statemachine24CreateStateMachineMemoryEPKNS0_20StateMachineConstantERNS_6memory9AllocatorE
rYh:_Enumerator_get_Current_m419581838_AdjustorThunk
Mma:__ZN9GfxDevice18SetGlobalDepthBiasEff
mqj:__ZN6il2cpp6icalls8mscorlib6System8MonoType12get_AssemblyEP20Il2CppReflectionType
WLf:_TlsStream_Write_m3425460533
sLi:_Vector3_get_normalized_m1057036856
ZUd:_FontData_get_richText_m2013560754
NEd:_SecurityException_get_PermissionType_m3543350822
_i:_emscripten_glGetPointerv
QH:__ZN8Animator22ApplyBuiltinRootMotionEv
xLj:__ZN15dense_hashtableI10KeyWrapperIP18Il2CppGenericClassES3_N6il2cpp8metadata22Il2CppGenericClassHashEN14dense_hash_setIS3_S6_NS3_14EqualsComparerINS5_25Il2CppGenericClassCompareEEENSt3__29allocatorIS3_EEE8IdentityESA_SD_E5clearEv
lQb:__Z26ApplyMaterialPassWithCacheRK18SharedMaterialDataR17ShaderPassContextP6ShaderPN9ShaderLab4PassEibPKNS6_10GrabPassesEPNS6_11SubProgramsEPK22DeviceRenderStateBlock
ngj:_CustomEventData_InternalDestroy_m3784703600
bve:_Array_InternalArray__ICollection_Remove_TisKeyValuePair_2_t3716250094_m2566517826_gshared
hJj:__ZN30dense_hashtable_const_iteratorINSt3__24pairIK10KeyWrapperIP14Il2CppIUnknownEjEES5_N6il2cpp5utils11PointerHashIS3_EEN14dense_hash_mapIS5_jSB_NS5_14EqualsComparerINS0_8equal_toIS4_EEEENS0_9allocatorIS7_EEE9SelectKeyESG_SI_EppEv
g6a:__ZN8Renderer23VirtualRedirectTransferER14SafeBinaryRead
e9g:_DerivedType_get_UnderlyingSystemType_m3904230233
KMd:_PointerEventData_get_rawPointerPress_m448871540
kWa:__Z27ConvertSubMeshesToTrianglesR13dynamic_arrayI7SubMeshLj4EERS_ItLj2EE
tij:__ZN6il2cpp2vmL15GetBitmapNoInitEP11Il2CppClassPjRjj
Z8b:__ZL13MotionHandleriPK27EmscriptenDeviceMotionEventPv
P_f:_X509Certificate2Collection__ctor_m819526826
mR:__ZN12AudioManager5ResetEv
cKh:__Z75RuntimeInvoker_RuntimeObject_Single_t2076509932_RuntimeObject_RuntimeObjectPFvvEPK10MethodInfoPvPS4_
SIf:_KeyBuilder_Key_m3814433741
pUe:_ArgumentException__ctor_m158205422
mdj:_tomainscene_SceneChange_m1428971847
rye:_Array_compare_TisVector3_t2243707580_m3709184876_gshared
mXd:_HorizontalLayoutGroup_SetLayoutHorizontal_m3237355818
Bva:__ZN6prcoreL17RemapGenericFloatI17TexFormatRGBAHalf15TexFormatRGHalfEEvPKNS_9InnerInfoE
yBj:__ZNK15dense_hashtableINSt3__24pairIK10KeyWrapperIPK14Il2CppAssemblyEPK22Il2CppMonoAssemblyNameEES6_N6il2cpp5utils11PointerHashIS4_EEN14dense_hash_mapIS6_SA_SF_NS6_14EqualsComparerINS0_8equal_toIS5_EEEENS0_9allocatorISB_EEE9SelectKeyESK_SM_E10test_emptyEj
ZPj:__ZN6il2cpp6icalls8mscorlib6System11Environment20GetWindowsFolderPathEi
p3g:__ZL60AspectRatioFitter_t3114550109_CustomAttributesCacheGeneratorP21CustomAttributesCache
RB:__ZN7mecanim5human18HumanPoseBlendNodeERNS0_9HumanPoseEPS1_f
F1c:_UNITY_FT_RoundFix
Erb:__ZN9ShaderLab20SerializedSubProgram15AddTextureParamEPKcii16TextureDimension
B_:__ZN23CloudWebServicesManager23VirtualRedirectTransferER17RemapPPtrTransfer
Av:__Z14resize_trimmedINSt3__26vectorI24CompressedAnimationCurve13stl_allocatorIS2_L18MemLabelIdentifier26ELi16EEEEEvRT_j
mwi:_Uri_get_Parser_m2250631932
icb:__ZNK12MeshRenderer22GetTypeVirtualInternalEv
$Pi:_Touch_get_type_m1491424279_AdjustorThunk
pVd:_Graphic_set_color_m646149893
D1h:_Dictionary_2_System_Collections_ICollection_get_IsSynchronized_m960517203_gshared
C_a:__ZN14SafeBinaryRead19TransferSTLStyleMapINSt3__23mapIN4core12basic_stringIcNS3_20StringStorageDefaultIcEEEES7_NS1_4lessIS7_EE13stl_allocatorINS1_4pairIKS7_S7_EEL18MemLabelIdentifier1ELi16EEEEEEvRT_17TransferMetaFlags
Slg:_Type_MakeByRefType_m1323101575
qjd:__ZN2UI6Canvas27UpdateEventIndexesRecursiveERi
yA:__ZN7mecanim9animation18EvaluateRootMotionERKNS0_18ClipMuscleConstantERKNS0_15ClipMuscleInputEPKfS8_RNS0_12MotionOutputEb
v$:__ZN11UnityEngine15CloudWebService16SessionContainer21PrepareDataErrorEventERN4core12basic_stringIcNS2_20StringStorageDefaultIcEEEE
f2c:_UNITY_FT_Outline_New
TVg:__ZL98Event_t3028476042_CustomAttributesCacheGenerator_Event_Internal_MakeMasterEventCurrent_m3691313142P21CustomAttributesCache
GRj:__ZNSt3__218uninitialized_copyIPNS_4pairIK10KeyWrapperIPK19Il2CppGenericMethodEP10MethodInfoEESB_EET0_T_SD_SC_
mGb:__Z19TransferField_ArrayI19StreamedBinaryWriteILb0EE27Converter_SimpleNativeClassI8GUIStyleEEvRK23StaticTransferFieldInfoR31RuntimeSerializationCommandInfoRT0_
jOh:_Scrollbar_SetDirection_m3264558284
wck:_emscripten_glCopyTexSubImage2D__wrapper
n7a:__ZNK13ScreenManager12GetIsFocusedEv
ZWj:_maybe_finalize
lKi:_PlayableHandle_IsValidInternal_m3315870994
_6f:_RemotingServices_RegisterInternalChannels_m1827304423
pGc:__Z35Transfer_Blittable_FixedBufferFieldI8JSONReadiEvRK29SerializationCommandArgumentsR31RuntimeSerializationCommandInfo
ppj:__ZNSt3__213__vector_baseIN6il2cpp2os19SocketHandleWrapperENS_9allocatorIS3_EEED2Ev
INe:_ASN1_get_Length_m3359111015
FDi:_LayerMask_NameToLayer_m3213714080
dxh:__Z66RuntimeInvoker_InternalShaderChannel_t3331827198_Int32_t2071877448PFvvEPK10MethodInfoPvPS4_
Luh:__Z77RuntimeInvoker_RuntimeObject_Int32_t2071877448_RuntimeObject_SByte_t454417549PFvvEPK10MethodInfoPvPS4_
hc:invoke_viiffi
xVe:_RegionInfo_GetByTerritory_m3452395101
Q6b:__ZN13sorted_vectorINSt3__24pairIN4core12basic_stringIcNS2_20StringStorageDefaultIcEEEEPK17MessageIdentifierEEN10vector_mapIS6_S9_NS0_4lessIS6_EENS0_9allocatorISA_EEE13value_compareESF_E10insert_oneERKSA_
PH:__ZNSt3__227__insertion_sort_incompleteIRPFbPKN8Animator11AnimatorJobES4_EPS4_EEbT0_S9_T_
g$:__ZNSt3__26__treeINS_12__value_typeIN4core12basic_stringIcNS2_20StringStorageDefaultIcEEEEjEENS_19__map_value_compareIS6_S7_NS_4lessIS6_EELb1EEE13stl_allocatorIS7_L18MemLabelIdentifier88ELi16EEE4findIS6_EENS_15__tree_iteratorIS7_PNS_11__tree_nodeIS7_PvEEiEERKT_
dig:_Thread_GetCachedCurrentUICulture_m5590127
Wwh:__Z36RuntimeInvoker_Matrix4x4_t2933234003PFvvEPK10MethodInfoPvPS4_
n1a:__ZNK12CubemapArray20GetRuntimeMemorySizeEv
OUi:_GUILayoutEntry_get_margin_m3913640621
_ni:_CrossAppDomainSink_get_TargetDomainId_m775204051
ppb:__Z14resize_trimmedINSt3__26vectorIN9ShaderLab18SerializedPropertyENS0_9allocatorIS3_EEEEEvRT_j
Unf:_List_1_CheckMatch_m4018158235_gshared
eBb:__Z18Transfer_BlittableI17RemapPPtrTransferLb0EN4math12int3_storageEEvRK29SerializationCommandArgumentsR31RuntimeSerializationCommandInfo
FLe:_Context_t2636657155_marshal_pinvoke_back
pnj:__ZN6il2cpp2vm13MetadataCache38GetMethodInfoFromMethodDefinitionIndexEi
y5d:_Byte_System_IConvertible_ToDateTime_m1583041031
e5i:__ZL24UnresolvedVirtualCall_68P12Il2CppObjectS0_iS0_S0_S0_S0_S0_S0_PK10MethodInfo
m8a:__ZN10VertexData8TransferI24GenerateTypeTreeTransferEEvRT_
vYg:__ZL100CanvasRenderer_t261436805_CustomAttributesCacheGenerator_CanvasRenderer_get_absoluteDepth_m606892957P21CustomAttributesCache
lRj:__ZN13Il2CppHashMapIPK19Il2CppGenericMethodP10MethodInfoN6il2cpp8metadata23Il2CppGenericMethodHashENS6_26Il2CppGenericMethodCompareENSt3__29allocatorINS9_4pairIK10KeyWrapperIS2_ES4_EEEEEC2EjRKS7_RKS8_
zRe:_EncryptedData_get_EncryptionAlgorithm_m1301274243
u5h:_EqualityComparer_1_System_Collections_IEqualityComparer_Equals_m1089835085_gshared
M1b:__ZL10CullLightsRK22SceneCullingParametersR11CullResults
vUd:_Dropdown__cctor_m264401557
z2d:_Array_IndexOf_m2819632474
ELi:_Ray_GetPoint_m2427899009_AdjustorThunk
iki:_Comparer_1__cctor_m3996541505_gshared
YC:__ZN7mecanim12statemachine20GetBlendTreeConstantERKNS0_13StateConstantEi
E9b:__Z40GetTemporaryCachePathApplicationSpecificv
Tka:__ZN9GfxDevice16EndAsyncJobFrameEv
uYd:_Image_get_minWidth_m1809071077
Wzj:__ZNK15dense_hashtableINSt3__24pairIK10KeyWrapperINS1_IPK12PropertyInfoP11Il2CppClassEEEjEES9_17ReflectionMapHashIS8_EN14dense_hash_mapIS9_jSD_NS9_14EqualsComparerINS0_8equal_toIS8_EEEENS0_9allocatorISB_EEE9SelectKeyESI_SK_E10test_emptyERK30dense_hashtable_const_iteratorISB_S9_SD_SM_SI_SK_E
v3c:_UNITY_tt_face_load_hhea
Rpi:_ContextAttribute_IsNewContextOK_m2186905629
Mee:_Convert_ToBase64String_m1936815455
Vk:___syscall3
Yk:___syscall6
nma:__ZN9GfxDevice15GetNextCPUFenceEv
_k:___syscall4
joe:_Decimal_ToString_m759431975
pwf:_Collection_1_System_Collections_IList_get_IsFixedSize_m2204750039_gshared
i8i:__ZL25UnresolvedVirtualCall_234P12Il2CppObject19Vector4_t2243707581PK10MethodInfo
swb:__ZNSt3__26__treeINS_12__value_typeIN4core12basic_stringIcNS2_20StringStorageDefaultIcEEEEPN16MemoryFileSystem4NodeEEENS_19__map_value_compareIS6_SA_NS_4lessIS6_EELb1EEE13stl_allocatorISA_L18MemLabelIdentifier55ELi16EEE7destroyEPNS_11__tree_nodeISA_PvEE
aQd:_ColorBlock_get_fadeDuration_m987725262
C1g:__ZL195U3CMouseDragOutsideRectU3Ec__Iterator1_t2599668326_CustomAttributesCacheGenerator_U3CMouseDragOutsideRectU3Ec__Iterator1_System_Collections_Generic_IEnumeratorU3CobjectU3E_get_Current_m2602955272P21CustomAttributesCache
bwh:__Z86RuntimeInvoker_Void_t1841601450_RuntimeObject_Vector3U26_t425862308_RayU26_t3651946800PFvvEPK10MethodInfoPvPS4_
Kbg:_CryptographicException__ctor_m2415891459
aUc:__ZNSt3__26__sortIR24RayHitsByDepthComparitorP12RaycastHit2DEEvT0_S5_T_
IJc:__ZN27PerformanceReportingManager23VirtualRedirectTransferER14SafeBinaryRead
ela:__ZN9GfxDevice27UpdateComputeSkinPoseBufferE15ComputeBufferIDP12SkinMeshInfo
aif:_List_1_AddCollection_m3266731889_gshared
TAg:__ZL59ITrackingHandler_t2759960940_CustomAttributesCacheGeneratorP21CustomAttributesCache
ol:_emscripten_glShaderBinary
Aig:_DelegatePInvokeWrapper_ThreadStart_t3437517264
VEe:_Array_qsort_TisVector2_t2243707579_TisVector2_t2243707579_m3308480721_gshared
B1d:_Array_InternalArray__RemoveAt_m1126483634
pvb:__ZNK20LocalFileSystemPosix6ExistsERK13FileEntryData
pci:_InternalEnumerator_1_Dispose_m4038440306_AdjustorThunk
bth:__Z21RuntimeInvoker_Guid_tPFvvEPK10MethodInfoPvPS4_
bUi:_GUI_CallWindowDelegate_m2603162942
TUf:_DictionaryNodeEnumerator_get_DictionaryNode_m3521889822
Yz:__ZN7mecanim5human19MaskHasLeftFootGoalERKNS_6bitsetILj70EEE
yEh:__Z101RuntimeInvoker_Int32_t2071877448_RuntimeObject_Color32_t874517518_Int32_t2071877448_Int32_t2071877448PFvvEPK10MethodInfoPvPS4_
Mmd:__Z58Register_UnityEngine_Canvas_GetETC1SupportedCanvasMaterialv
LIb:__ZN17AnimationCurveTplIfE8TransferI18StreamedBinaryReadILb1EEEEvRT_
lme:_DateTimeOffset_GetHashCode_m3312197462_AdjustorThunk
Tqd:__ZN18UnityConnectClientD2Ev
qXf:_ServicePoint_set_UseNagleAlgorithm_m2618011464
xsj:_il2cpp_set_data_dir
hwi:_Uri_get_IsUnc_m2111738174
jHg:__ZL79Convert_t2607082565_CustomAttributesCacheGenerator_Convert_ToUInt64_m1691869628P21CustomAttributesCache
ZMa:__ZN16LevelGameManager23VirtualRedirectTransferER19StreamedBinaryWriteILb0EE
h8a:__Z32TransferEnumWithNameForceIntSizeI14SafeBinaryRead16GfxPrimitiveTypeEvRT_RT0_PKc17TransferMetaFlags
Yii:_DefaultComparer__ctor_m1961329658_gshared
Och:_ParameterBuilder_get_Attributes_m2421099277
ICh:__Z66RuntimeInvoker_Void_t1841601450_ObjectU26_t597476745_RuntimeObjectPFvvEPK10MethodInfoPvPS4_
Ddh:_TypeBuilder_IsValueTypeImpl_m1499671481
Xpd:__ZN11UnityEngine15PlatformWrapper30GetGraphicsDriverLibraryStringEv
mUg:__ZL51UIVertex_t1204258818_CustomAttributesCacheGeneratorP21CustomAttributesCache
Cif:_List_1_get_Count_m1752597149_gshared
_Jf:_EncryptedPrivateKeyInfo_Decode_m1706190306
l_h:_ValueCollection_GetEnumerator_m401908452_gshared
gKb:__Z18Transfer_BlittableI18StreamedBinaryReadILb0EELb0E4AABBEvRK29SerializationCommandArgumentsR31RuntimeSerializationCommandInfo
r3i:_AudioListener_ClearExtensionProperties_m2267088681
HM:__ZN16MecanimAnimation24DeleteAnimatedPropertiesERP26IAnimatedPropertyEvaluator
jqh:__Z42RuntimeInvoker_CspProviderFlags_t105264000PFvvEPK10MethodInfoPvPS4_
fje:_Convert_ToUInt16_m1665900934
HGf:_Converter_2_BeginInvoke_m898151494_gshared
wVe:_RegionInfo__ctor_m2058831971
VTb:__Z14DrawGUITextureRK5RectTIfEP7Texture11ColorRGBA32P8Materiali
kSh:_Text_get_supportRichText_m3291105891
DG:__ZN9BlobWrite8TransferI22OffsetPtrArrayTransferIKN4math7_float4EEEEvRT_PKc17TransferMetaFlags
P$d:_LayoutElement_set_ignoreLayout_m1530090081
UVi:_GUIUtility_set_systemCopyBuffer_m3458871692
TQc:__ZNK11b2EdgeShape7RayCastEP15b2RayCastOutputRK14b2RayCastInputRK11b2Transformi
xri:_MatchCollection_GetEnumerator_m3516985966
_Fc:__ZN9JSONWrite8TransferI4AABBEEvRT_PKc17TransferMetaFlags
geg:_UTF7Encoding__ctor_m2365939916
ZKa:__ZN25MultiBlocksMemoryFileData9SetLengthEy
$dj:_Animator_SetTrigger_m2003713590
mAi:_DelegatePInvokeWrapper_StateChanged_t2480912210
WKh:_MatEntry__ctor_m3650167335
o_i:_ListPool_1_U3Cs_ListPoolU3Em__0_m441310157_gshared
CKc:__ZN10Collider2D13AwakeFromLoadE17AwakeFromLoadMode
r2a:__ZNK9Texture2D20GetRuntimeMemorySizeEv
Ylg:_TypeInitializationException__ctor_m2993591639
gxe:_Array_InternalArray__IEnumerable_GetEnumerator_TisRefEmitPermissionSet_t2708608433_m3450905212_gshared
iCc:__ZN5Unity9rapidjson13GenericReaderINS0_4UTF8IcEES3_13JSONAllocatorE9ParseTrueILj0ENS0_19GenericStringStreamIS3_EENS0_15GenericDocumentIS3_S4_S4_EEEEvRT0_RT1_
wm:_emscripten_glUniform2iv
gCg:__ZL46DES_t1353513560_CustomAttributesCacheGeneratorP21CustomAttributesCache
wXe:_Int16_System_IConvertible_ToInt64_m733340257
AGg:__ZL79Convert_t2607082565_CustomAttributesCacheGenerator_Convert_ToSingle_m2156102599P21CustomAttributesCache
a0c:_UNITY_FT_Outline_Transform
Mvc:__Z60Register_UnityEngine_Sprites_DataUtility_Internal_GetMinSizev
Mij:__ZN6il2cpp2vm5Class10GetMethodsEP11Il2CppClassPPv
Ztd:__ZNK25UnityWebRequestJavaScript17GetUploadProgressEv
BZb:__Z30AddDefaultStreamsToMeshBuffersR9GfxDeviceR11MeshBuffersRK16DrawBuffersRange17ShaderChannelMaskS6_
rEh:__Z86RuntimeInvoker_Int32_t2071877448_Vector2_t2243707579_Vector2_t2243707579_RuntimeObjectPFvvEPK10MethodInfoPvPS4_
Rxa:__ZN7ApiGLES17DeleteFramebufferERN2gl6HandleILNS0_10ObjectTypeE9EEES3_
MAa:__ZN15UniformTFMethod13MapBoneBufferEj
lNf:_RecordProtocol_SendAlert_m2816808523
hid:__ZN2UI14CanvasRendererD2Ev
dTg:__ZL113PlayerConnection_t3517219175_CustomAttributesCacheGenerator_PlayerConnection_ConnectedCallbackInternal_m286884446P21CustomAttributesCache
N3f:_MethodCall_get_LogicalCallContext_m3769562079
MFj:__ZN6il2cpp6icalls8mscorlib6System5Array8SetValueEP11Il2CppArrayP12Il2CppObjectS5_
B5e:_SynchronizedReader_Read_m1399666181
ufh:_MonoEvent_get_Name_m2796714646
XUa:__Z14resize_trimmedINSt3__26vectorI4PPtrI23ShaderVariantCollectionE13stl_allocatorIS4_L18MemLabelIdentifier53ELi16EEEEEvRT_j
fPb:__Z9SetupArgviPPKc
Kdj:_AnimationOffsetPlayable__ctor_m1644499845
EFh:__Z53RuntimeInvoker_Void_t1841601450_LabelData_t3712112744PFvvEPK10MethodInfoPvPS4_
Bxe:_Array_InternalArray__IEnumerable_GetEnumerator_TisHitInfo_t1761367055_m2486283755_gshared
ZMd:_PointerEventData_set_worldNormal_m2025727441
WQi:_Transform_INTERNAL_get_worldToLocalMatrix_m2822011810
sOf:_Context_get_SentConnectionEnd_m3114190867
xFa:__ZN12ImmediatePtrI10GameObjectE8TransferI19StreamedBinaryWriteILb0EEEEvRT_
r1a:__ZN12CubemapArray23VirtualRedirectTransferER24GenerateTypeTreeTransfer
m4i:__ZL24UnresolvedVirtualCall_22P12Il2CppObjectS0_iS0_S0_S0_PK10MethodInfo
xca:__ZN12FileAccessor4OpenER15FileSystemEntry14FilePermission16FileAutoBehavior
cVa:__ZNSt3__26vectorI4PPtrI6ShaderE13stl_allocatorIS3_L18MemLabelIdentifier53ELi16EEE8__appendEj
O2i:_AudioSource_get_spatializeInternal_m4243931620
nVa:__ZN4PPtrI6ShaderE8TransferI18StreamedBinaryReadILb0EEEEvRT_
qZc:__ZL12PhysxJobFuncPN5physx10PxBaseTaskE
w5a:__ZN23TransformChangeDispatch32QueueTransformChangeIfHasChangedERK15TransformAccess
CMd:_PointerEventData_set_clickTime_m3931922487
Cba:__ZN15dense_hashtableINSt3__24pairIKiP4RTTIEEiN11TypeManager27HashFunctorPersistentTypeIDEN14dense_hash_mapIiS4_S7_NS0_8equal_toIiEE13stl_allocatorIS5_L18MemLabelIdentifier7ELi16EEE9SelectKeyESA_SD_E12maybe_shrinkEv
IYe:_NumberFormatter_AppendNonNegativeNumber_m629862866
X$a:__ZNSt3__26vectorINS_4pairIN9ShaderLab16FastPropertyNameEN18UnityPropertySheet11UnityTexEnvEEENS_9allocatorIS6_EEE21__push_back_slow_pathIKS6_EEvRT_
IKa:__ZN15ArchiveReadFile5WriteEyPKvPy
lli:_ResourceInfo__ctor_m2401359321_AdjustorThunk
VPj:__ZN6il2cpp2os26LibraryNamePrefixAndSuffixC2EPKcS3_
ZDe:_Array_InternalArray__set_Item_TisMonoResource_t3127387157_m732733855_gshared
OYi:_UnityEvent_1_Invoke_m1599856953_gshared
Ube:_Hashtable__ctor_m392789568
dgg:_UTF7Encoding__cctor_m4192443836
B:tempValue
o8b:__Z29StdTemplateConversionFunctionIaiEbPvR14SafeBinaryRead
WAi:_Display_get_systemHeight_m3140485477
zff:_List_1_Insert_m4101600027_gshared
AXe:_Int16_System_IConvertible_ToSingle_m3277935657
o8:__Z29scripting_class_from_fullnamePKcS0_S0_
qSi:_Vector3_get_sqrMagnitude_m1445517847_AdjustorThunk
XMh:_Raycast3DCallback_Invoke_m2271859924
xD:__ZN26AnimatorControllerPlayable18DeallocateBindingsEv
JW:__ZN11AudioSource19CreateOpenALRolloffEfff
i4c:_UNITY_FT_Stream_ReadAt
Rlh:__Z38RuntimeInvoker_MemberTypes_t3343038963PFvvEPK10MethodInfoPvPS4_
JUh:_Enumerator_get_CurrentKey_m2387752419_AdjustorThunk
Amj:__ZN15dense_hashtableINSt3__24pairIK10KeyWrapperIN6il2cpp5utils13dynamic_arrayIPK10Il2CppTypeLj4EEEEPFvvEEESA_NS3_8metadata19Il2CppSignatureHashEN14dense_hash_mapISA_SD_SG_NSA_14EqualsComparerINSF_22Il2CppSignatureCompareEEENS0_9allocatorISE_EEE9SelectKeyESK_SM_E9set_valueEPSE_RKSE_
Puj:_RaycastHit_get_point_m3350410423
TBi:_UnityEventBase_FindMethod_m2780816114
amg:_UInt16_System_IConvertible_ToBoolean_m887616848
vX:__ZN11AudioModule22CreateAudioClipFromWWWEP10IWWWStreamPKcbbi
Ueg:_StringBuilder_set_Length_m3039225444
MBh:__Z37RuntimeInvoker_AspectMode_t1166448724PFvvEPK10MethodInfoPvPS4_
iwf:_Collection_1_System_Collections_IList_Contains_m3870109702_gshared
Fue:_Array_InternalArray__ICollection_Contains_TisRaycastResult_t21186376_m3188614988_gshared
x_h:_Dictionary_2_System_Collections_Generic_ICollectionU3CSystem_Collections_Generic_KeyValuePairU3CTKeyU2CTValueU3EU3E_get_IsReadOnly_m1111602362_gshared
Qje:_CultureAwareComparer_GetHashCode_m3681260951
qkd:__Z13RegisterClassIN2UI11CanvasGroupEEvv
mLg:__ZL90Application_t354826772_CustomAttributesCacheGenerator_Application_get_platform_m1727035749P21CustomAttributesCache
TZi:_U3CStartU3Ec__Iterator0__ctor_m951808111_gshared
Aac:__ZN6prcoreL11inner_clearILj4EEEvPhjjj
tf:_emscripten_glClear
eNh:_Selectable__ctor_m1440593935
OWj:_GC_initialize_offsets
Lfa:__ZNK8Playable6HandleEv
M4j:___cxa_guard_abort
x7g:_CustomAttributeTypedArgument_t1498197914_marshal_pinvoke_back
zaa:__ZN14MessageHandler28MessageIDToMessageIdentifierEi
hWf:_HttpRequestCreator_Create_m3607509610
KWg:__ZL50GUISkin_t1436893342_CustomAttributesCacheGeneratorP21CustomAttributesCache
I8a:__ZNK11SpriteAtlas20GetRuntimeRenderDataEPK6Sprite
Vof:_List_1_Shift_m3824049528_gshared
G7f:_ArrayFixupRecord__ctor_m3659990982
EOf:_Context_get_RandomCS_m3946020109
urg:__ZL72IntPtr_t_CustomAttributesCacheGenerator_IntPtr_op_Inequality_m3044532593P21CustomAttributesCache
HTd:_Dropdown_get_onValueChanged_m3334401942
pYj:__ZN6il2cpp2vm10WaitHandle19NewManualResetEventEb
_Bf:_ReadOnlyCollection_1_System_Collections_IList_Contains_m3707723158_gshared
i0c:__ZN20TextRenderingPrivate15DynamicFontData36GetFaceForCharacterIfAvailableInFontERKNS_7FontRefERK13dynamic_arrayI4PPtrIN13TextRendering4FontEELj4EEj
z3i:_AudioExtensionManager_GetReadyToPlay_m3272224102
tB:__ZN7mecanim14ValueArrayCopyILb0EEEvPKNS_10ValueArrayEPS1_
IO:__Z51Register_UnityEngine_Animator_get_hasBoundPlayablesv
baj:_Nullable_1_ToString_m1238126148_AdjustorThunk
kWg:__ZL87GUIStyle_t1799908754_CustomAttributesCacheGenerator_GUIStyle_get_fixedWidth_m2528231637P21CustomAttributesCache
Kd:emscriptenWebGLGetUniform
Co:FUNCTION_TABLE_iiiiiiiiiii
J1a:__Z32TransferEnumWithNameForceIntSizeI14SafeBinaryRead13TextureFormatEvRT_RT0_PKc17TransferMetaFlags
c2g:__ZL86Scrollbar_t3248359358_CustomAttributesCacheGenerator_Scrollbar_ClickRepeat_m3403943364P21CustomAttributesCache
r3b:__ZL10CleanUpJobP20CullingGroupsJobData
i7d:_Char_CompareTo_m3044885427_AdjustorThunk
F1e:_FileStream_GetSecureFileName_m508045384
AZb:__Z20IsRunningNativeTestsv
Kei:_InternalEnumerator_1_System_Collections_IEnumerator_get_Current_m2035754659_AdjustorThunk
agb:__ZN11TimeManager23VirtualRedirectTransferER17RemapPPtrTransfer
MTb:__ZN13RenderManager15BatchModeUpdateEv
zaj:_Predicate_1_EndInvoke_m973058386_gshared
_Ng:__ZL52LayerMask_t3188175821_CustomAttributesCacheGeneratorP21CustomAttributesCache
Q7a:__ZN14SafeBinaryRead21TransferSTLStyleArrayI13dynamic_arrayI8Vector2fLj4EEEEvRT_17TransferMetaFlags
zFa:__ZN17PersistentManager51InstanceIDToLocalSerializedObjectIdentifierInternalEiR31LocalSerializedObjectIdentifier
uPc:__ZN10ClipperLib7Clipper15SetWindingCountERNS_5TEdgeE
YS:__ZL16FMOD_ErrorString11FMOD_RESULT_658
Lhh:_StrongNameKeyPair_System_Runtime_Serialization_IDeserializationCallback_OnDeserialization_m2330221363
d9c:_UNITY_FT_Create_Class_cff_services
Wii:_DefaultComparer__ctor_m1661558765_gshared
nd:_glVertexAttribIPointer
apg:_UnhandledExceptionEventHandler_EndInvoke_m2207457167
wRg:__ZL114ManagedStreamHelpers_t1667331974_CustomAttributesCacheGenerator_ManagedStreamHelpers_ManagedStreamSeek_m4230262206P21CustomAttributesCache
Zwd:_HMAC_set_HashName_m457235014
slc:__ZNK6Sprite10GetPaddingE20SpriteRenderDataMode
Phj:__ZN6il2cpp2vm5Class11GetPtrClassEPK10Il2CppType
Ote:_Array_InternalArray__ICollection_Contains_TisTableRange_t2011406615_m605506746_gshared
R_h:_Dictionary_2_Add_m1296007576_gshared
Pie:_Decimal_op_Explicit_m729046406
Ubg:_CryptoConfig_CreateFromName_m2169102076
PVd:_Graphic_OnEnable_m2900261811
Xbg:_CryptographicUnexpectedOperationException__ctor_m3552441227
wXb:__ZN14qsort_internal5QSortIP15RODataDepthPassi17ROSorterDepthPassEEvT_S4_T0_T1_
U8d:_ArrayListWrapper_Clear_m321161741
P_d:_InputField_LineDownCharacterPosition_m2690468785
h4c:_UNITY_ft_glyphslot_alloc_bitmap
fGe:_Array_Sort_TisVector2_t2243707579_TisVector2_t2243707579_m2582252549_gshared
aog:_UInt64_System_IConvertible_ToDouble_m2828923873
olj:__ZN15dense_hashtableI10KeyWrapperIPK17Il2CppGenericInstES4_N6il2cpp8metadata21Il2CppGenericInstHashEN14dense_hash_setIS4_S7_NS4_14EqualsComparerINS6_24Il2CppGenericInstCompareEEENSt3__29allocatorIS4_EEE8IdentityESB_SE_E16reset_thresholdsEv
Tjf:_List_1_System_Collections_IList_set_Item_m1129584681_gshared
Lhg:_SendOrPostCallback__ctor_m107067079
E5c:_ft_raster1_render
xxc:__Z47Register_UnityEngine_Mesh_RecalculateBoundsImplv
Kff:_List_1_set_Capacity_m491101164_gshared
w3j:__ZNKSt3__221__basic_string_commonILb1EE20__throw_length_errorEv
rfg:_StringBuilder_Insert_m1733097906
lki:_Comparer_1__ctor_m1157133632_gshared
$Sf:_SslStreamBase_get_HashStrength_m480059173
Eya:__ZN18GfxFramebufferGLES13ReadbackImageER14ImageReferenceiiiiii
Zkh:__Z52RuntimeInvoker_Decimal_t724701077_Single_t2076509932PFvvEPK10MethodInfoPvPS4_
MCc:__ZN5Unity9rapidjson6WriterI16TempBufferWriterNS0_4UTF8IcEES4_13JSONAllocatorE11WriteStringEPKcj
$Yh:_ValueCollection_System_Collections_Generic_ICollectionU3CTValueU3E_Clear_m3271993638_gshared
Nvh:__Z35RuntimeInvoker_Position_t3781184359PFvvEPK10MethodInfoPvPS4_
xee:_Enumerator_MoveNext_m1419609883
yS:__ZN4FMOD7Channel19setReverbPropertiesEPK29FMOD_REVERB_CHANNELPROPERTIES
Z9:__ZN13MonoBehaviour22GetScriptFullClassNameEv
Otj:_il2cpp_object_get_class
Dwg:__ZL111DerivedType_t1016359113_CustomAttributesCacheGenerator_DerivedType_MakeGenericType_m742223168____typeArguments0P21CustomAttributesCache
pLi:_RangeInt_get_end_m480861812
vEf:_ReadOnlyCollection_1_Contains_m1816350632_gshared
qWf:_ServicePointManager_FindServicePoint_m3137356168
cNb:__ZN13MonoBehaviour9CallAwakeEv
bCi:_UnityEvent__ctor_m3488719202
fYa:__ZN20SphericalHarmonicsL211AddWeightedERKS_f
pNd:_PointerInputModule_GetPointerData_m1695674453
mqh:__Z90RuntimeInvoker_Void_t1841601450_RuntimeObject_RuntimeObject_RuntimeObject_SByte_t454417549PFvvEPK10MethodInfoPvPS4_
rCb:__Z19TransferField_ArrayI17RemapPPtrTransfer27Converter_SimpleNativeClassI8GUIStyleEEvRK23StaticTransferFieldInfoR31RuntimeSerializationCommandInfoRT0_
u7:__ZL22StaticInitializeShaderPv
Lje:_Convert_ToUInt64_m345450801
eaj:_Predicate_1_BeginInvoke_m2559992383_gshared
sDc:__ZN9JSONWrite8TransferI10ColorRGBAfEEvRT_PKc17TransferMetaFlags
GAf:_ReadOnlyCollection_1_get_Item_m1909688500_gshared
taa:__Z25scripting_method_get_name18ScriptingMethodPtr
KAb:__Z19TransferField_ArrayI14SafeBinaryRead16Converter_StringEvRK23StaticTransferFieldInfoR31RuntimeSerializationCommandInfoRT0_
R2j:_rename
QWj:_GC_exit_check
v9e:_NotSupportedException__ctor_m3232764727
yu:__ZN7mecanim9animation9DenseClip8TransferI14SafeBinaryReadEEvRT_
JVf:_TypeConverterAttribute_Equals_m2330345916
lvh:__Z90RuntimeInvoker_Boolean_t3825574718_Int32_t2071877448_Int32U26_t455636984_Int32_t2071877448PFvvEPK10MethodInfoPvPS4_
uZf:_X509Certificate2_get_NotAfter_m3430171627
U8:__Z20UnlockObjectCreationv
SNg:__ZL89Input_t1785128008_CustomAttributesCacheGenerator_Input_INTERNAL_CALL_GetTouch_m1374677231P21CustomAttributesCache
idi:_InternalEnumerator_1_System_Collections_IEnumerator_get_Current_m1038263751_gshared
Cwh:__Z54RuntimeInvoker_Int32_t2071877448_LayerMask_t3188175821PFvvEPK10MethodInfoPvPS4_
mzb:__ZN15SerializeTraitsI13dynamic_arrayIyLj8EEE19ResizeSTLStyleArrayERS1_i
d7b:__ZNSt3__26vectorINS_4pairIN4core12basic_stringIcNS2_20StringStorageDefaultIcEEEES6_EE13stl_allocatorIS7_L18MemLabelIdentifier38ELi16EEE6insertENS_11__wrap_iterIPKS7_EERSD_
Snc:__ZN8Material28ApplyMaterialPropertyDrawersEv
uG:__ZN9BlobWrite8TransferI22OffsetPtrArrayTransferI9OffsetPtrIN7mecanim12statemachine18StateMachineMemoryEEEEEvRT_PKc17TransferMetaFlags
Wud:__ZNK14TransportProtoI12HeaderHelper15DownloadHandler13UploadHandler14ResponseHelperE13IsSynchronousEv
r2c:_UNITY_ft_smooth_renderer_class_pic_free
Dmf:_List_1_System_Collections_IList_Remove_m3763718607_gshared
kf:_emscripten_glStencilOpSeparate
UGd:_String_Concat_m2000667605
_hj:__ZN24dense_hashtable_iteratorINSt3__24pairIK10KeyWrapperIPK22Il2CppGenericParameterEP11Il2CppClassEES6_N6il2cpp5utils11PointerHashIS4_EEN14dense_hash_mapIS6_S9_SE_NS6_14EqualsComparerINS0_8equal_toIS5_EEEENS0_9allocatorISA_EEE9SelectKeyESJ_SL_E30advance_past_empty_and_deletedEv
dSj:__ZN6il2cpp2vm6String8NewUtf16EPKDsi
xXg:__ZL61Tile_t429716126_CustomAttributesCacheGenerator_m_ColliderTypeP21CustomAttributesCache
ZOj:__ZN6il2cpp2os10ThreadImpl12QueueUserAPCEPFvPvES2_
rP:__Z32TransferEnumWithNameForceIntSizeI14SafeBinaryReadN10SampleClip17CompressionFormatEEvRT_RT0_PKc17TransferMetaFlags
Jqd:__ZN22BaseUnityConnectClient10QueueEventERN11UnityEngine15CloudWebService17CloudServiceEventEPKcjb
sBh:__Z71RuntimeInvoker_Bounds_t3033363703_RuntimeObject_Matrix4x4U26_t266301477PFvvEPK10MethodInfoPvPS4_
JJe:_ExecuteEvents_GetEventHandler_TisRuntimeObject_m3333041576_gshared
Xjf:__ZN23InterfaceActionInvoker2IP28UICharInfoU5BU5D_t2749705857iE6InvokeEjP11Il2CppClassP12Il2CppObjectS1_i
FSi:_Vector4__ctor_m3879980823_AdjustorThunk
fBd:_SHA384Managed_unpackWord_m2501009050
H1c:_UNITY_FT_Hypot
O3d:_BitConverter_ToInt64_m1329623425
Fec:__ZN8RendererC2E12RendererType18MemLabelIdentifier18ObjectCreationMode
RDg:__ZL95ASCIIEncoding_t3022927988_CustomAttributesCacheGenerator_ASCIIEncoding_GetByteCount_m1396020051P21CustomAttributesCache
$sj:_il2cpp_class_is_abstract
qQi:_TrackedReference__ctor_m1592856011
Df:_emscripten_glGetError
oBj:__ZN15dense_hashtableINSt3__24pairIK10KeyWrapperIPK14Il2CppAssemblyEPK22Il2CppMonoAssemblyNameEES6_N6il2cpp5utils11PointerHashIS4_EEN14dense_hash_mapIS6_SA_SF_NS6_14EqualsComparerINS0_8equal_toIS5_EEEENS0_9allocatorISB_EEE9SelectKeyESK_SM_E14squash_deletedEv
$ih:__Z70RuntimeInvoker_Boolean_t3825574718_RuntimeObject_UInt64U26_t1611942494PFvvEPK10MethodInfoPvPS4_
jT:__Z14FMOD_FILE_SeekPvjS_
Q3f:_MethodCall_get_Properties_m1893707917
Lrg:__ZL72Enum_t2459695545_CustomAttributesCacheGenerator_Enum_ToObject_m604645223P21CustomAttributesCache
kWh:_ShimEnumerator_get_Entry_m2387156530_gshared
asg:__ZL82RuntimeArray_CustomAttributesCacheGenerator_Array_SetValue_m2421438042____indices1P21CustomAttributesCache
_mj:__ZN14dense_hash_mapI10KeyWrapperIN6il2cpp5utils13dynamic_arrayIPK10Il2CppTypeLj4EEEEPFvvENS1_8metadata19Il2CppSignatureHashENS8_14EqualsComparerINSB_22Il2CppSignatureCompareEEENSt3__29allocatorINSG_4pairIKS8_SA_EEEEEC2EjRKSC_RKSF_
cJg:__ZL87BigInteger_t925946153_CustomAttributesCacheGenerator_BigInteger_op_Equality_m2683055762P21CustomAttributesCache
nod:__Z56Register_UnityEngine_Analytics_CustomEventData_AddStringv
u4b:__ZNK13RenderTexture32CalculateNeedsInvertedProjectionEv
m9b:__ZN10systeminfo18GetOperatingSystemEv
Lf:emscriptenWebGLGet
Mca:__Z19CanReplaceComponentRN5Unity9ComponentEPKNS_4TypeEPN4core12basic_stringIcNS5_20StringStorageDefaultIcEEEE
$sg:__ZL77RuntimeArray_CustomAttributesCacheGenerator_Array_ConstrainedCopy_m1922927602P21CustomAttributesCache
dgc:__ZN12CubemapArray11InitTextureEiii13TextureFormatb
Skf:_List_1_GrowIfNeeded_m2433342921_gshared
Onc:__Z17GetSceneBuildInfoRKN4core12basic_stringIcNS_20StringStorageDefaultIcEEEEiR14SceneBuildInfo
bMa:__ZNK15Lz4Decompressor20DecompressStreamInitEPPv
gyj:__ZN24dense_hashtable_iteratorINSt3__24pairIK10KeyWrapperIPK10Il2CppTypeEjEES6_N6il2cpp8metadata14Il2CppTypeHashEN14dense_hash_mapIS6_jSB_NS6_14EqualsComparerINSA_26Il2CppTypeEqualityComparerEEENS0_9allocatorIS8_EEE9SelectKeyESF_SH_E30advance_past_empty_and_deletedEv
etf:_Collection_1_set_Item_m3803272710_gshared
Cgh:_MonoMethodInfo_t3646562144_marshal_pinvoke_cleanup
zZf:_X509Certificate2_get_SignatureAlgorithm_m3069898012
gWf:_HttpRequestCreator__ctor_m2513916021
O_e:_Int64_System_IConvertible_ToSingle_m1678482180
bH:__ZN7mecanim5human13HumanFixTwistEPKNS0_5HumanEPNS_8skeleton13SkeletonPoseTIN4math4trsXEEES9_iiRKf
l_b:__ZL24AssignProjectorQueuesJobP30AssignProjectorQueuesJobHeader
vjg:_TimeSpan_get_Hours_m3804628138
g6i:__ZL25UnresolvedVirtualCall_124P12Il2CppObjectPK10MethodInfo
YUd:_FontData_set_alignByGeometry_m2819509290
kMj:__ZN14dense_hash_mapI10KeyWrapperIP12Il2CppObjectEN6il2cpp2gc9CachedCCWENS4_5utils11PointerHashIS1_EENS3_14EqualsComparerINSt3__28equal_toIS2_EEEENSB_9allocatorINSB_4pairIKS3_S6_EEEEEC2EjRKS9_RKSE_
Gsi:_Regex__ctor_m3250610064
Gmj:__ZN15dense_hashtableINSt3__24pairIK10KeyWrapperIN6il2cpp5utils13dynamic_arrayIPK10Il2CppTypeLj4EEEEPFvvEEESA_NS3_8metadata19Il2CppSignatureHashEN14dense_hash_mapISA_SD_SG_NSA_14EqualsComparerINSF_22Il2CppSignatureCompareEEENS0_9allocatorISE_EEE9SelectKeyESK_SM_E4swapERSP_
Brb:__ZN9ShaderLab20SerializedSubProgram14SetConstBufferEPKci
sUe:_ArgumentNullException__ctor_m911049464
Zeh:_TargetParameterCountException__ctor_m2760108938
j5f:_SoapAttribute_SetReflectionObject_m2774156012
aGf:_Comparison_1_Invoke_m345024424_gshared
z7c:_cf2_getStdVW
gDf:_ReadOnlyCollection_1_System_Collections_IList_Insert_m3936197025_gshared
ure:_EventHandler_BeginInvoke_m3027583606
b4:__Z40DebugStringToFilePostprocessedStacktraceRK21DebugStringToFileData
eIc:__Z29Transfer_Blittable_ArrayFieldI8JSONReadjEvRT_R9ArrayInfoRK23StaticTransferFieldInfo
Kpi:_ContextAttribute__ctor_m4006843177
kei:_InternalEnumerator_1_get_Current_m314017974_AdjustorThunk
rg:__setLetterbox
L2e:_MemoryStream__ctor_m1043059966
i0a:__ZNSt3__26__treeINS_12__value_typeIN9ShaderLab16FastPropertyNameEfEENS_19__map_value_compareIS3_S4_NS_4lessIS3_EELb1EEENS_9allocatorIS4_EEE12__find_equalIS3_EERPNS_16__tree_node_baseIPvEENS_21__tree_const_iteratorIS4_PNS_11__tree_nodeIS4_SE_EEiEESH_RKT_
Lug:__ZL57CollectionBase_t1101587467_CustomAttributesCacheGeneratorP21CustomAttributesCache
M4f:__ZN21InterfaceFuncInvoker3IP12Il2CppObjectP6Type_t28StreamingContext_t1417235061PS1_E6InvokeEjP11Il2CppClassS1_S3_S4_S5_
Uab:__ZNSt3__26vectorI17BlendShapeChannelNS_9allocatorIS1_EEE6assignINS_11__wrap_iterIPS1_EEEENS_9enable_ifIXaasr21__is_forward_iteratorIT_EE5valuesr16is_constructibleIS1_NS_15iterator_traitsISA_E9referenceEEE5valueEvE4typeESA_SA_
Y$d:_LayoutElement_set_preferredWidth_m3072758716
CRb:__Z12SetGfxDeviceP9GfxDevice
iYf:_AsnEncodedData_ToString_m724151831
xBi:_Object_CompareBaseObjects_m1461253683
f9b:__ZN11TimeManager11GetRealtimeEv
$rf:_Collection_1_System_Collections_IList_get_IsFixedSize_m2408637569_gshared
Xgg:_UTF8Encoding_GetByteCount_m1469571127
nWj:_GC_print_block_list
DT:__ZN29AudioEffectInternalDefinitionC2EP26UnityAudioEffectDefinitionb
hfh:_MonoMethodInfo_GetDeclaringType_m4186531677
J5f:_SoapTypeAttribute_SetReflectionObject_m1566293812
Z2h:_DefaultComparer__ctor_m418731767_gshared
iJ:__ZN4PPtrI6AvatarE8TransferI18StreamedBinaryReadILb0EEEEvRT_
L1i:_Enumerator_System_Collections_IEnumerator_Reset_m2573763156_AdjustorThunk
c7f:_RemotingServices_CreateClientProxy_m1631035355
Gog:_UInt64_ToString_m2892887310
EGd:_String_System_IConvertible_ToType_m512800076
sRj:__ZN15dense_hashtableINSt3__24pairIK10KeyWrapperIPK19Il2CppGenericMethodEP10MethodInfoEES6_N6il2cpp8metadata23Il2CppGenericMethodHashEN14dense_hash_mapIS6_S9_SD_NS6_14EqualsComparerINSC_26Il2CppGenericMethodCompareEEENS0_9allocatorISA_EEE9SelectKeyESH_SJ_EC2ERKSM_j
Qzj:__ZN15dense_hashtableINSt3__24pairIK10KeyWrapperINS1_IPK12PropertyInfoP11Il2CppClassEEEjEES9_17ReflectionMapHashIS8_EN14dense_hash_mapIS9_jSD_NS9_14EqualsComparerINS0_8equal_toIS8_EEEENS0_9allocatorISB_EEE9SelectKeyESI_SK_E5clearEv
bcb:__ZN4PPtrI4MeshE8TransferI14SafeBinaryReadEEvRT_
XSc:__ZN24b2ChainAndCapsuleContact6CreateEP9b2FixtureiS1_iP16b2BlockAllocator
dLa:__Z37ReadDirectoryInfo_UnityWebAndUnityRawR12FileAccessorRKN20ArchiveStorageHeader6HeaderERNS1_13DirectoryInfoE
Zwe:_Array_InternalArray__IEnumerable_GetEnumerator_TisInt64_t909078037_m1219751804_gshared
d7:__ZNSt3__26__treeINS_12__value_typeIPKciEENS_19__map_value_compareIS3_S4_15compare_tstringIS3_ELb1EEENS_9allocatorIS4_EEE7destroyEPNS_11__tree_nodeIS4_PvEE
Dtg:__ZL96RuntimeTypeHandle_t2330101084_CustomAttributesCacheGenerator_RuntimeTypeHandle_Equals_m452760426P21CustomAttributesCache
f2h:_Dictionary_2_ToTValue_m1381983709_gshared
n9e:_MulticastDelegate_KPM_m1592985119
nrd:__ZN13dynamic_arrayIN4core12basic_stringIcNS0_20StringStorageDefaultIcEEEELj4EE6assignEPKS4_S7_
bdd:__ZN7Tilemap10SmartResetEv
yJa:__ZN15dense_hashtableINSt3__24pairIKN4core12basic_stringIcNS2_20StringStorageDefaultIcEEEEP20ArchiveStorageReaderEES6_20StringHash32FunctionIS6_EN14dense_hash_mapIS6_S9_SC_NS0_8equal_toIS6_EE13stl_allocatorISA_L18MemLabelIdentifier55ELi16EEE9SelectKeyESF_SI_E5clearEv
ajd:__ZN2UI6Canvas26MarkAllNestedCanvasesDirtyEv
vJj:__ZN6il2cpp2vm12ReboxIfBoxedEP14Il2CppIUnknownP11Il2CppClass
FOb:__ZN25PathNamePersistentManagerD2Ev
N8:__ZN17PersistentManager48IntegrateObjectAndUnlockIntegrationMutexInternalEi
QDf:_ReadOnlyCollection_1_System_Collections_IList_get_IsReadOnly_m3872065502_gshared
ixg:__ZL112TypeBuilder_t3308873219_CustomAttributesCacheGenerator_TypeBuilder_MakeGenericType_m4282022646____typeArguments0P21CustomAttributesCache
eja:__ZZ29InitializeSortingGroupManagerPvEN44PostLateUpdateSortingGroupsUpdateRegistrator7ForwardEv
wp:__ZN6Object12SetHideFlagsENS_9HideFlagsE
lSc:__ZN9b2Fixture11SynchronizeEP12b2BroadPhaseRK11b2TransformS4_
lak:_emscripten_glGetFramebufferAttachmentParameteriv__wrapper
kUb:__ZN13RendererScene15InitializeUmbraEv
_Wa:__Z28CalculateGlobalMatrixInverse23TransformAccessReadOnly
Mtg:__ZL60SecurityAttribute_t2016950496_CustomAttributesCacheGeneratorP21CustomAttributesCache
kNd:_PointerEventData_ToString_m1218584363
F6d:_Char_System_IConvertible_ToChar_m1489061093_AdjustorThunk
lgg:_UTF7Encoding_GetCharCount_m2589913583
Auj:_AnalyticsSessionInfo_CallSessionStateChanged_m2293069762
B3e:_MemoryStream_CalculateNewCapacity_m3533542025
i$j:__ZN6il2cpp6icalls8mscorlib6System6Object7GetTypeEP12Il2CppObject
kwi:_Uri_Reduce_m2577728307
Vjg:_TimeSpan_Equals_m4102942751_AdjustorThunk
_Yh:_ValueCollection_System_Collections_Generic_ICollectionU3CTValueU3E_Add_m1903672223_gshared
kud:__ZN12HeaderHelper14SetUnvalidatedERKN4core12basic_stringIcNS0_20StringStorageDefaultIcEEEES6_b
EP:__ZN4FMOD6SoundI7releaseEv
Gcb:__ZN14SpriteRenderer13AwakeFromLoadE17AwakeFromLoadMode
LNd:_MouseButtonEventData__ctor_m618518000
HLa:__ZN10MemoryFile9SetLengthEy
bM:__ZN7mecanim10ValueArray8TransferI19StreamedBinaryWriteILb0EEEEvRT_
wEb:__ZN5RectTIiE8TransferI24GenerateTypeTreeTransferEEvRT_
CNc:__ZNK15b2RevoluteJoint10GetAnchorBEv
h4a:__ZN14SafeBinaryRead21TransferSTLStyleArrayI13dynamic_arrayI7Hash128Lj8EEEEvRT_17TransferMetaFlags
ENb:__Z28scripting_class_is_interface17ScriptingClassPtr
Hh:_glTexStorage2D
e_a:__ZNK9ShaderLab10SubProgram14EnsureCompiledEv
cih:__Z79RuntimeInvoker_Boolean_t3825574718_RuntimeObject_RuntimeObject_SByte_t454417549PFvvEPK10MethodInfoPvPS4_
A9f:_ObjectManager_RecordFixup_m3572285566
Dvg:__ZL55DaylightTime_t3800227331_CustomAttributesCacheGeneratorP21CustomAttributesCache
ude:_SortedList_InitTable_m460350503
jaa:__Z18BuildScriptClassId17ScriptingClassPtr
Kai:_InternalEnumerator_1_get_Current_m4279678504_AdjustorThunk
zq:__ZNK16LevelGameManager7GetNameEv
bsf:_Collection_1_System_Collections_IList_get_Item_m2415649949_gshared
Dbh:_ILTokenInfo_t149559338_marshal_pinvoke_cleanup
zKa:__ZL31DeleteLastPathNameComponentImplRKN4core12basic_stringIcNS_20StringStorageDefaultIcEEEEPKc
zcc:__Z13RegisterClassI18DelayedCallManagerEvv
Xqd:__ZN18UnityConnectClient15GetCloudServiceEv
FCb:__Z18Transfer_BlittableI24GenerateTypeTreeTransferLb0EiEvRK29SerializationCommandArgumentsR31RuntimeSerializationCommandInfo
jpj:__ZN6il2cpp2os19SocketHandleWrapperD2Ev
BSc:__ZN15b2CircleContact6CreateEP9b2FixtureiS1_iP16b2BlockAllocator
yNb:__ZL28SerializationCommandGroupForRK31TransferFunctionScriptingTraits17ScriptingClassPtr17ScriptingFieldPtrRK20CoreScriptingClasses
IOa:__ZN10TagManager32RegisterDefaultTagsAndLayerMasksEv
g_i:_TweenRunner_1_StopTween_m2135918118_gshared
_Zh:_ValueCollection_get_Count_m4142113966_gshared
Nnj:__ZN15dense_hashtableINSt3__24pairIK10KeyWrapperIPKcEP11Il2CppClassEES5_N6il2cpp5utils11StringUtils12StringHasherIS4_EEN14dense_hash_mapIS5_S8_SE_NS5_14EqualsComparerINSB_13VmStringUtils21CaseSensitiveComparerEEENS0_9allocatorIS9_EEE9SelectKeyESJ_SL_E15insert_noresizeERKS9_
Shg:_SynchronizationLockException__ctor_m549086841
vod:__Z56Register_UnityEngine_Analytics_CustomEventData_AddUInt32v
q8d:_ArrayList_InsertRange_m1478230997
rpa:__ZN4gles8InitCapsEP7ApiGLESP12GraphicsCapsR16GfxDeviceLevelGL
xta:__ZN6prcore14BlitImageFloatERK14ImageReferenceRS0_NS0_8BlitModeE
j3d:_Swapper_EndInvoke_m677693941
OUa:__Z24CalculateVertexLightDataRK15SharedLightDataR14GfxVertexLight
zzi:_Color_get_black_m455352838
pi:_glEnable
Tlb:__ZN15dense_hashtableINSt3__24pairIKiiEEi21InstanceIDHashFunctorN14dense_hash_mapIiiS4_NS0_8equal_toIiEE13stl_allocatorIS3_L18MemLabelIdentifier1ELi16EEE9SelectKeyES7_SA_E12maybe_shrinkEv
a_a:__ZNK9ShaderLab7Program28BeginReadUnsupportedVariantsEv
VVb:__ZNK25CameraStackRenderingState21GetImageEffectTextureEb
tag:_RuntimeMethodHandle__ctor_m2437574937_AdjustorThunk
ejb:__ZNSt3__26vectorIN30RuntimeInitializeOnLoadManager9ClassInfoE13stl_allocatorIS2_L18MemLabelIdentifier13ELi16EEE7reserveEj
Wrg:__ZL72RuntimeArray_CustomAttributesCacheGenerator_Array_get_Length_m1498215565P21CustomAttributesCache
FDc:__Z35Transfer_Blittable_FixedBufferFieldI9JSONWriteiEvRK29SerializationCommandArgumentsR31RuntimeSerializationCommandInfo
rmg:_UInt16_System_IConvertible_ToInt64_m2835280558_AdjustorThunk
aZg:__ZL53g_UnityEngine_Assembly_CustomAttributesCacheGeneratorP21CustomAttributesCache
Kaj:_Predicate_1_BeginInvoke_m3926587117_gshared
zN:__ZZN8Animator15InitializeClassEvEN31FunctorImpl_427kDidModifyAvatar4CallEPviR11MessageData
zBf:_ReadOnlyCollection_1_System_Collections_IList_Remove_m2779327941_gshared
pD:__ZN26AnimatorControllerPlayable17ProcessRootMotionEP35AnimationPlayableEvaluationConstantP32AnimationPlayableEvaluationInputP33AnimationPlayableEvaluationOutput
uih:__Z94RuntimeInvoker_Boolean_t3825574718_Int32_t2071877448_SByte_t454417549_ExceptionU26_t1467204777PFvvEPK10MethodInfoPvPS4_
_Sd:_DefaultControls_CreateToggle_m1568873127
pof:_List_1__cctor_m1022807427_gshared
zug:__ZL63KeyNotFoundException_t1722175009_CustomAttributesCacheGeneratorP21CustomAttributesCache
S1h:_Dictionary_2_InitArrays_m2270022740_gshared
Zee:_Convert_ToBoolean_m2188088811
xpd:__ZN11UnityEngine7Connect15DeviceInfoEvent16CollectExtraInfoEv
mlj:__ZN15dense_hashtableI10KeyWrapperIPK17Il2CppGenericInstES4_N6il2cpp8metadata21Il2CppGenericInstHashEN14dense_hash_setIS4_S7_NS4_14EqualsComparerINS6_24Il2CppGenericInstCompareEEENSt3__29allocatorIS4_EEE8IdentityESB_SE_EC2ERKSH_j
Cfg:_UnicodeEncoding_GetChars_m3765282346
B$e:_IntPtr__ctor_m4104029105
rBg:__ZL114BinaryFormatter_t1866979105_CustomAttributesCacheGenerator_BinaryFormatter_get_DefaultSurrogateSelector_m219714691P21CustomAttributesCache
wfi:_InternalEnumerator_1_System_Collections_IEnumerator_get_Current_m771161214_AdjustorThunk
n8e:_MonoType_get_attributes_m1493788675
CMa:__ZN20ArchiveStorageReader10InitializeER15FileSystemEntryyb
V2j:_atol
Ihe:_Convert_ToDouble_m4236754739
eSf:_SslClientStream_get_PrivateKeyCertSelectionDelegate_m3715949545
Ikj:__ZN15dense_hashtableINSt3__24pairIK10KeyWrapperIPKcEP11Il2CppClassEES5_N6il2cpp5utils11StringUtils12StringHasherIS4_EEN14dense_hash_mapIS5_S8_SE_NS5_14EqualsComparerINSB_13VmStringUtils21CaseSensitiveComparerEEENS0_9allocatorIS9_EEE9SelectKeyESJ_SL_EC2EjRKSE_RKSJ_RKSN_
oUd:_Dropdown_CreateItem_m2702141380
aFf:_ReadOnlyCollection_1_IndexOf_m224962127_gshared
gvg:__ZL48Stack_t1043988394_CustomAttributesCacheGeneratorP21CustomAttributesCache
Ho:FUNCTION_TABLE_viifi
UDh:__Z59RuntimeInvoker_Boolean_t3825574718_ResourceInfo_t3933049236PFvvEPK10MethodInfoPvPS4_
rfh:_MonoEvent_GetAddMethod_m4289563120
mtg:__ZL37Type_t_CustomAttributesCacheGeneratorP21CustomAttributesCache
ebd:_UNITY_tt_face_free_hdmx
yUc:__ZNSt3__26__sortIRN18Overlap2DQueryBase29ColliderHitsByDepthComparitorEPP10Collider2DEEvT0_S7_T_
yDj:__ZN15dense_hashtableINSt3__24pairIK10KeyWrapperINS1_IP11Il2CppClassjEEES4_EES6_N6il2cpp8metadata14ArrayClassHashEN14dense_hash_mapIS6_S4_SB_NS6_14EqualsComparerINSA_17ArrayClassCompareEEENS0_9allocatorIS8_EEE9SelectKeyESF_SH_E5clearEv
fkj:__ZNSt3__218uninitialized_copyIPNS_4pairIK10KeyWrapperIPK11Il2CppClassEPKcEESB_EET0_T_SD_SC_
Yuj:__ZN6il2cpp2vm14TypeNameParser5ParseEb
DMh:_ReflectionMethodsCache__ctor_m1835220
Gug:__ZL71SynchronizedArrayListWrapper_t3317806524_CustomAttributesCacheGeneratorP21CustomAttributesCache
ztd:__ZN23UnityPurchasingSettingsC2Ev
$pe:_Double_ToString_m1864290157
u4j:__ZNSt9bad_allocD0Ev
erh:__Z50RuntimeInvoker_Int64_t909078037_Double_t4078015681PFvvEPK10MethodInfoPvPS4_
d_j:__ZN6il2cpp2os5Mutex6UnlockEv
$Qg:__ZL120NativeClassAttribute_t1576243993_CustomAttributesCacheGenerator_NativeClassAttribute_set_QualifiedNativeName_m4139686864P21CustomAttributesCache
v4b:__ZL10RenderFaceR9GfxDeviceR18MaterialStateCacheP13RenderTextureiif
oRi:_SpriteAtlasManager__cctor_m453260161
nKj:__ZNK24NamespaceAndNamePairHashclERKNSt3__24pairIPKcS3_EE
jta:__ZL37stbir__resample_horizontal_downsampleP11stbir__infoiPf
rtf:__ZN21InterfaceFuncInvoker1Ib18Color32_t874517518E6InvokeEjP11Il2CppClassP12Il2CppObjectS0_
mmb:__ZNK5Unity9Component38MarkGameObjectAndComponentDependenciesER27GarbageCollectorThreadState
l5:__ZL16OutOfMemoryErrorjj18MemLabelIdentifieriPKc
Eud:__ZN20UnityWebRequestProtoI24UnityWebRequestTransport16AtomicRefCounter14RedirectHelper14ResponseHelper15DownloadHandler13UploadHandler12HeaderHelper14AsyncOperationED0Ev
U9d:_SynchronizedArrayListWrapper_Contains_m2259439339
ZW:__ZNK7Texture21GetShadowSamplingModeEv
Kaa:__ZNK11TypeManager15ClassNameToRTTIEPKcb
A7a:__ZN13ScreenManager21OnWindowRegainedFocusEv
XKb:__Z18Transfer_BlittableI18StreamedBinaryReadILb0EELb1EdEvRK29SerializationCommandArgumentsR31RuntimeSerializationCommandInfo
E$c:__ZN13sorted_vectorIN20TextRenderingPrivate8FontImpl13CharacterInfoENSt3__24lessIS2_EE13stl_allocatorIS2_L18MemLabelIdentifier1ELi16EEE10insert_oneERKS2_
Mbk:_emscripten_glVertexAttrib2fv__wrapper
qWe:_Guid__ctor_m2599802704
b2e:_FileStream_get_CanRead_m4148920720
vvd:__ZN13RuntimeStaticINSt3__26vectorIPN5physx15PxVehicleWheelsENS0_9allocatorIS4_EEEELb0EE13StaticDestroyEPv
WHh:__Z31RuntimeInvoker_Link_t2723257478PFvvEPK10MethodInfoPvPS4_
psa:__ZN4crnd12symbol_codec32decode_receive_static_data_modelERNS_25static_huffman_data_modelE
D9b:__ZN18ScriptingArguments8AddFloatEf
HUe:_GregorianCalendar_set_CalendarType_m2438362222
uSd:_FloatTween_get_targetValue_m2120061648_AdjustorThunk
Slh:__Z44RuntimeInvoker_RuntimeTypeHandle_t2330101084PFvvEPK10MethodInfoPvPS4_
Que:_Array_InternalArray__ICollection_Contains_TisVector2_t2243707579_m3625698589_gshared
npd:__ZN11UnityEngine15PlatformWrapper16GetVRRenderScaleEv
FEc:__Z18Transfer_BlittableI9JSONWriteLb0EaEvRK29SerializationCommandArgumentsR31RuntimeSerializationCommandInfo
kih:__Z45RuntimeInvoker_SByte_t454417549_RuntimeObjectPFvvEPK10MethodInfoPvPS4_
R_:__ZN11UnityEngine15CloudWebService14DataDispatcher34OnSessionContainerArchivedAndReadyERNS0_16SessionContainerE
$Lc:__ZN7b2World11CreateJointEPK10b2JointDef
hcj:_RectTransformUtility_PixelAdjustPoint_m1375786599
sVe:_NumberFormatInfo_GetFormat_m3247563525
HFg:__ZL77Convert_t2607082565_CustomAttributesCacheGenerator_Convert_ToByte_m2303223565P21CustomAttributesCache
cMf:_CipherSuiteCollection__ctor_m2154226461
wXi:_InvokableCall_3_Find_m1268604653_gshared
$Eb:__Z18Transfer_BlittableI19StreamedBinaryWriteILb0EELb0E8Vector3fEvRK29SerializationCommandArgumentsR31RuntimeSerializationCommandInfo
pnb:__ZN14SafeBinaryRead19TransferSTLStyleMapINSt3__23mapIN4core12basic_stringIcNS3_20StringStorageDefaultIcEEEEiNS1_4lessIS7_EENS1_9allocatorINS1_4pairIKS7_iEEEEEEEEvRT_17TransferMetaFlags
gzj:__ZN15dense_hashtableINSt3__24pairIK10KeyWrapperINS1_IPK11Il2CppImageP11Il2CppClassEEEjEES9_17ReflectionMapHashIS8_EN14dense_hash_mapIS9_jSD_NS9_14EqualsComparerINS0_8equal_toIS8_EEEENS0_9allocatorISB_EEE9SelectKeyESI_SK_ED2Ev
_2c:_gray_move_to
rwd:_DSAParameters_t1872138834_marshal_pinvoke
zuh:__Z37RuntimeInvoker_ContentType_t859870085PFvvEPK10MethodInfoPvPS4_
pyf:_Collection_1_System_Collections_IEnumerable_GetEnumerator_m4174600764_gshared
Pqi:_ConstructionCall_InitDictionary_m4046452035
aAj:__ZN6il2cpp2vm10Reflection14GetEventObjectEP11Il2CppClassPK9EventInfo
vNf:_TlsStream_Write_m2271546135
Spc:__Z30RegisterValidateMethodCallbackiPF18ScriptingMethodPtrS_17ScriptingClassPtrP6ObjectEPKc
Mub:__ZN20LocalFileSystemPosixD0Ev
Vse:_CultureInfo_ConstructInternalLocaleFromCurrentLocale_m1342751405
Ieg:_Latin1Encoding_GetString_m3553289597
PMh:_GetRayIntersectionAllNonAllocCallback_Invoke_m1247446986
x4c:_tt_cmap_init
XIc:__ZN8JSONRead8TransferI9BoundsIntEEvRT_PKc17TransferMetaFlagsb
Ka:invoke_viidi
fVh:_Enumerator_get_Current_m1020413567_AdjustorThunk
agf:_List_1_System_Collections_IList_get_IsFixedSize_m1122077912_gshared
ULj:__ZN15dense_hashtableI10KeyWrapperIP18Il2CppGenericClassES3_N6il2cpp8metadata22Il2CppGenericClassHashEN14dense_hash_setIS3_S6_NS3_14EqualsComparerINS5_25Il2CppGenericClassCompareEEENSt3__29allocatorIS3_EEE8IdentityESA_SD_E12maybe_shrinkEv
zIb:__Z29Transfer_Blittable_ArrayFieldI18StreamedBinaryReadILb1EEdEvRT_R9ArrayInfoRK23StaticTransferFieldInfo
cS:__ZN9AudioClip7CleanupEv
Kzj:__ZN15dense_hashtableINSt3__24pairIK10KeyWrapperINS1_IPK12PropertyInfoP11Il2CppClassEEEjEES9_17ReflectionMapHashIS8_EN14dense_hash_mapIS9_jSD_NS9_14EqualsComparerINS0_8equal_toIS8_EEEENS0_9allocatorISB_EEE9SelectKeyESI_SK_E8min_sizeEjj
V7i:__ZL25UnresolvedVirtualCall_219P12Il2CppObject23RaycastResult_t21186376PK10MethodInfo
iHg:__ZL79Convert_t2607082565_CustomAttributesCacheGenerator_Convert_ToUInt64_m2215781574P21CustomAttributesCache
JSi:_Vector4_set_Item_m1525226067_AdjustorThunk
Rfk:_emscripten_glCheckFramebufferStatus__wrapper
KEj:__ZNK15dense_hashtableINSt3__24pairIK10KeyWrapperIP11Il2CppClassES4_EES5_N6il2cpp8metadata16SZArrayClassHashEN14dense_hash_mapIS5_S4_SA_NS5_14EqualsComparerINS9_19SZArrayClassCompareEEENS0_9allocatorIS7_EEE9SelectKeyESE_SG_E12test_deletedEj
yHc:__Z18Transfer_BlittableI8JSONReadLb0EdEvRK29SerializationCommandArgumentsR31RuntimeSerializationCommandInfo
mDh:__Z83RuntimeInvoker_Boolean_t3825574718_NavigationU26_t3929175072_Navigation_t1571958496PFvvEPK10MethodInfoPvPS4_
NK:__ZN7mecanim9animation21BlendTreeNodeConstant35Transfer_4_0_BackwardsCompatibilityI14SafeBinaryReadEEvRT_
tkf:_List_1_TrimExcess_m2004514756_gshared
kig:_Thread_ClrState_m822263449
iWg:__ZL81GUIStyle_t1799908754_CustomAttributesCacheGenerator_GUIStyle_get_name_m3609546529P21CustomAttributesCache
qLe:_SimpleCollator_LastIndexOfOrdinalIgnoreCase_m550798345
Cpj:__ZN6il2cpp2vm21ThreadPoolCompartment13QueueWorkItemEP17Il2CppAsyncResult
PBi:_PersistentCall_get_mode_m4087575475
kka:__ZNK9GfxDevice13GetViewMatrixEv
Dyi:_Bounds_Encapsulate_m17114941
klb:__ZN17RemapPPtrTransferC2E24TransferInstructionFlagsb
pK:__ZN14SafeBinaryRead21TransferSTLStyleArrayI22OffsetPtrArrayTransferIiEEEvRT_17TransferMetaFlags
Mba:__ZN8TypeTree8BlobReadERPKhS1_ib
q$h:_Dictionary_2_System_Collections_Generic_ICollectionU3CSystem_Collections_Generic_KeyValuePairU3CTKeyU2CTValueU3EU3E_Remove_m3080541539_gshared
Ljb:__ZN18LoadSceneOperation23GetAllowSceneActivationEv
QRa:__ZN6CameraD0Ev
pVi:_GUILayoutUtility_Begin_m659595645
RMe:_ModulusRing_Multiply_m386339435
iha:__ZN31CanvasBatchIntermediateRenderer16StaticInitializeEPv
GWd:_GraphicRaycaster_U3CRaycastU3Em__0_m3971200721
ABf:_ReadOnlyCollection_1_System_Collections_IList_RemoveAt_m3004588099_gshared
FC:__ZN7mecanim12AndValueMaskILb0EEEvPKNS_14ValueArrayMaskEPS1_
Uib:__ZN14SafeBinaryRead21TransferSTLStyleArrayINSt3__26vectorIi13stl_allocatorIiL18MemLabelIdentifier13ELi16EEEEEEvRT_17TransferMetaFlags
ohe:_Decimal_op_Implicit_m4246329390
Vfd:__ZZN17TilemapCollider2D15InitializeClassEvEN35FunctorImpl_46kOnTilemapTileChanged4CallEPviR11MessageData
v5b:__ZN10GameObjectC2E18MemLabelIdentifier18ObjectCreationMode
Ibd:_raccess_guess_apple_double
CFh:__Z70RuntimeInvoker_Void_t1841601450_CustomAttributeNamedArgument_t94157543PFvvEPK10MethodInfoPvPS4_
LUf:_ListDictionary_GetEnumerator_m1511032609
r9g:_TypeBuilder_get_FullName_m1626507516
Y8f:_SerializationInfo__ctor_m4016423422
ywa:__ZL18ProgramUniform1uivPK7ApiGLESjiihPKv
ngc:__ZN14Texture2DArray13RebuildMipMapEv
Hjj:__ZN13Il2CppHashSetIPK17Il2CppGenericInstN6il2cpp8metadata21Il2CppGenericInstHashENS4_24Il2CppGenericInstCompareENSt3__29allocatorI10KeyWrapperIS2_EEEEC2EjRKS5_RKS6_
Ssf:_Collection_1_Clear_m2734620236_gshared
pQj:__ZN6il2cpp2gc16GarbageCollector14RemoveWeakLinkEPPv
Crb:__ZN9ShaderLab20SerializedSubProgram14AddVectorParamEPKcii15ShaderParamTypei
bed:__ZN21TilemapRefCountedDataI4PPtrI6ObjectEE8TransferI14SafeBinaryReadEEvRT_
Kkd:__ZN2UI14CanvasRenderer12CleanupClassEv
hEf:_ReadOnlyCollection_1_System_Collections_IEnumerable_GetEnumerator_m1734360860_gshared
B3h:_DefaultComparer__ctor_m1052417779_gshared
JEd:_SystemException__ctor_m2688248668
xli:_ResourceSet_ReadResources_m1669023823
GSe:_PKCS12_RemoveCertificate_m1590055870
wFj:__ZN6il2cpp2vm6Thread7SetNameEP12Il2CppThreadP12Il2CppString
p9g:_TypeBuilder_get_DeclaringType_m3236598700
NPb:__ZN13ScreenManager18SetAllowCursorLockEb
j0:__ZN11UnityEngine15CloudWebService10RestClientINS0_23WebRequestRestHeaderMapEE16SetRequestHeaderERKN4core12basic_stringIcNS4_20StringStorageDefaultIcEEEESA_
Zib:__ZN30RuntimeInitializeOnLoadManager15ClassMethodInfo8TransferI14SafeBinaryReadEEvRT_
x3g:__ZL73CanvasScaler_t2574720772_CustomAttributesCacheGenerator_m_ScreenMatchModeP21CustomAttributesCache
MY:__ZL22InitializeModule_Audiov
Yvb:__ZN16MemoryFileSystem8IsLockedERK13FileEntryData
cHj:__ZN6il2cpp6icalls8mscorlib6System2IO6MonoIO5WriteEiP11Il2CppArrayiiPi
$eh:_MonoCMethod_Invoke_m931478014
Ujh:__Z86RuntimeInvoker_Int32_t2071877448_Int16_t4041245914_Int32_t2071877448_Int32_t2071877448PFvvEPK10MethodInfoPvPS4_
Eli:_SatelliteContractVersionAttribute__ctor_m2605651717
$k:_emscripten_glBindRenderbuffer
dRg:__ZL77RuntimePlatform_t1869584967_CustomAttributesCacheGenerator_OSXDashboardPlayerP21CustomAttributesCache
hJd:_DecoderExceptionFallbackBuffer_GetNextChar_m1727394816
LWj:_GC_dirty_init
v2d:_Array_Copy_m1969461849
q8f:_MessageFormatter_ReadMethodResponse_m4134629501
rNj:__ZN6il2cpp2vm5Field14GetValueObjectEP9FieldInfoP12Il2CppObject
fkd:__ZNK2UI6Canvas16GetTargetDisplayEv
qHi:_PKCS12_GetSymmetricAlgorithm_m3196291685
hre:_Environment_get_OSVersion_m1247315981
$ea:__ZN6Object17FindObjectsOfTypeEPKN5Unity4TypeER13dynamic_arrayIPS_Lj4EEb
Wjc:__ZNSt3__26vectorINS_4pairIiiEE13stl_allocatorIS2_L18MemLabelIdentifier1ELi16EEE21__push_back_slow_pathIKS2_EEvRT_
t0f:_Capture_get_Length_m1952322390
lFc:__ZN9JSONWrite8TransferI4PPtrI9Texture2DEEEvRT_PKc17TransferMetaFlags
YMb:__ZN13MonoBehaviour17RemoveFromManagerEv
ASa:__ZN12ImageFilters14AddImageFilterERK11ImageFilter
Tkd:__ZL23RegisterModuleICalls_UIv
Y6a:__ZL11DecodeValuePPKcS0_
LWh:_ShimEnumerator_MoveNext_m2013866013_gshared
q3:__ZN13MemoryManagerC2Ev
Vza:__ZN12SkinMeshInfo10DeallocateEPS_
ux:__ZN15SerializeTraitsI22OffsetPtrArrayTransferIN7mecanim13ValueConstantEEE8TransferI19StreamedBinaryWriteILb0EEEEvRS3_RT_
CUg:__ZL66AnimationOffsetPlayable_t1019600543_CustomAttributesCacheGeneratorP21CustomAttributesCache
WLa:__ZN20ArchiveStorageReader28AcquireAndPrefillUnusedBlockEjPNS_11CacheResultE
hgc:__Z12NHxRoughnessIA4_tEvP9Texture2DPT_iiii
P5i:__ZL25UnresolvedVirtualCall_105P12Il2CppObjecthPK10MethodInfo
h4f:_MethodDictionary_get_SyncRoot_m673971424
vfa:__ZN18AsyncUploadManagerD2Ev
Atb:__ZN9Transform5ResetEv
MEb:__Z22TransferField_NonArrayI24GenerateTypeTreeTransfer16Converter_StringEvRK23StaticTransferFieldInfoR31RuntimeSerializationCommandInfoRT0_
QLg:__ZL90Camera_t189460977_CustomAttributesCacheGenerator_Camera_INTERNAL_get_pixelRect_m4124985255P21CustomAttributesCache
n4c:_UNITY_FT_CMap_New
GPb:__Z17MainLoopKeepalivePv
pri:_MatchCollection__ctor_m1944681790
Cxd:_HMACSHA512__ctor_m1667460019
slj:__ZN15dense_hashtableI10KeyWrapperIPK17Il2CppGenericInstES4_N6il2cpp8metadata21Il2CppGenericInstHashEN14dense_hash_setIS4_S7_NS4_14EqualsComparerINS6_24Il2CppGenericInstCompareEEENSt3__29allocatorIS4_EEE8IdentityESB_SE_E12expand_arrayEjN21dense_hash_map_traits17integral_constantIbLb0EEE
L0j:_printf_core
jXi:_InvokableCall_1_Find_m1347741199_gshared
YBd:_ToBase64Transform_get_OutputBlockSize_m949275583
Syf:_Collection_1_set_Item_m3254085220_gshared
D2b:__Z14CalcHullBoundsPK8Vector3fPKhhRK5PlaneRK10Matrix4x4fR10MinMaxAABB
o6f:_RealProxy__ctor_m2147093603
Elb:__ZN11PreloadData39ShouldIgnoreInGarbageDependencyTrackingEv
tmf:_List_1__ctor_m3511181530_gshared
pXb:__Z19SetupLODFadeKeywordR17ShaderPassContexti
LBf:_ReadOnlyCollection_1_get_Count_m2180604490_gshared
AFb:__Z18Transfer_BlittableI19StreamedBinaryWriteILb0EELb0E5RectTIfEEvRK29SerializationCommandArgumentsR31RuntimeSerializationCommandInfo
iPj:__ZN6il2cpp2os10ThreadImpl22SetNativeThreadCleanupEPFvPvE
yza:__ZL25CheckCopyTextureArgumentsRK7ApiGLESP11GLESTextureS3_
okb:__ZN13dynamic_arrayI26EnlightenSystemInformationLj8EE6insertEPS0_PKS0_S4_
T3c:_tt_name_entry_ascii_from_utf16
p9e:_MulticastNotSupportedException__ctor_m2164514827
jke:_DateTime_System_IConvertible_ToChar_m2489529194_AdjustorThunk
jEb:__Z29Transfer_Blittable_ArrayFieldI24GenerateTypeTreeTransferyEvRT_R9ArrayInfoRK23StaticTransferFieldInfo
PS:__ZN4FMOD7SystemI9playSoundE17FMOD_CHANNELINDEXPNS_5SoundEbPPNS_7ChannelE
fZi:_UnityEvent_1_GetDelegate_m1805195420_gshared
psg:__ZL74RuntimeArray_CustomAttributesCacheGenerator_Array_BinarySearch_m1368352453P21CustomAttributesCache
Iti:_Regex_GetGroupIndex_m1686599756
MRg:__ZL68PreferBinarySerialization_t2472773525_CustomAttributesCacheGeneratorP21CustomAttributesCache
hfb:__ZN19StreamedBinaryWriteILb0EE21TransferSTLStyleArrayINSt3__26vectorI17SubstanceEnumItemNS2_9allocatorIS4_EEEEEEvRT_17TransferMetaFlags
eoh:__Z66RuntimeInvoker_Int64_t909078037_Int64_t909078037_Int32_t2071877448PFvvEPK10MethodInfoPvPS4_
EC:__ZN27AnimationLayerMixerPlayable17LayerMixerProcessEP35AnimationPlayableEvaluationConstantP32AnimationPlayableEvaluationInputP33AnimationPlayableEvaluationOutputM17AnimationPlayableFvS1_S3_S5_EMS_FvS1_S3_S5_ESA_MS_FvS5_S1_S3_S5_ifE
yuj:__ZN6il2cpp2os4File4ReadEPNS0_10FileHandleEPciPi
pR:__ZN12AudioManager23VirtualRedirectTransferER18StreamedBinaryReadILb0EE
Fef:_List_1_Remove_m2616693989_gshared
Bab:__ZN10VertexData13SwapEndianessEv
g3j:_realloc
Kwc:__Z57Register_UnityEngine_Transform_INTERNAL_get_localRotationv
ZPh:_ScrollRect_SetLayoutVertical_m1225848090
AGi:_Plane_ToString_m4267831659_AdjustorThunk
Lkg:_Type_get_IsInterface_m3583817465
Mib:__ZN30RuntimeInitializeOnLoadManager23VirtualRedirectTransferER17RemapPPtrTransfer
f7j:dynCall_viif
Jfh:_MonoField_get_DeclaringType_m1591666235
Y7h:_InternalEnumerator_1__ctor_m2111763266_AdjustorThunk
O2f:_Enumerator_MoveNext_m4234629003
z8c:_cf2_hint_lock
RBb:__ZL26Transfer_SimpleNativeClassI17RemapPPtrTransfer8GradientLb0EEvRK29SerializationCommandArgumentsR31RuntimeSerializationCommandInfo
oE:__ZN17AnimationPlayable26DisconnectNoTopologyChangeEPS_i
dsg:__ZL69RuntimeArray_CustomAttributesCacheGenerator_Array_GetValue_m518505780P21CustomAttributesCache
lsh:__Z52RuntimeInvoker_UInt64_t2909196914_Single_t2076509932PFvvEPK10MethodInfoPvPS4_
WXg:__ZL105UISystemProfilerApi_t845863050_CustomAttributesCacheGenerator_UISystemProfilerApi_BeginSample_m2271080056P21CustomAttributesCache
wGg:__ZL78Convert_t2607082565_CustomAttributesCacheGenerator_Convert_ToSByte_m1880147062P21CustomAttributesCache
o8e:_MonoType_GetDefaultConstructor_m925465120
ylg:_Type_IsArrayImpl_m3073208555
T0:__ZN13UploadHandlerD2Ev
z5j:dynCall_viiiiiffi
Fc:_emscripten_glBlendFuncSeparate
Tah:_GenericTypeParameterBuilder_IsPrimitiveImpl_m1198748291
W7:__Z20scripting_string_newPKc
cvc:__Z43Material_CUSTOM_Internal_CreateWithMaterialP12Il2CppObjectS0_
_0e:_Directory_GetCurrentDirectory_m44486537
mSg:__ZL56UnityEventBase_t828812576_CustomAttributesCacheGeneratorP21CustomAttributesCache
xVg:__ZL105AudioSource_t1135106623_CustomAttributesCacheGenerator_AudioSource_ReadExtensionPropertyValue_m4251175592P21CustomAttributesCache
vqf:_Collection_1_System_Collections_ICollection_CopyTo_m1047946700_gshared
gZi:_UnityEvent_1_GetDelegate_m4072848279_gshared
bDc:__ZN9JSONWrite12AppendToNodeEPN5Unity9rapidjson12GenericValueINS1_4UTF8IcEE13JSONAllocatorEEPKcRS6_
K5f:_ObjRef__ctor_m1486312270
oRc:__ZN16PhysicsManager2D20GetRigidBodyVelocityERK11Rigidbody2D
xie:_Convert_ToInt64_m4057339019
pYf:_AsnEncodedData_Default_m4197142414
zgd:__ZN19TilemapRendererJobs23InitializeStencilStatesEv
hEj:__ZNSt3__218uninitialized_copyIPNS_4pairIK10KeyWrapperIP11Il2CppClassES4_EES8_EET0_T_SA_S9_
muj:__ZN6il2cpp2os4File17GetFileAttributesERKNSt3__212basic_stringIcNS2_11char_traitsIcEENS2_9allocatorIcEEEEPi
LH:__ZNSt3__26__sortIRPFbPKN8Animator11AnimatorJobES4_EPS4_EEvT0_S9_T_
wQ:__ZN17AudioCustomFilterD2Ev
JAc:__ZN11IMGUIModule26SetDeveloperConsoleVisibleEb
K6i:__ZL25UnresolvedVirtualCall_154P12Il2CppObject40CustomAttributeTypedArgument_t1498197914S1_PK10MethodInfo
Htb:__ZN9Transform16ResetReplacementEv
iya:__ZN18GfxFramebufferGLES18ReleaseFramebufferEP17RenderSurfaceBaseP14GfxContextGLES
Zoi:_Context_GetDynamicPropertyCollection_m1987747444
CZf:_X509Certificate2_get_Version_m1927399907
mic:__ZN13ProduceHelperI6CameraLb0EE7ProduceE18MemLabelIdentifier18ObjectCreationMode
mYd:_Image_RadialCut_m3229543088
p2:__ZN19CloudServiceHandler34HandleSaveFileWebRequestPlayerLoopEv
$D:__ZN7mecanim21ValueArrayReverseCopyEPKNS_18ValueArrayConstantEPKNS_10ValueArrayES2_PS3_PKi
eQ:__Z31GetParentSampleClipFromInstancePN11SoundHandle8InstanceE
bec:__ZNK28RectTransformPropertyBinding13GetFloatValueERKN11UnityEngine9Animation10BoundCurveE
S4b:__ZN6Camera22StandaloneCustomRenderENS_10RenderFlagEP6ShaderRKN4core12basic_stringIcNS3_20StringStorageDefaultIcEEEEPNS_21PerformRenderFunctionE
pib:__ZNSt3__26vectorI4PPtrI6ObjectE13stl_allocatorIS3_L18MemLabelIdentifier52ELi16EEE6assignINS_11__wrap_iterIPS3_EEEENS_9enable_ifIXaasr21__is_forward_iteratorIT_EE5valuesr16is_constructibleIS3_NS_15iterator_traitsISD_E9referenceEEE5valueEvE4typeESD_SD_
z$j:__ZN6il2cpp2os16ThreadLocalValue8GetValueEPPv
Unj:__ZN6il2cpp2vm13MetadataCache14GetGenericInstEPKPK10Il2CppTypej
ZAd:_SHA384Managed_Initialize_m712692291
T8h:_InternalEnumerator_1__ctor_m2688327768_gshared
PY:__ZN13AudioListener17ReadExtensionNameEi
zni:_ChannelInfo__ctor_m2502026239
Qb:invoke_iiidii
Oyg:__ZL60CallingConvention_t3354538265_CustomAttributesCacheGeneratorP21CustomAttributesCache
sY:__ZN9AudioClip15InitializeClassEv
mp:setThrew
$fc:__ZL21BuildEmptyCubeTexturePKci11ColorRGBA3217TextureColorSpace
ATi:_Event_get_modifiers_m3267430607
snb:__ZN14SafeBinaryRead21TransferSTLStyleArrayINSt3__26vectorIN9ShaderLab20SerializedSubProgramENS1_9allocatorIS4_EEEEEEvRT_17TransferMetaFlags
RDh:__Z67RuntimeInvoker_Boolean_t3825574718_RefEmitPermissionSet_t2708608433PFvvEPK10MethodInfoPvPS4_
pOd:_StandaloneInputModule_set_cancelButton_m2642677329
xGc:__Z15Transfer_StringI8JSONReadLb1EEvRK29SerializationCommandArgumentsR31RuntimeSerializationCommandInfo
Tua:__ZN6prcoreL17RemapGenericFloatI17TexFormatRGBFloat15TexFormatRGHalfEEvPKNS_9InnerInfoE
HYb:__Z25DoForwardShaderRenderLoopR17RenderLoopContextR13dynamic_arrayI16RenderObjectDataLj4EERK11CullResultsbbbN6Camera10RenderFlagE
kJe:_GameObject_GetComponent_TisRuntimeObject_m2812611596_gshared
r3c:_sfnt_load_face
PRe:_PKCS12_GetSymmetricAlgorithm_m1812022677
Bgg:_UTF8Encoding_GetByteCount_m2372933408
Woi:_Context_get_NeedsContextSink_m1907794755
i3c:_UNITY_ft_service_list_lookup
NQi:_Transform_get_localScale_m46214814
RIf:_ARC4Managed_GenerateKey_m716135508
KBb:__Z18Transfer_BlittableI17RemapPPtrTransferLb1E11ColorRGBA32EvRK29SerializationCommandArgumentsR31RuntimeSerializationCommandInfo
gAc:__ZN5IMGUI21SelectReceivingWindowER8GUIStateb
bfi:_InternalEnumerator_1_get_Current_m3179981210_gshared
R2:__ZN13BaseAllocator13TryDeallocateEPv
PGb:__Z29Transfer_Blittable_ArrayFieldI19StreamedBinaryWriteILb0EEfEvRT_R9ArrayInfoRK23StaticTransferFieldInfo
f2d:_Array_CreateInstance_m1054139389
SZi:_U3CStartU3Ec__Iterator0_Reset_m2580847683_gshared
w9h:_InternalEnumerator_1__ctor_m967618647_AdjustorThunk
Gvb:__ZN16MemoryFileSystem5WriteER13FileEntryDatayPvPy
AXd:_LayoutGroup_GetAlignmentOnAxis_m1783063916
k$h:_Dictionary_2_System_Collections_ICollection_get_IsSynchronized_m1738433079_gshared
ITa:__ZNSt3__26vectorIN12FlareManager10FlareEntryENS_9allocatorIS2_EEE21__push_back_slow_pathIKS2_EEvRT_
U6g:_Default_check_arguments_with_score_m1714931543
xwd:_SHA1_Create_m4086509717
rgh:_MonoMethodInfo_GetMethodInfo_m3298558752
YQ:__ZN13AudioListener17RemoveFromManagerEv
zd:_glAttachShader
sUd:_Dropdown_SetAlpha_m2769981009
fQa:__ZNK6Camera19GetProjectionMatrixEv
qaj:_Predicate_1_BeginInvoke_m1856151290_gshared
bpe:_StackTrace__ctor_m2404985356
S9:__Z38PreallocateObjectFromPersistentManagerib
xke:_DateTime_System_IConvertible_ToSingle_m3927769066
y2a:__ZNK9Texture2D20GetUnscaledTextureIDEv
Iie:_Convert_ToSByte_m883113940
fbj:_Canvas_get_renderOrder_m2592588836
vOg:__ZL77Mesh_t1356156583_CustomAttributesCacheGenerator_Mesh_GetIndicesImpl_m50468169P21CustomAttributesCache
f9e:_MonoType_get_ContainsGenericParameters_m3229732653
Mpf:_Queue_1_Peek_m1463479953_gshared
cej:_Animator_ResetTriggerString_m946167554
W0g:__ZL53InputField_t1631627530_CustomAttributesCacheGeneratorP21CustomAttributesCache
TTi:_GUI_set_skin_m929513544
TPd:_ButtonClickedEvent__ctor_m938038541
QLb:__ZN18StreamedBinaryReadILb0EE21TransferSTLStyleArrayI13dynamic_arrayI4AABBLj4EEEEvRT_17TransferMetaFlags
Nqh:__Z119RuntimeInvoker_Int32_t2071877448_RuntimeObject_Int32_t2071877448_Int32_t2071877448_CharU26_t1894467670_SByte_t454417549PFvvEPK10MethodInfoPvPS4_
lmg:_UInt16_System_IConvertible_ToDouble_m4100549304_AdjustorThunk
Bkb:__Z29ClearRepeatingLogMessageStatev
zFd:_Single_System_IConvertible_ToInt16_m962677079
Oea:__ZN21EnlightenSceneMappingaSERKS_
vxf:_Collection_1_SetItem_m546457615_gshared
R$j:__ZNK6il2cpp8metadata21Il2CppGenericInstHashclEPK17Il2CppGenericInst
NFd:_Single_System_IConvertible_ToUInt32_m2447833283
cEa:__ZN7ApiGLESD2Ev
JYg:__ZL95CustomEventData_t1269126727_CustomAttributesCacheGenerator_CustomEventData_AddUInt16_m579394295P21CustomAttributesCache
aOa:__ZN9Transform47ClearTransformHierarchyAndApplyToSerializedDataEv
ydi:_InternalEnumerator_1_get_Current_m4083613828_AdjustorThunk
MHc:__ZN8JSONRead21TransferSTLStyleArrayINSt3__26vectorI8MonoPPtr13stl_allocatorIS3_L18MemLabelIdentifier1ELi16EEEEEEvRT_17TransferMetaFlags
Gyd:_RijndaelManaged_GenerateKey_m3366247933
G0e:_BinaryReader_ReadUInt64_m1893783375
WRa:__ZN6Camera23VirtualRedirectTransferER19StreamedBinaryWriteILb0EE
v7j:dynCall_fidi
fxj:__ZN15dense_hashtableINSt3__24pairIK10KeyWrapperINS1_IPK9FieldInfoP11Il2CppClassEEEjEES9_17ReflectionMapHashIS8_EN14dense_hash_mapIS9_jSD_NS9_14EqualsComparerINS0_8equal_toIS8_EEEENS0_9allocatorISB_EEE9SelectKeyESI_SK_E12resize_deltaEjj
zOh:_ScrollRect_set_movementType_m3292965850
zFg:__ZL59AttributeTargets_t1984597432_CustomAttributesCacheGeneratorP21CustomAttributesCache
v1:__ZN11UnityEngine15CloudWebService14RestDownloaderD2Ev
K7b:__Z29StdTemplateConversionFunctionIjhEbPvR14SafeBinaryRead
YQa:__ZN15dense_hashtableINSt3__24pairIKN9ShaderLab7Program23ShaderKeywordSetAndHashEPKNS2_10SubProgramEEES4_NS3_24ShaderKeywordHashFunctorEN14dense_hash_mapIS4_S8_SA_NS0_8equal_toIS4_EE13stl_allocatorIS9_L18MemLabelIdentifier67ELi16EEE9SelectKeyESD_SG_E15insert_noresizeERKS9_
nef:_List_1_GrowIfNeeded_m2986672263_gshared
u7h:_ArrayReadOnlyList_1_Remove_m2325516426_gshared
Teb:__ZN14SubstanceInput8TransferI24GenerateTypeTreeTransferEEvRT_
fce:_Hashtable_get_Count_m830088216
JYa:__ZN13RenderTexture12SetDimensionE16TextureDimension
oe:_SDL_FreeRW
eQe:_PKCS1_OS2IP_m1273945439
zAd:_SHA1Internal_FillBuff_m891541953
RIg:__ZL62ResolveEventHandler_t3842432458_CustomAttributesCacheGeneratorP21CustomAttributesCache
vld:__Z34CanvasRenderer_Get_Custom_PropCullP12Il2CppObject
Y6h:_ArrayReadOnlyList_1_get_IsReadOnly_m2717922212_gshared
yW:__ZN20SoundChannelInstance8getDelayE14FMOD_DELAYTYPEPjS1_
DZj:__ZNSt3__26__treeINS_12__value_typeIPvxEENS_19__map_value_compareIS2_S3_NS_4lessIS2_EELb1EEENS_9allocatorIS3_EEE12__find_equalIS2_EERPNS_16__tree_node_baseIS2_EESF_RKT_
rZd:_InputField_set_customCaretColor_m3534590098
JOh:_ScrollRect_set_viewport_m323693490
QCg:__ZL66RijndaelManagedTransform_t135163252_CustomAttributesCacheGeneratorP21CustomAttributesCache
cZe:_NumberFormatter_FormatExponential_m3975285307
L_c:__ZNSt3__26vectorIN20TextRenderingPrivate8FontImpl13CharacterInfoE13stl_allocatorIS3_L18MemLabelIdentifier1ELi16EEE8__appendEj
v:tempBigInt
we:_emscripten_glVertexAttrib1fv
aFi:_Mesh_CheckCanAccessSubmesh_m764012688
Znb:__ZNSt3__26vectorIN9ShaderLab20SerializedSubProgram12UAVParameterENS_9allocatorIS3_EEE7reserveEj
Jfd:__Z32TransferEnumWithNameForceIntSizeI14SafeBinaryRead24TilemapRendererSortOrderEvRT_RT0_PKc17TransferMetaFlags
r4j:__ZSt11__terminatePFvvE
b_d:_InputField_get_selectionAnchorPosition_m466595604
_Eg:__ZL99Thread_t241561612_CustomAttributesCacheGenerator_Thread_t241561612____ExecutionContext_PropertyInfoP21CustomAttributesCache
nT:__ZN12AudioManager14systemCallbackEP11FMOD_SYSTEM24FMOD_SYSTEM_CALLBACKTYPEPvS3_
J4g:__ZL111LayoutUtility_t4076838048_CustomAttributesCacheGenerator_LayoutUtility_U3CGetPreferredHeightU3Em__5_m1524880643P21CustomAttributesCache
F0i:_EqualityComparer_1_System_Collections_IEqualityComparer_Equals_m1091252481_gshared
Nyj:__ZN24dense_hashtable_iteratorINSt3__24pairIK10KeyWrapperINS1_IPK10MethodInfoP11Il2CppClassEEEjEES9_17ReflectionMapHashIS8_EN14dense_hash_mapIS9_jSD_NS9_14EqualsComparerINS0_8equal_toIS8_EEEENS0_9allocatorISB_EEE9SelectKeyESI_SK_E30advance_past_empty_and_deletedEv
ZXa:__ZN16ReflectionProbes16UpdateSampleDataEv
fVg:__ZL107AudioClip_t1932558630_CustomAttributesCacheGenerator_AudioClip_InvokePCMReaderCallback_Internal_m4135619730P21CustomAttributesCache
gVg:__ZL112AudioClip_t1932558630_CustomAttributesCacheGenerator_AudioClip_InvokePCMSetPositionCallback_Internal_m1220105088P21CustomAttributesCache
JYi:_UnityEvent_1_AddListener_m4113183338_gshared
jeb:__ZN18ProceduralMaterial23VirtualRedirectTransferER17RemapPPtrTransfer
Smi:_SafeHandle_Finalize_m1839546519
g9a:__ZN14Texture2DArray5ResetEv
rhi:_InternalEnumerator_1_MoveNext_m252820768_AdjustorThunk
Fpi:_Context_AllocateNamedDataSlot_m3200404053
YIf:_CryptoConvert_ToHex_m2874017189
AYf:_X509EnhancedKeyUsageExtension_Decode_m3866320499
_Ye:_NumberFormatter_AppendIntegerStringWithGroupSeparator_m1401773574
dnf:_List_1_Remove_m1237648310_gshared
rLf:_CipherSuite_get_ServerHMAC_m3566778727
nvg:__ZL64DebuggerBrowsableState_t944457511_CustomAttributesCacheGeneratorP21CustomAttributesCache
Te:_JS_Sound_Play
uqd:__Z26GetUnityConnectSettingsPtrv
BYd:_Image_IsRaycastLocationValid_m864962354
Zmh:__Z181RuntimeInvoker_Void_t1841601450_RuntimeObject_Int32_t2071877448_Int32_t2071877448_RuntimeObject_Int32_t2071877448_Int32_t2071877448_RuntimeObject_Int32_t2071877448_Int32_t2071877448PFvvEPK10MethodInfoPvPS4_
Vmb:__ZN9ShaderLab16SerializedShader8TransferI14SafeBinaryReadEEvRT_
ZHa:__ZN5Mutex7TryLockEv
NWi:_InvokableCall_1_remove_Delegate_m3013073467_gshared
SOg:__ZL99Sprite_t309593783_CustomAttributesCacheGenerator_Sprite_get_associatedAlphaSplitTexture_m1902878088P21CustomAttributesCache
dH:__ZN7mecanim8skeleton13SkeletonAlignEPKNS0_8SkeletonERKN4math7_float4ES7_i
Tgc:__ZN19ShaderPropertySheet16SetVectorIndexedEN9ShaderLab16FastPropertyNameEifRK8Vector4fNS_8SetFlagsE
sq:__ZN14SafeBinaryRead21TransferSTLStyleArrayIN4core12basic_stringIcNS1_20StringStorageDefaultIcEEEEEEvRT_17TransferMetaFlags
K6f:_RemotingConfiguration_RegisterWellKnownServiceType_m2491506630
jNg:__ZL89Screen_t786852042_CustomAttributesCacheGenerator_Screen_t786852042____height_PropertyInfoP21CustomAttributesCache
Mzg:__ZL55_TypeBuilder_t2783404358_CustomAttributesCacheGeneratorP21CustomAttributesCache
G7i:__ZL25UnresolvedVirtualCall_204P12Il2CppObjectPK10MethodInfo
m8b:__Z29StdTemplateConversionFunctionIayEbPvR14SafeBinaryRead
K0d:_LayoutRebuilder_Initialize_m2671585490
Nif:_List_1_System_Collections_IList_IndexOf_m4061554721_gshared
Y1:__ZN11UnityEngine15CloudWebService14DataDispatcher4StopEv
BJf:_MD4Managed_H_m4236752602
$nb:__ZNSt3__26vectorIN9ShaderLab20SerializedSubProgram12UAVParameterENS_9allocatorIS3_EEE8__appendEj
Wsf:_Collection_1_GetEnumerator_m434271983_gshared
GAj:__ZNK15dense_hashtableINSt3__24pairIK10KeyWrapperINS1_IPK9EventInfoP11Il2CppClassEEEjEES9_17ReflectionMapHashIS8_EN14dense_hash_mapIS9_jSD_NS9_14EqualsComparerINS0_8equal_toIS8_EEEENS0_9allocatorISB_EEE9SelectKeyESI_SK_E12test_deletedERK24dense_hashtable_iteratorISB_S9_SD_SM_SI_SK_E
GCd:_X509Certificate_ToString_m1582581274
BYh:_Enumerator_get_Current_m2986380627_gshared
Omc:__ZNK17AnimationCurveTplI11QuaternionfE8GetRangeEv
kJa:__ZN17ScriptingGCHandle7AcquireE18ScriptingObjectPtr25ScriptingGCHandleWeakness
Goi:_LifetimeServices_set_LeaseTime_m1487876644
d8g:_ConstructorBuilder_not_supported_m3687319507
jtg:__ZL48IList_t3321498491_CustomAttributesCacheGeneratorP21CustomAttributesCache
rjd:__ZN2UI14CanvasRenderer14AttachToCanvasER8JobFencePNS_6CanvasENS0_15InstructionTypeE
YRc:__ZN25SyncColliderTransformData3JobEPS_jPK23TransformAccessReadOnlyPKyj
EFd:_Single_System_IConvertible_ToInt64_m3555853323_AdjustorThunk
Aii:_InternalEnumerator_1__ctor_m3901400705_AdjustorThunk
p6j:dynCall_iifiii
Tsa:__Z21HasAlphaTextureFormat13TextureFormat
cY:__ZN12AudioManager6UpdateEv
Msa:__ZN14ImageReference9BlitImageERKS_NS_8BlitModeE
KYg:__ZL95CustomEventData_t1269126727_CustomAttributesCacheGenerator_CustomEventData_AddInt32_m3964879555P21CustomAttributesCache
py:__ZN8Animator12AddToManagerEv
Lxg:__ZL93ConstructorInfo_t2851816542_CustomAttributesCacheGenerator_ConstructorInfo_Invoke_m2144827141P21CustomAttributesCache
sWh:_ShimEnumerator_get_Key_m1171725158_gshared
RNb:__ZN23CachedSerializationDataD2Ev
S3b:__ZNK25CameraStackRenderingState31CalculateStereoCameraTargetTypeEv
AXa:__ZN14RenderSettings23VirtualRedirectTransferER14SafeBinaryRead
JQc:__ZNK13b2CircleShape5CloneEP16b2BlockAllocator
fPj:__ZN6il2cpp2os10ThreadImpl15CurrentThreadIdEv
bxf:_Collection_1_System_Collections_IList_get_IsReadOnly_m4005091053_gshared
Due:_Array_InternalArray__ICollection_Contains_TisColor32_t874517518_m2818328910_gshared
kVa:__ZN17GlobalGameManager8TransferI17RemapPPtrTransferEEvRT_
dUe:_AppDomainInitializer_EndInvoke_m4003801172
Tsg:__ZL66RuntimeArray_CustomAttributesCacheGenerator_Array_Sort_m2544329074P21CustomAttributesCache
S2i:_AudioExtensionManager_WriteExtensionProperties_m4015275001
gXa:__ZN16LevelGameManager8TransferI18StreamedBinaryReadILb0EEEEvRT_
jbd:_UNITY_tt_face_load_fpgm
RNa:__Z17IsObjectAvailablei
qfb:__ZN12InputManagerD0Ev
xfj:_RaycastHit2D_get_point_m2962370910
PZj:__ZN6il2cpp6icalls8mscorlib6System11Diagnostics10StackTrace9get_traceEP15Il2CppExceptionib
_Ue:_NumberFormatInfo_set_NumberNegativePattern_m1050626150
LRa:__ZNK16LightmapSettings14GetLightProbesEv
GOh:_ScrollRect_get_scrollSensitivity_m1160815603
wfg:_UnicodeEncoding_GetBytes_m1337660232
rKb:__Z18Transfer_BlittableI18StreamedBinaryReadILb0EELb1EtEvRK29SerializationCommandArgumentsR31RuntimeSerializationCommandInfo
l3j:_posix_memalign
ihc:__ZN13ProduceHelperI12MeshRendererLb0EE7ProduceE18MemLabelIdentifier18ObjectCreationMode
hpf:_List_1_get_Count_m1249351212_gshared
yii:_InternalEnumerator_1_get_Current_m747506907_AdjustorThunk
xxi:_LogCallback_Invoke_m115567905
xqh:__Z38RuntimeInvoker_PaddingMode_t3032142640PFvvEPK10MethodInfoPvPS4_
jLf:_CertificateValidationCallback2_BeginInvoke_m3996282202
cSf:_SslClientStream_get_ClientCertSelectionDelegate_m2316959461
R9d:_SynchronizedArrayListWrapper_get_SyncRoot_m1466044127
V9:__ZNK15MonoScriptCache7ReleaseEv
wij:__ZN6il2cpp2vm5Class13HasReferencesEP11Il2CppClass
gg:_glBindTexture
Tsf:_Collection_1_ClearItems_m3585785594_gshared
z1j:_snprintf
O3g:__ZL84HorizontalOrVerticalLayoutGroup_t1968298610_CustomAttributesCacheGenerator_m_SpacingP21CustomAttributesCache
A6g:_Binder__ctor_m1361613966
_Zd:_InputField_set_caretPosition_m888572237
ubh:_ILGenerator__cctor_m3943061018
g9d:_ArrayListWrapper_Clone_m1506311066
_bj:_CanvasRenderer_CreateUIVertexStream_m2882962535
_lb:__Z36scripting_liveness_calculation_begin17ScriptingClassPtriPFvPP12Il2CppObjectiPvES3_PFvvES7_
GLf:_CipherSuite_set_Context_m4127897124
KBa:__ZN16UniformCacheGLES6CreateERK20GpuProgramParameters
Kgg:_UTF8Encoding_Fallback_m811555654
eL:__ZN7mecanim12statemachine13StateConstant8TransferI24GenerateTypeTreeTransferEEvRT_
Mze:_Array_InternalArray__IndexOf_TisPlayableBinding_t2498078091_m398853908_gshared
DOi:_ScriptableObject_t1975622470_marshal_pinvoke_cleanup
meg:_Encoding_GetString_m1894033578
ZBf:_ReadOnlyCollection_1_System_Collections_IList_Clear_m1918003010_gshared
fkh:__Z77RuntimeInvoker_Void_t1841601450_RuntimeObject_RuntimeObject_Int32_t2071877448PFvvEPK10MethodInfoPvPS4_
jak:_emscripten_glGetProgramInfoLog__wrapper
PQi:_Transform_set_localScale_m1442831667
LM:__ZN25AnimatedPropertyEvaluator29BindCurveToScriptingObjectPtrERKN13AnimationClip10FloatCurveEj18ScriptingObjectPtrb
Ogg:_UTF8Encoding_InternalGetChars_m373801468
dba:__ZN17PersistentManager23DestroyFromFileInternalEi
mne:_Decimal_System_IConvertible_ToChar_m2425091200_AdjustorThunk
WYb:__Z19SetupMotionMatricesR6CameraR18RPDataMotionVector
$qe:_Enum_ToString_m2112979707
kBg:__ZL55SoapServices_t3397513225_CustomAttributesCacheGeneratorP21CustomAttributesCache
w4f:_MonoMethodMessage_get_MethodName_m3580519713
sI:__ZN26AnimatorControllerPlayable18PrepareForPlaybackERN7mecanim6memory9AllocatorE
iqe:_Enum_t2459695545_marshal_pinvoke_cleanup
UOi:_HitInfo_t1761367055_marshal_pinvoke_cleanup
Exd:_HMACSHA512__cctor_m1167457383
Fgg:_UTF8Encoding_GetBytes_m4170182058
nif:_List_1_IndexOf_m2418862432_gshared
iRa:__ZN22CreateGpuProgramOutputC2Ev
k$f:_X509Chain__ctor_m2242540866
Ps:__Z21GetAnimatableBindTypeRK16TypeTreeIterator
n3e:_MemoryStream_InternalConstructor_m2423667240
Mui:_CapturingGroup_set_Index_m2175936006
r5f:_SoapMethodAttribute_SetReflectionObject_m3431595769
jRh:_Slider_set_maxValue_m2951480075
_nd:__Z38CustomEventData_CUSTOM_InternalDestroyP12Il2CppObject
Ohc:__ZN8GUILayer12CleanupClassEv
m$d:_InputField_OnSubmit_m2856515494
vij:__ZN6il2cpp2vm5Class4InitEP11Il2CppClass
ha:invoke_vidi
VRe:_DeriveBytes_Adjust_m105515328
Ijd:__ZN2UI14CanvasRenderer17SyncDirtyElementsER8JobFence
nKb:__Z18Transfer_BlittableI18StreamedBinaryReadILb0EELb0ExEvRK29SerializationCommandArgumentsR31RuntimeSerializationCommandInfo
DRd:_ColorBlock_op_Inequality_m1517672458
GSj:__ZN6il2cpp5utils11StringUtils15StringDuplicateEPKc
l5b:__Z15CanAddComponentR10GameObjectPKN5Unity4TypeE
zQa:__ZNK9ShaderLab21ShaderRasterStateDesc16ToGfxRasterStateEPK19ShaderPropertySheetS3_R14GfxRasterState
P3:_tlsf_memalign
dcg:_CspParameters__ctor_m2480441577
G$j:__ZN6il2cpp2os9EventImplC2Ebb
gpi:_DynamicPropertyCollection_NotifyMessage_m840388347
Wvi:_Uri_ParseUri_m5711497
ZL:__ZN4PPtrI13MonoBehaviourE8TransferI19StreamedBinaryWriteILb0EEEEvRT_
dwh:__Z98RuntimeInvoker_RuntimeObject_RuntimeObject_RayU26_t3651946800_Single_t2076509932_Int32_t2071877448PFvvEPK10MethodInfoPvPS4_
Su:__ZNSt3__26vectorIN13AnimationClip9PPtrCurveE13stl_allocatorIS2_L18MemLabelIdentifier26ELi16EEE6resizeEj
C6:__Z20IsMatrixBuiltinParamPKcPi
M1g:__ZL108MaskableGraphic_t540192618_CustomAttributesCacheGenerator_MaskableGraphic_ParentMaskStateChanged_m3643747340P21CustomAttributesCache
Cyj:__ZN15dense_hashtableINSt3__24pairIK10KeyWrapperINS1_IPK10MethodInfoP11Il2CppClassEEEjEES9_17ReflectionMapHashIS8_EN14dense_hash_mapIS9_jSD_NS9_14EqualsComparerINS0_8equal_toIS8_EEEENS0_9allocatorISB_EEE9SelectKeyESI_SK_E16reset_thresholdsEv
Agc:__ZN8Renderer19PostInitializeClassEv
oQi:_TrackedReference_t1045890189_marshal_pinvoke_back
o8h:_InternalEnumerator_1_get_Current_m1943362081_AdjustorThunk
VXj:__ZN6il2cpp6icalls8mscorlib6System8Delegate23CreateDelegate_internalEP20Il2CppReflectionTypeP12Il2CppObjectP22Il2CppReflectionMethodb
lsg:__ZL82RuntimeArray_CustomAttributesCacheGenerator_Array_GetValue_m1507415734____indices0P21CustomAttributesCache
O6g:_Default_check_type_m2363631305
kNb:__ZN18DelayedCallManager18CancelCallDelayed2E4PPtrI6ObjectEPF15CallObjectStatePS1_PvES7_
Hif:_List_1__cctor_m911493842_gshared
dHa:__ZN25ThreadsafeLinearAllocator10ReallocateEPvji
sxb:__Z18Transfer_BlittableI14SafeBinaryReadLb1E11QuaternionfEvRK29SerializationCommandArgumentsR31RuntimeSerializationCommandInfo
Q6i:__ZL25UnresolvedVirtualCall_160P12Il2CppObject22UICharInfo_t3056636800S1_PK10MethodInfo
bja:__ZN18SpriteAtlasManagerD0Ev
Oze:_Array_InternalArray__IndexOf_TisRaycastHit2D_t4063908774_m3739817942_gshared
Qgh:_MonoProperty_GetAccessors_m3704698731
wXj:_GC_disable
Mab:__ZN10Matrix4x4f8TransferI14SafeBinaryReadEEvRT_
qYc:__ZN15dense_hashtableINSt3__24pairIKNS1_IPK10Collider2DS4_EEjEES5_NS2_23ColliderPairHashFunctorEN14dense_hash_mapIS5_jS8_NS0_8equal_toIS5_EE13stl_allocatorIS7_L18MemLabelIdentifier67ELi16EEE9SelectKeyESB_SE_E9copy_fromERKSH_j
E6e:_UnmanagedMemoryStream_ReadByte_m2501145010
w1h:_Dictionary_2__ctor_m406310120_gshared
A8f:_ObjectRecord_UnchainFixup_m3025030310
pI:__ZN14AvatarPlayback8StopTimeEv
oda:__Z6AppendRKN4core12basic_stringIcNS_20StringStorageDefaultIcEEEEPKc
Brg:__ZL60MulticastDelegate_t3201952435_CustomAttributesCacheGeneratorP21CustomAttributesCache
Zlb:__ZL14OnWorldStoppedv
bHb:__Z18Transfer_BlittableI18StreamedBinaryReadILb1EELb0E8Vector3fEvRK29SerializationCommandArgumentsR31RuntimeSerializationCommandInfo
cwh:__Z81RuntimeInvoker_RuntimeObject_Ray_t2469606224_Single_t2076509932_Int32_t2071877448PFvvEPK10MethodInfoPvPS4_
P0g:__ZL61Image_t2042527209_CustomAttributesCacheGenerator_m_FillCenterP21CustomAttributesCache
ozi:_Color_ToString_m55788918_AdjustorThunk
jqa:__ZN7ApiGLES18ClearBufferSubDataEjN2gl12BufferTargetEll
qO:__ZN8Animator7SetBoolEib
_qc:__Z37Camera_Get_Custom_PropAllCamerasCountv
B9a:__ZN14Texture2DArray8TransferI18StreamedBinaryReadILb0EEEEvRT_
HFj:__ZN6il2cpp6icalls8mscorlib6System5Array9GetLengthEP11Il2CppArrayi
b1b:__Z18ApplyOcclusionMaskR19ProbeOcclusionCacheRK17LightProbeContextRK10RenderNodeb
Ema:__ZN13GfxDeviceGLES13AfterDrawCallEv
I2e:_FileStreamAsyncResult__ctor_m1096228032
_5c:_Split_Cubic
eb:invoke_fiiii
Pme:_DBNull_System_IConvertible_ToSByte_m1228193074
Asf:_Collection_1__ctor_m2818834331_gshared
ivh:__Z68RuntimeInvoker_UInt16_t986882611_UInt16_t986882611_UInt16_t986882611PFvvEPK10MethodInfoPvPS4_
VXi:_UnityAction_1_Invoke_m3979091955_gshared
evf:_Collection_1_Insert_m3041550124_gshared
i2e:_FileStream_FlushBuffer_m2594140542
M5c:_ft_black_render
tTj:__ZN6il2cpp2vm8Profiler12GCHeapResizeEx
D7j:dynCall_viiifi
Mxa:__ZN18GfxFramebufferGLES20ActiveContextChangedEPP17RenderSurfaceBaseS2_
zxa:__Z19PluginsRenderMarkeri
JN:__ZN10HumanTrait18InitializeBoneNameEv
vQg:__ZL130DrivenRectTransformTracker_t154385424_CustomAttributesCacheGenerator_DrivenRectTransformTracker_Clear_m4190599786____revertValues0P21CustomAttributesCache
m2h:_DefaultComparer__ctor_m899694595_gshared
Gvi:__ZN23InterfaceActionInvoker1ItE6InvokeEjP11Il2CppClassP12Il2CppObjectt
f9a:__ZN14Texture2DArray21AwakeFromLoadThreadedEv
nLb:__Z29Transfer_Blittable_ArrayFieldI18StreamedBinaryReadILb0EEyEvRT_R9ArrayInfoRK23StaticTransferFieldInfo
HHi:_X509CertificateEnumerator_get_Current_m3129374511
E4h:_EqualityComparer_1_get_Default_m875724809_gshared
hLj:__ZNSt3__214__split_bufferIN6il2cpp2vm5Image20EmbeddedResourceDataERNS_9allocatorIS4_EEEC2EjjS7_
qXd:_HorizontalOrVerticalLayoutGroup_get_spacing_m2859152439
Uyg:__ZL57DispIdAttribute_t607560947_CustomAttributesCacheGeneratorP21CustomAttributesCache
EQ:__ZN12AudioManager17RemoveAudioSourceEP11AudioSource
kdd:__ZN7Tilemap17RemoveFromManagerEv
VUi:_GUILayoutEntry_SetVertical_m861127195
atg:__ZL83RuntimeArray_CustomAttributesCacheGenerator_RuntimeArray____LongLength_PropertyInfoP21CustomAttributesCache
Bqh:__Z151RuntimeInvoker_Int32_t2071877448_RuntimeObject_Int32_t2071877448_Int32_t2071877448_RuntimeObject_Int32_t2071877448_DecoderFallbackBufferU26_t3597875002PFvvEPK10MethodInfoPvPS4_
H$i:_AesManaged_get_KeySize_m2773901127
NIe:_Array_InternalArray__get_Item_TisUInt64_t2909196914_m2580870875_gshared
vDj:__ZN15dense_hashtableINSt3__24pairIK10KeyWrapperINS1_IP11Il2CppClassjEEES4_EES6_N6il2cpp8metadata14ArrayClassHashEN14dense_hash_mapIS6_S4_SB_NS6_14EqualsComparerINSA_17ArrayClassCompareEEENS0_9allocatorIS8_EEE9SelectKeyESF_SH_E4swapERSK_
Wec:__ZN13ProduceHelperI14SpriteRendererLb0EE7ProduceE18MemLabelIdentifier18ObjectCreationMode
SZ:__ZN5physx14PxLightCpuTask12addReferenceEv
KTc:__Z10b2DistanceP16b2DistanceOutputP14b2SimplexCachePK15b2DistanceInput
J4a:__ZN21EnlightenSceneMapping8TransferI19StreamedBinaryWriteILb0EEEEvRT_
IMj:__ZN6il2cpp2gc16GarbageCollector19InitializeFinalizerEv
bE:__ZN7mecanim8skeleton18CreateSkeletonMaskEjPKNS0_19SkeletonMaskElementERNS_6memory9AllocatorE
Jsg:__ZL66RuntimeArray_CustomAttributesCacheGenerator_Array_Sort_m4096942812P21CustomAttributesCache
Ezc:__ZN10GUIManager10DoGUIEventER10InputEventb
YLf:_Context_get_ClientWriteKey_m2235605337
jDb:__Z35Transfer_Blittable_FixedBufferFieldI24GenerateTypeTreeTransferxEvRK29SerializationCommandArgumentsR31RuntimeSerializationCommandInfo
mVh:_Enumerator__ctor_m3597047336_AdjustorThunk
obd:_UNITY_TT_Init_Glyph_Loading
WXb:__Z20CalculateSqrDistanceRK8Vector3fRK4AABB
RU:__Z32AudioMixerDuckingProcessCallbackP21UnityAudioEffectStatePfS1_jii
B7g:_CustomAttributeTypedArgument_GetHashCode_m999147081_AdjustorThunk
Efc:__ZN26CustomRenderTextureManagerD2Ev
r2e:_FileStream_Read_m3880951166
x3i:_AudioExtensionManager_Update_m3727859914
uR:__ZN12AudioManager8TransferI24GenerateTypeTreeTransferEEvRT_
Vra:__Z25GetBytesFromTextureFormat13TextureFormat
X9a:__ZN9Texture3D19UnloadFromGfxDeviceEb
zGj:__ZN6il2cpp6icalls8mscorlib6System9Threading6Thread20Thread_free_internalEP12Il2CppThreadi
B5j:dynCall_iiffi
sBb:__Z18Transfer_BlittableI17RemapPPtrTransferLb0EsEvRK29SerializationCommandArgumentsR31RuntimeSerializationCommandInfo
QGe:_Dictionary_2_Do_CopyTo_TisRuntimeObject_TisRuntimeObject_m2625001464_gshared
UHg:__ZL67Math_t2022911894_CustomAttributesCacheGenerator_Math_Min_m105057611P21CustomAttributesCache
EM:__ZN16MecanimAnimation25RegisterIAnimationBindingEPKN5Unity4TypeEiP17IAnimationBinding
Uaa:__Z32scripting_class_get_assemblyname17ScriptingClassPtr
ppd:__ZN11UnityEngine15PlatformWrapper15GetVRDeviceNameEv
Q_h:_Dictionary_2_Resize_m2532139610_gshared
vEi:_Mathf_RoundToInt_m1833913145
_mf:_List_1_IndexOf_m2019441835_gshared
Rjg:_TimeSpan_Equals_m2029123271_AdjustorThunk
roj:__ZN6il2cpp2vm13MetadataCache23GetInvokerMethodPointerEPK10MethodInfoPK20Il2CppGenericContext
dDa:__ZN9GfxDevice21RegisterNativeTextureE9TextureIDi16TextureDimension
Rse:_CultureInfo__ctor_m456863818
bZj:__ZN6il2cpp6icalls8mscorlib6System10Reflection4Emit11TypeBuilder20create_generic_classEP27Il2CppReflectionTypeBuilder
erj:__ZNSt3__26vectorIPK10MethodInfoNS_9allocatorIS3_EEE26__swap_out_circular_bufferERNS_14__split_bufferIS3_RS5_EE
bdf:_Enumerator_MoveNext_m2504790928_gshared
U2g:__ZL61Slider_t297367283_CustomAttributesCacheGenerator_m_HandleRectP21CustomAttributesCache
wZ:__Z60Register_UnityEngine_AudioListener_GetNumExtensionPropertiesv
Zi:_emscripten_glUniformMatrix4fv
MDj:__ZN15dense_hashtableINSt3__24pairIK10KeyWrapperINS1_IP11Il2CppClassjEEES4_EES6_N6il2cpp8metadata14ArrayClassHashEN14dense_hash_mapIS6_S4_SB_NS6_14EqualsComparerINSA_17ArrayClassCompareEEENS0_9allocatorIS8_EEE9SelectKeyESF_SH_E13set_empty_keyERKS8_
lsb:__ZN12ScriptMapperD2Ev
FZg:__ZL85AxisEventData_t1524870173_CustomAttributesCacheGenerator_U3CmoveDirU3Ek__BackingFieldP21CustomAttributesCache
Xed:__ZNSt3__26__treeINS_12__value_typeIN4math12int3_storageE4TileEENS_19__map_value_compareIS3_S5_20TilemapPosition_LessLb1EEE13stl_allocatorIS5_L18MemLabelIdentifier95ELi16EEE12__find_equalIS3_EERPNS_16__tree_node_baseIPvEENS_21__tree_const_iteratorIS5_PNS_11__tree_nodeIS5_SF_EEiEESI_RKT_
AHi:_X509Certificate_PEM_m49854707
uSe:_PKCS12_get_RNG_m3620550062
DYf:_X509BasicConstraintsExtension__ctor_m3320418592
KGi:_ExtendedKeyUsageExtension_Decode_m901297139
Yob:__Z32TransferEnumWithNameForceIntSizeI14SafeBinaryRead7FogModeEvRT_RT0_PKc17TransferMetaFlags
$vc:__Z52Register_UnityEngine_RenderTexture_Internal_GetWidthv
gug:__ZL89SafeWaitHandle_t481461830_CustomAttributesCacheGenerator_SafeWaitHandle__ctor_m1710231470P21CustomAttributesCache
gWj:_GC_check_leaked
Dqb:__ZN9ShaderLab20SerializedSubProgram16TextureParameter8TransferI19StreamedBinaryWriteILb0EEEEvRT_
wDe:_Array_InternalArray__Insert_TisVector4_t2243707581_m1643342708_gshared
lGa:__ZNK7Hash12812PackToUInt32Ev
KKh:_Mask_OnSiblingGraphicEnabledDisabled_m865494155
sVf:_KeysCollection_System_Collections_ICollection_get_SyncRoot_m2289369147
Yzj:__ZNSt3__218uninitialized_fillIPNS_4pairIK10KeyWrapperINS1_IPK12PropertyInfoP11Il2CppClassEEEjEESB_EEvT_SD_RKT0_
Jca:__ZNSt3__227__insertion_sort_incompleteIRNS_6__lessI14ObjectLoadDataS2_EEPS2_EEbT0_S6_T_
e2:__ZN11UnityEngine15CloudWebService16SessionContainer8AddEventEPNS0_14CloudEventInfoE
MBa:__Z4TrimRKN4core12basic_stringIcNS_20StringStorageDefaultIcEEEES5_
rSh:_Text_set_resizeTextMaxSize_m4034967714
Ntg:__ZL55GuidAttribute_t222072359_CustomAttributesCacheGeneratorP21CustomAttributesCache
m7g:_CustomAttributeNamedArgument_Equals_m2691468532
Pqg:__ZL74String_t_CustomAttributesCacheGenerator_String_Concat_m3881798623____args0P21CustomAttributesCache
bCg:__ZL103CryptoConfig_t896479599_CustomAttributesCacheGenerator_CryptoConfig_CreateFromName_m2169102076____args1P21CustomAttributesCache
_7a:__ZN10VertexData8TransferI14SafeBinaryReadEEvRT_
JS:__ZN4FMOD8ChannelI8setDelayE14FMOD_DELAYTYPEjj
hee:_Stack__ctor_m2410583781
aXj:_GC_malloc_atomic
M6g:_Default_GetBetterMethod_m4255740863
o8g:_ConstructorBuilder_GetILGenerator_m1731893569
jLj:__ZNSt3__214__split_bufferIN6il2cpp2vm5Image20EmbeddedResourceDataERNS_9allocatorIS4_EEED2Ev
V8:__ZL20SortItemByInstanceIDRKN18AwakeFromLoadQueue4ItemES2_
sdh:_TypeBuilder_create_runtime_class_m2719530260
Dzd:_RNGCryptoServiceProvider_RngClose_m2921734810
nE:__ZNK34AnimationStateMachineMixerPlayable26GetInterruptedPosePlayableEv
lsd:__ZN20UnityConnectSettings8TransferI24GenerateTypeTreeTransferEEvRT_
GG:__ZN34BlobWriteTransferSTLStyleArrayImplI22OffsetPtrArrayTransferIbEEclERS1_17TransferMetaFlagsR9BlobWrite
$Kg:__ZL199U3CCreateWhereIteratorU3Ec__Iterator1D_1_t2523986802_CustomAttributesCacheGenerator_U3CCreateWhereIteratorU3Ec__Iterator1D_1_System_Collections_Generic_IEnumeratorU3CTSourceU3E_get_Current_m517722874P21CustomAttributesCache
EKe:_SimpleCollator_IsHalfKana_m4255579023
iTf:_InternalAsyncResult_get_Count_m1291942796
yqf:_Collection_1_System_Collections_IList_Contains_m3365884450_gshared
ERj:__ZNK15dense_hashtableINSt3__24pairIK10KeyWrapperIPK19Il2CppGenericMethodEP10MethodInfoEES6_N6il2cpp8metadata23Il2CppGenericMethodHashEN14dense_hash_mapIS6_S9_SD_NS6_14EqualsComparerINSC_26Il2CppGenericMethodCompareEEENS0_9allocatorISA_EEE9SelectKeyESH_SJ_E10test_emptyERK30dense_hashtable_const_iteratorISA_S6_SD_SL_SH_SJ_E
uKa:__Z16FlaggedAsSkippedIN4core12basic_stringIcNS0_20StringStorageDefaultIcEEEEEbRK13FileEntryInfoRKT_19FileEnumerationFlag
uxf:_Collection_1_set_Item_m3440986310_gshared
Dea:__ZL31InitializeRendererUpdateManagerPv
LPd:_BaseMeshEffect__ctor_m2843647600
Qsh:__Z106RuntimeInvoker_RuntimeObject_Int16_t4041245914_RuntimeObject_BooleanU26_t3168250738_BooleanU26_t3168250738PFvvEPK10MethodInfoPvPS4_
VNg:__ZL89Input_t1785128008_CustomAttributesCacheGenerator_Input_get_imeCompositionMode_m1132899721P21CustomAttributesCache
CY:__ZN13AudioListener12CleanupClassEv
PNf:_ClientSessionInfo_Dispose_m2571428025
w0d:_LayoutGroup_DelayedSetDirty_m4276695617
$Qf:_RecordProtocol_decryptRecordFragment_m2510859489
YWi:_InvokableCall_1__ctor_m975753341_gshared
wKd:_BaseRaycaster_get_sortOrderPriority_m3340181311
ggb:__ZN11TimeManager8TransferI19StreamedBinaryWriteILb0EEEEvRT_
Z2e:_DelegatePInvokeWrapper_ReadDelegate_t3184826381
VKg:__ZL91HashSet_1_t2624254809_CustomAttributesCacheGenerator_HashSet_1_OnDeserialization_m627602129P21CustomAttributesCache
V6c:_compare_uni_maps
ucd:__ZL34RegisterModuleICalls_TextRenderingv
aqd:__ZN11UnityEngine15PlatformWrapper27GetGraphicsCapsSupportFlagsEv
Jhd:__ZNSt3__218__insertion_sort_3IRPFbPN2UI6CanvasES3_EPS3_EEvT0_S8_T_
frg:__ZL80Decimal_t724701077_CustomAttributesCacheGenerator_Decimal_op_Explicit_m714968249P21CustomAttributesCache
doe:_Decimal_Equals_m1115043331
MGb:__ZN12NativeBufferI16Converter_StringE15SetupForWritingER9ArrayInfo
vOd:_StandaloneInputModule_DeactivateModule_m2952848884
m9j:___cxa_end_catch__wrapper
PZh:_ValueCollection_System_Collections_Generic_ICollectionU3CTValueU3E_Clear_m231380274_gshared
xLd:_Entry__ctor_m1176697586
F0e:_BinaryReader_ReadUInt32_m1363572147
bHg:__ZL79Convert_t2607082565_CustomAttributesCacheGenerator_Convert_ToUInt32_m3391339025P21CustomAttributesCache
UNb:__ZN13MonoBehaviour22DoScriptRebuildWarningEv
arc:__Z38Camera_CUSTOM_INTERNAL_CALL_RaycastTryP12Il2CppObjectRK3Rayfi
ASh:_Text_get_verticalOverflow_m3134063496
BFj:__ZN6il2cpp6icalls8mscorlib6System5Array13ClearInternalEP11Il2CppArrayii
lmi:_GCHandle_get_Target_m2327042781
UYf:_PublicKey_get_EncodedKeyValue_m3051963850
prh:__Z50RuntimeInvoker_Char_t3454481338_Single_t2076509932PFvvEPK10MethodInfoPvPS4_
ZPd:_Button_OnFinishSubmit_m1646528571
_4j:_llvm_cttz_i32
YYf:_PublicKey_DecodeDSA_m1169363495
HAc:__ZN11IMGUIModule25GetGUIStyleScriptingClassEv
N9c:_tt_get_interface
IFe:_Array_Sort_TisRuntimeObject_m143182644_gshared
Nbg:_AsymmetricKeyExchangeFormatter__ctor_m3362140205
kGj:__ZN6il2cpp5utils9PathUtils7CombineIcEENSt3__212basic_stringIT_NS3_11char_traitsIS5_EENS3_9allocatorIS5_EEEERKSA_SC_
jVf:_NameObjectCollectionBase_BaseGet_m667273025
Kph:__Z104RuntimeInvoker_RuntimeObject_Byte_t3683104436_RuntimeObject_SByte_t454417549_RuntimeObject_RuntimeObjectPFvvEPK10MethodInfoPvPS4_
mGc:__ZN9JSONWrite8TransferI13dynamic_arrayIiLj4EEEEvRT_PKc17TransferMetaFlags
HOg:__ZL82Material_t193706927_CustomAttributesCacheGenerator_Material_SetIntImpl_m1039479734P21CustomAttributesCache
sjc:__ZN13PlayableGraph21InvalidateMultithreadEv
AQ:__ZL16FMOD_ErrorString11FMOD_RESULT_361
Z7:__Z18ConvertUTF16toUTF8PPKtS0_PPhS2_15ConversionFlags
OVi:_GUIStyleState__ctor_m3673085649
snc:__Z24GetActualTargetFrameRatev
flg:_TypeLoadException__ctor_m1903359728
qej:__ZL16my_g_bit_nth_msfj
NXh:_Transform_1_BeginInvoke_m3014766640_gshared
gwd:_KeySizes__ctor_m3526899007
$Dj:__ZN15dense_hashtableINSt3__24pairIK10KeyWrapperIP11Il2CppClassES4_EES5_N6il2cpp8metadata16SZArrayClassHashEN14dense_hash_mapIS5_S4_SA_NS5_14EqualsComparerINS9_19SZArrayClassCompareEEENS0_9allocatorIS7_EEE9SelectKeyESE_SG_E12expand_arrayEjN21dense_hash_map_traits17integral_constantIbLb0EEE
vXe:_Int16_System_IConvertible_ToInt32_m191782913_AdjustorThunk
SM:__ZN9Animation12CleanupClassEv
_Rg:__ZL69ArgumentCache_t4810721_CustomAttributesCacheGenerator_m_FloatArgumentP21CustomAttributesCache
xrf:_Collection_1_CopyTo_m1578267616_gshared
fdg:_EncoderReplacementFallback__ctor_m2208438262
fWb:__Z23SetupStereoFlareElementP11FlareVertexRK8Vector2fS3_S3_RK11ColorRGBA32RK10Matrix4x4fRK8Vector3fb
Ouh:__Z91RuntimeInvoker_X509ChainStatusFlags_t480677120_RuntimeObject_RuntimeObject_SByte_t454417549PFvvEPK10MethodInfoPvPS4_
Jij:__ZN6il2cpp2vm5Class15GetInstanceSizeEPK11Il2CppClass
ECh:__Z37RuntimeInvoker_Enumerator_t3806193287PFvvEPK10MethodInfoPvPS4_
eyi:_UnmarshalledAttribute__ctor_m2832569902
ta:invoke_iiiifiiii
oNi:_RectTransform_set_anchoredPosition_m4223859262
W1h:_Dictionary_2_CopyTo_m1495142643_gshared
tZi:_EventFunction_1_BeginInvoke_m3064802067_gshared
LHg:__ZL67IndexOutOfRangeException_t3527622107_CustomAttributesCacheGeneratorP21CustomAttributesCache
IDj:__ZNK15dense_hashtableINSt3__24pairIK10KeyWrapperINS1_IP11Il2CppClassjEEES4_EES6_N6il2cpp8metadata14ArrayClassHashEN14dense_hash_mapIS6_S4_SB_NS6_14EqualsComparerINSA_17ArrayClassCompareEEENS0_9allocatorIS8_EEE9SelectKeyESF_SH_E12test_deletedERK30dense_hashtable_const_iteratorIS8_S6_SB_SJ_SF_SH_E
j1e:_Directory_GetFiles_m4036267478
xqe:_Enum_System_IConvertible_ToType_m2669300536
VUe:_NumberFormatInfo_get_CurrencyNegativePattern_m3972163809
oya:__ZL19BlitFramebufferImplRN4gles23BlitFramebufferDrawQuadER9GfxDevice9TextureIDRK8Vector4f
WAb:__Z18Transfer_BlittableI17RemapPPtrTransferLb0EhEvRK29SerializationCommandArgumentsR31RuntimeSerializationCommandInfo
Hxj:__ZN15dense_hashtableINSt3__24pairIK10KeyWrapperIPK10Il2CppTypeEjEES6_N6il2cpp8metadata14Il2CppTypeHashEN14dense_hash_mapIS6_jSB_NS6_14EqualsComparerINSA_26Il2CppTypeEqualityComparerEEENS0_9allocatorIS8_EEE9SelectKeyESF_SH_E4findERS7_
Qwh:__Z83RuntimeInvoker_Void_t1841601450_QuaternionU26_t4187826802_QuaternionU26_t4187826802PFvvEPK10MethodInfoPvPS4_
yPi:_StackTraceUtility_ExtractStringFromExceptionInternal_m234524721
oAf:_ReadOnlyCollection_1_System_Collections_IList_Add_m2333231354_gshared
C0c:_UNITY_FT_List_Add
Nch:_OpCodes__cctor_m939885911
bgc:__ZN14Texture2DArray11InitTextureEiii13TextureFormatb
rAi:_CustomYieldInstruction__ctor_m1440815618
SJf:_PKCS1_RSASP1_m1748738009
k1a:__ZN12CubemapArray21AwakeFromLoadThreadedEv
nOg:__ZL92AnimationCurve_t3306541151_CustomAttributesCacheGenerator_AnimationCurve_Cleanup_m3596170191P21CustomAttributesCache
cxi:_UriParser_InitializeAndValidate_m251943319
QBd:_SymmetricAlgorithm_set_Padding_m3081984460
yCj:__ZN15dense_hashtableINSt3__24pairIK10KeyWrapperINS1_IPK11Il2CppImageP11Il2CppClassEEEjEES9_17ReflectionMapHashIS8_EN14dense_hash_mapIS9_jSD_NS9_14EqualsComparerINS0_8equal_toIS8_EEEENS0_9allocatorISB_EEE9SelectKeyESI_SK_E14squash_deletedEv
Rfb:__ZN9InputAxis8TransferI18StreamedBinaryReadILb0EEEEvRT_
k_b:__ZNK6Camera26GetStereoSingleCullEnabledEv
bag:_StreamingContext_t1417235061_marshal_pinvoke_back
ijb:__Z14resize_trimmedINSt3__26vectorIN4core12basic_stringIcNS2_20StringStorageDefaultIcEEEE13stl_allocatorIS6_L18MemLabelIdentifier13ELi16EEEEEvRT_j
t8d:_ArrayList_RemoveAt_m2578928333
ayb:__Z18Transfer_BlittableI14SafeBinaryReadLb0EaEvRK29SerializationCommandArgumentsR31RuntimeSerializationCommandInfo
uXi:_InvokableCall_3__ctor_m4270240248_gshared
uzf:_ReadOnlyCollection_1_System_Collections_IList_set_Item_m1233322304_gshared
RGi:_GeneralNames_get_DNSNames_m2721668874
brh:__Z76RuntimeInvoker_Boolean_t3825574718_TimeSpan_t3430258949_TimeSpan_t3430258949PFvvEPK10MethodInfoPvPS4_
nqe:_Enum_System_IConvertible_ToByte_m38374586
czf:_ReadOnlyCollection_1_System_Collections_Generic_IListU3CTU3E_RemoveAt_m1592158292_gshared
w5g:_PlatformNotSupportedException__ctor_m3301654967
x8j:_emscripten_glFrustum__wrapper
rRf:_ReceiveRecordAsyncResult_get_CompletedWithError_m2670396551
_Ih:__Z37RuntimeInvoker_Enumerator_t2983962278PFvvEPK10MethodInfoPvPS4_
Qne:_Decimal_Equals_m1798565377
fVa:__ZN17GlobalGameManager8TransferI24GenerateTypeTreeTransferEEvRT_
TAh:__Z38RuntimeInvoker_ContentType_t1028629049PFvvEPK10MethodInfoPvPS4_
kMg:__ZL95Component_t3819376471_CustomAttributesCacheGenerator_Component_GetComponentInParent_m1617315419P21CustomAttributesCache
i1g:__ZL66InputField_t1631627530_CustomAttributesCacheGenerator_m_CaretColorP21CustomAttributesCache
jdd:__ZN7Tilemap12AddToManagerEv
Lpb:__ZN15SerializeTraitsINSt3__26vectorIN9ShaderLab20SerializedSubProgram15MatrixParameterENS0_9allocatorIS4_EEEEE8TransferI24GenerateTypeTreeTransferEEvRS7_RT_
A9g:_TypeBuilder_check_created_m2929267877
zx:__ZN19StreamedBinaryWriteILb0EE8TransferIKN4math7_float3EEEvRT_PKc17TransferMetaFlags
rUb:__Z20SyncFenceCullResultsR11CullResults
AAa:__ZN15TextureTFMethod20IsBoneCountSupportedEi
zXa:__ZN14RenderSettings23VirtualRedirectTransferER24GenerateTypeTreeTransfer
wke:_DateTime_System_IConvertible_ToSByte_m2575078084_AdjustorThunk
uCb:__Z22TransferField_NonArrayI17RemapPPtrTransfer27Converter_SimpleNativeClassI8GUIStyleEEvRK23StaticTransferFieldInfoR31RuntimeSerializationCommandInfoRT0_
cgj:_CustomEventData_AddUInt64_m1392334967
vec:__ZNK17AnimationCurveTplIfE20EvaluateWithoutCacheEfRf
ZQj:__ZN6il2cpp2os6Thread12QueueUserAPCEPFvPvES2_
QXa:__ZN19ShaderPropertySheet10SetTextureERK23FastTexturePropertyNameP7Texture
Kwe:_Array_InternalArray__IEnumerable_GetEnumerator_TisDictionaryEntry_t3048875398_m3498834924_gshared
gtf:_Collection_1_IsValidItem_m1304951912_gshared
Olc:__ZN4Mesh10SetNormalsEPK8Vector3fj
Ggh:_PropertyInfo__ctor_m1808219471
bZc:__Z66Register_UnityEngine_Physics2D_INTERNAL_CALL_GetRayIntersectionAllv
Jge:_Convert_ToDateTime_m4161927553
Qdd:__ZN7Tilemap8TransferI14SafeBinaryReadEEvRT_
xSj:__ZNSt3__212basic_stringIDsNS_11char_traitsIDsEENS_9allocatorIDsEEE9__grow_byEjjjjjj
$u:__ZN17AnimationCurveTplIfE8TransferI14SafeBinaryReadEEvRT_
hoh:__Z75RuntimeInvoker_Boolean_t3825574718_RuntimeObject_MonoIOErrorU26_t1029615899PFvvEPK10MethodInfoPvPS4_
xvi:_RegularExpression_set_GroupCount_m2991393456
u7b:__Z29StdTemplateConversionFunctionIybEbPvR14SafeBinaryRead
z6a:__ZNSt3__26vectorIN15QualitySettings14QualitySettingENS_9allocatorIS2_EEE6assignIPS2_EENS_9enable_ifIXaasr21__is_forward_iteratorIT_EE5valuesr16is_constructibleIS2_NS_15iterator_traitsIS9_E9referenceEEE5valueEvE4typeES9_S9_
WFa:__ZNK5Unity9Component10GetEnabledEv
WUb:__ZNK19ShaderPropertySheet11HasPropertyERKN9ShaderLab16FastPropertyNameE
hke:_DateTime_System_IConvertible_ToByte_m2670443498_AdjustorThunk
oZh:_ValueCollection_System_Collections_Generic_ICollectionU3CTValueU3E_Contains_m3650367146_gshared
gtj:_il2cpp_class_get_image
nca:__Z16AsyncReadRequestP16AsyncReadCommand
VIg:__ZL81BigInteger_t925946153_CustomAttributesCacheGenerator_BigInteger__ctor_m4013661868P21CustomAttributesCache
Yhj:__ZNK15dense_hashtableINSt3__24pairIK10KeyWrapperIPK22Il2CppGenericParameterEP11Il2CppClassEES6_N6il2cpp5utils11PointerHashIS4_EEN14dense_hash_mapIS6_S9_SE_NS6_14EqualsComparerINS0_8equal_toIS5_EEEENS0_9allocatorISA_EEE9SelectKeyESJ_SL_E12test_deletedEj
JHf:_BigInteger_op_Addition_m1734797151
O8a:__ZN15dense_hashtableINSt3__24pairIKN4core12basic_stringIcNS2_20StringStorageDefaultIcEEEE13dynamic_arrayI4PPtrI6SpriteELj4EEEES6_20StringHash32FunctionIS6_EN14dense_hash_mapIS6_SC_SF_NS0_8equal_toIS6_EE13stl_allocatorISD_L18MemLabelIdentifier81ELi16EEE9SelectKeyESI_SL_E4findERS7_
dsf:_Collection_1_System_Collections_IList_set_Item_m3488446830_gshared
$9g:_EnumBuilder_CreateNotSupportedException_m62763134
cud:__ZNK12HeaderHelper3GetERKN4core12basic_stringIcNS0_20StringStorageDefaultIcEEEE
Ond:__Z24GetUnityAnalyticsManagerv
$6e:_Math_Log_m3371716878
Ifb:__ZN9InputAxis8TransferI14SafeBinaryReadEEvRT_
i9:__ZNK21ExecutionOrderManager30GetCustomAwakeFromLoadQueueForEPKN5Unity4TypeE
Ctd:__Z27RegisterModule_UnityConnectv
Zbe:_Hashtable__ctor_m4280223555
ohh:_ParameterInfo_get_IsRetval_m1881464570
j6f:_RealProxy__ctor_m3041043303
sYe:_NumberFormatter_Init_m2654758994
rxd:_HMACSHA1__ctor_m1168389339
UWc:__ZNK17Physics2DSettings22GetTypeVirtualInternalEv
Zak:_glBindRenderbuffer__wrapper
bU:__ZN10ObjectPoolIN4FMOD12ChannelGroupENS0_13ChannelGroupIEE7SetSizeEi
xNe:_PrimalityTest_BeginInvoke_m966469054
yyi:_Bounds_get_max_m1939845278_AdjustorThunk
rCf:_ReadOnlyCollection_1_System_Collections_Generic_ICollectionU3CTU3E_Clear_m1785953911_gshared
dog:_UInt64_System_IConvertible_ToInt16_m2797150165_AdjustorThunk
xIe:_Array_InternalArray__get_Item_TisLabelData_t3712112744_m863115768_gshared
g_e:_Int32_Parse_m753946802
Ow:__ZN18StreamedBinaryReadILb0EE21TransferSTLStyleArrayI22OffsetPtrArrayTransferIN7mecanim9animation10ValueDeltaEEEEvRT_17TransferMetaFlags
hXg:__ZL113GUITargetAttribute_t863467180_CustomAttributesCacheGenerator_GUITargetAttribute_GetGUITargetAttrValue_m3706077059P21CustomAttributesCache
Vbc:__ZN9Polygon2D7SetPathEiRK13dynamic_arrayI8Vector2fLj4EE
I3:__Z22ValidateTlsfAllocationPvjiS_
E3i:_AudioConfigurationChangeHandler_Invoke_m653824108
fnf:_List_1_RemoveAt_m2331128844_gshared
ECj:__ZN14dense_hash_mapI10KeyWrapperINSt3__24pairIPK9EventInfoP11Il2CppClassEEEj17ReflectionMapHashIS8_ENS9_14EqualsComparerINS1_8equal_toIS8_EEEENS1_9allocatorINS2_IKS9_jEEEEE15set_deleted_keyERSH_
Qdh:_UnmanagedMarshal_ToMarshalAsAttribute_m3695569337
Mzb:__Z14resize_trimmedINSt3__26vectorI17AnimationCurveTplIfE13stl_allocatorIS3_L18MemLabelIdentifier1ELi16EEEEEvRT_j
Q3b:__ZN25CameraStackRenderingState19SetupLastEyeCamerasERK11CameraStack
vMa:__Z12GUIDToStringRK9UnityGUID
V$d:_LayoutElement_get_minHeight_m2070403283
bQ:__ZN11SoundHandleC2ERKS_
dD:__ZN17AnimationPlayableC2E18DirectorPlayerType
LJf:_RSASslSignatureFormatter__ctor_m2530528184
Bnj:__ZNK6il2cpp5utils11collections13ArrayValueMapIPK10Il2CppType17Il2CppInteropData26InteropDataToTypeConverterNS_8metadata14Il2CppTypeLessENS8_26Il2CppTypeEqualityComparerEE10find_firstERKS5_
sVa:__ZN15SerializeTraitsI12fixed_bitsetILi24EjEE8TransferI18StreamedBinaryReadILb0EEEEvRS1_RT_
cNe:_BigInteger_op_Addition_m1196561843
O7b:__Z29StdTemplateConversionFunctionItxEbPvR14SafeBinaryRead
Ibj:_CanvasRenderer_INTERNAL_CALL_GetColor_m3192682614
Moi:_FormatterData__ctor_m3974986124
hwg:__ZL64FileNotFoundException_t4200667904_CustomAttributesCacheGeneratorP21CustomAttributesCache
Pyd:_RijndaelManagedTransform_get_CanReuseTransform_m3735256596
KMg:__ZL97GameObject_t1756533147_CustomAttributesCacheGenerator_GameObject_GetComponentInParent_m1178052983P21CustomAttributesCache
vbe:_Comparer__cctor_m1327316974
e1e:_MonoIO_ExistsFile_m1421941572
Vle:_DateTime_op_GreaterThanOrEqual_m3818963848
eB:__ZN17AnimationPlayable18DeallocateBindingsEv
x5b:__ZN6Camera25StandaloneRenderToCubemapEP7TextureiPFvPK9SceneNodePK4AABBR9IndexListPvESA_j
PSd:_DefaultControls_SetDefaultTextValues_m1707718380
QOd:_TouchInputModule_UseFakeInput_m2112019004
Qfj:_UnityAnalyticsHandler_SendCustomEventName_m2082986888
PKd:_EventSystem_get_baseEventDataCache_m4294741599
EXa:__ZN14RenderSettings18TransferDeprecatedI14SafeBinaryReadEEvRT_
VLi:_Rect_get_center_m2903917731_AdjustorThunk
k5:__ZN12TLSAllocatorI14StackAllocatorE8AllocateEji
iaa:__ZN16ScriptingManager18GetMonoScriptCacheEi
xlh:__Z62RuntimeInvoker_Void_t1841601450_RuntimeObject_Int64_t909078037PFvvEPK10MethodInfoPvPS4_
BQg:__ZL104RectTransform_t3349966182_CustomAttributesCacheGenerator_RectTransform_INTERNAL_get_anchorMax_m190830848P21CustomAttributesCache
Qjj:__ZN15dense_hashtableINSt3__24pairIK10KeyWrapperIPK11Il2CppClassEPKcEES6_N6il2cpp5utils11PointerHashIS3_EEN14dense_hash_mapIS6_S9_SE_NS6_14EqualsComparerINS0_8equal_toIS5_EEEENS0_9allocatorISA_EEE9SelectKeyESJ_SL_E15set_deleted_keyERKSA_
WWd:_GridLayoutGroup_CalculateLayoutInputHorizontal_m2355123124
TKg:__ZL84Locale_t4255929017_CustomAttributesCacheGenerator_Locale_GetText_m512920887____args1P21CustomAttributesCache
hyb:__Z18Transfer_BlittableI14SafeBinaryReadLb1EyEvRK29SerializationCommandArgumentsR31RuntimeSerializationCommandInfo
jTg:__ZL89U3CInvokeMessageIdSubscribersU3Ec__AnonStorey0_t1899782350_CustomAttributesCacheGeneratorP21CustomAttributesCache
iDc:__ZN8JSONRead8TransferIfEEvRT_PKc17TransferMetaFlagsb
pL:__ZN25RuntimeAnimatorController8TransferI17RemapPPtrTransferEEvRT_
jDf:_ReadOnlyCollection_1_System_Collections_ICollection_get_IsSynchronized_m4063596282_gshared
orb:__ZN9ShaderLab7Program22ComputeSupportsShadowsEv
L3j:__ZNSt3__212basic_stringIcNS_11char_traitsIcEENS_9allocatorIcEEE6appendEPKcj
cxg:__ZL54TypeBuilder_t3308873219_CustomAttributesCacheGeneratorP21CustomAttributesCache
gva:__ZN6prcoreL17RemapGenericFloatI18TexFormatARGBFloat17TexFormatRGBAHalfEEvPKNS_9InnerInfoE
Vtf:_Collection_1_CheckWritable_m691269733_gshared
zV:__ZN11AudioSource21ApplyCachedParametersE12SoundChannel
WIh:__Z54RuntimeInvoker_Void_t1841601450_IntPtr_t_RuntimeObjectPFvvEPK10MethodInfoPvPS4_
Dah:_GenericTypeParameterBuilder_GetAttributeFlagsImpl_m3338182267
o_:__ZN13Simd4iFactoryIN6detail9FourTupleEEC2Eiiii
w5e:_SynchronizedReader__ctor_m1408327515
WJi:_X509Store_LoadCrl_m1146720614
JEh:__Z59RuntimeInvoker_Int32_t2071877448_KeyValuePair_2_t3749587448PFvvEPK10MethodInfoPvPS4_
jEf:_ReadOnlyCollection_1_System_Collections_IList_Clear_m1858417639_gshared
ade:_Slot_t2022531261_marshal_pinvoke_cleanup
nYi:_UnityAction_3_Invoke_m1025098032_gshared
l4a:__ZN15SerializeTraitsI33EnlightenTerrainChunksInformationE8TransferI14SafeBinaryReadEEvRS0_RT_
ZRc:__ZN6b2Body12SetTransformERK6b2Vec2f
Qgc:__ZNK32RendererMaterialAnimationBinding9BindValueER6ObjectRKN11UnityEngine9Animation14GenericBindingERNS3_10BoundCurveE
M0a:__Z13GetIAnimationv
pta:__ZL18stbir__support_onef
Vgf:_List_1_System_Collections_IList_Remove_m2040310137_gshared
Cyi:_Bounds_SetMinMax_m2094075031_AdjustorThunk
ori:_Match_get_Regex_m3526002767
swg:__ZL49Stream_t3255436806_CustomAttributesCacheGeneratorP21CustomAttributesCache
Uhh:__Z48RuntimeInvoker_Boolean_t3825574718_RuntimeObjectPFvvEPK10MethodInfoPvPS4_
VEc:__Z26Transfer_UnityEngineObjectI9JSONWriteLb0EEvRK29SerializationCommandArgumentsR31RuntimeSerializationCommandInfo
f$a:__ZNSt3__26vectorIN4core12basic_stringIcNS1_20StringStorageDefaultIcEEEE13stl_allocatorIS5_L18MemLabelIdentifier1ELi16EEE6assignINS_11__wrap_iterIPS5_EEEENS_9enable_ifIXaasr21__is_forward_iteratorIT_EE5valuesr16is_constructibleIS5_NS_15iterator_traitsISF_E9referenceEEE5valueEvE4typeESF_SF_
kng:_UInt32_System_IConvertible_ToInt16_m2251335934_AdjustorThunk
Rid:__ZNSt3__27__sort5IRNS_6__lessIN2UI14DepthSortEntryES3_EEPS3_EEjT0_S7_S7_S7_S7_T_
U3d:_Boolean_System_IConvertible_ToType_m3990189691
qzj:__ZNSt3__218uninitialized_copyIPNS_4pairIK10KeyWrapperINS1_IPK11Il2CppImageP11Il2CppClassEEEjEESC_EET0_T_SE_SD_
PVc:__ZN17PolygonCollider2D12SetPolygon2DEP9Polygon2D
Ca:invoke_vdd
jia:__ZN14dense_hash_mapIN4core12basic_stringIcNS0_20StringStorageDefaultIcEEEE13dynamic_arrayI4PPtrI6SpriteELj4EE20StringHash32FunctionIS4_ENSt3__28equal_toIS4_EE13stl_allocatorINSC_4pairIKS4_S9_EEL18MemLabelIdentifier81ELi16EEE15set_deleted_keyERSH_
Vei:_InternalEnumerator_1_Dispose_m3838127340_AdjustorThunk
Npe:_Double_System_IConvertible_ToUInt32_m624993430
$Zg:__ZL89PointerEventData_t1599784723_CustomAttributesCacheGenerator_U3CdraggingU3Ek__BackingFieldP21CustomAttributesCache
ffc:__ZNK30SpriteRendererAnimationBinding12GetPPtrValueERKN11UnityEngine9Animation10BoundCurveE
ncd:__ZZ29InitializeTextRenderingModulevEN27cleanupAfterLoadRegistrator7ForwardEv
Nig:_Scheduler_Add_m376749205
DC:__ZN27AnimationLayerMixerPlayable24ProcessAnimationLayerMixEP33AnimationPlayableEvaluationOutputP35AnimationPlayableEvaluationConstantP32AnimationPlayableEvaluationInputS1_if
B3b:__Z29PluginsIssueRenderingExtEvent26UnityRenderingExtEventTypePv
upj:_WebRequestUtils_RedirectTo_m675215376
Ngi:_InternalEnumerator_1_Dispose_m3464626239_AdjustorThunk
Rfc:__Z14RandomRotationP9Texture2DPhiiii
yaf:_OutOfMemoryException__ctor_m1932883273
xdi:_InternalEnumerator_1_MoveNext_m1594563423_AdjustorThunk
NKe:_SimpleCollator_IsIgnorable_m2485013022
Tej:_Physics2D_GetColliderFromInstanceID_m2716839224
Ikf:_List_1_System_Collections_IList_Insert_m2036969360_gshared
w_d:_InputField_GetUnclampedCharacterLineFromPosition_m1912794077
y2e:_ReadDelegate__ctor_m885671467
dei:_InternalEnumerator_1_System_Collections_IEnumerator_Reset_m4085710193_AdjustorThunk
rme:_DateTimeOffset_ToString_m2121173678_AdjustorThunk
qJg:__ZL50X509Crl_t1699034837_CustomAttributesCacheGeneratorP21CustomAttributesCache
pth:__Z74RuntimeInvoker_RuntimeObject_RuntimeObject_Int16_t4041245914_RuntimeObjectPFvvEPK10MethodInfoPvPS4_
lj:_JS_WebRequest_SetResponseHandler
Cek:_glDeleteProgram__wrapper
hrc:__Z50Register_UnityEngine_Camera_INTERNAL_get_pixelRectv
yua:__ZN6prcoreL18BlitFloatToIntegerERK14ImageReferenceRS0_
XSe:_X509CertificateCollection_get_Item_m410866272
g0i:_EqualityComparer_1_System_Collections_IEqualityComparer_Equals_m1705945391_gshared
oVc:__ZN7b2Timer5ResetEv
z1:__ZN11UnityEngine15CloudWebService14RestDownloader17OnCompleteContentEv
oXd:_LayoutGroup_SetChildAlongAxis_m1615929339
tth:__Z75RuntimeInvoker_RuntimeObject_RuntimeObject_Double_t4078015681_RuntimeObjectPFvvEPK10MethodInfoPvPS4_
Hsh:__Z200RuntimeInvoker_Boolean_t3825574718_RuntimeObject_RuntimeObject_RuntimeObject_Int32_t2071877448_DateTimeU26_t3448131235_SByte_t454417549_BooleanU26_t3168250738_SByte_t454417549_ExceptionU26_t1467204777PFvvEPK10MethodInfoPvPS4_
Sa:invoke_viffi
zE:__ZN17AnimationPlayable28UpdateInternalStateRecursiveILi1ELb0EEEvPK35AnimationPlayableEvaluationConstant
VMj:__ZN6il2cpp2gcL10CleanupCCWEPvS1_
Dnf:_List_1_System_Collections_ICollection_get_SyncRoot_m1429670979_gshared
Va:invoke_vifff
X7h:_InternalEnumerator_1__ctor_m2111763266_gshared
I5d:_Byte_System_IConvertible_ToInt16_m1575115635_AdjustorThunk
odk:_glGetVertexAttribiv__wrapper
Se:_emscripten_request_fullscreen
QOb:__ZN20LocalFileSystemWebGL6DeleteER13FileEntryDatab
Cne:_Decimal_System_IConvertible_ToUInt16_m1621568250
Ue:_emscripten_glDisableVertexAttribArray
Zm:FUNCTION_TABLE_iiiifiiii
Hjg:_TimeSpan_get_TotalMinutes_m1645177229_AdjustorThunk
pc:invoke_fifffi
DYh:_Enumerator__ctor_m3539306986_gshared
Uqa:__ZN4gles23ClearCurrentFramebufferEP7ApiGLESbbbRK10ColorRGBAffi
ZC:__ZN7mecanim12statemachine20CreateStateWorkspaceEjjjRNS_6memory9AllocatorE
lOe:__ZN21InterfaceFuncInvoker3IP22ByteU5BU5D_t3397334013S1_iiE6InvokeEjP11Il2CppClassP12Il2CppObjectS1_ii
W8h:_InternalEnumerator_1_System_Collections_IEnumerator_get_Current_m3680087284_gshared
df:_emscripten_glDeleteObjectARB
_f:_IMG_Load
m6e:_UnexceptionalStreamReader_Read_m3839775235
tDi:_Input_get_compositionCursorPos_m1028058884
Ova:__ZN6prcoreL27StretchGenericFloatBilinearI18TexFormatARGBFloatEEvPKNS_9InnerInfoE
awc:__Z53Register_UnityEngine_RenderTexture_Internal_GetHeightv
rJe:_Dropdown_GetOrAddComponent_TisRuntimeObject_m2875934266_gshared
x6f:_RealProxy_SetTargetDomain_m3940877656
zva:__ZN6prcoreL17RemapGenericFloatI17TexFormatRGBAHalf18TexFormatARGBFloatEEvPKNS_9InnerInfoE
tqe:_Enum_System_IConvertible_ToInt32_m2459904362
wth:__Z61RuntimeInvoker_RuntimeObject_Double_t4078015681_RuntimeObjectPFvvEPK10MethodInfoPvPS4_
AUc:__ZNSt3__27__sort4IRN18Overlap2DQueryBase29ColliderHitsByDepthComparitorEPP10Collider2DEEjT0_S7_S7_S7_T_
xAc:__Z14GetBuiltinSkini
IKf:_ContentInfo__ctor_m3871771681
LJd:_BaseInput_set_compositionCursorPos_m2632248731
K1i:_Enumerator_System_Collections_IEnumerator_Reset_m2573763156_gshared
qGh:__Z74RuntimeInvoker_Void_t1841601450_Int32_t2071877448_MonoResource_t3127387157PFvvEPK10MethodInfoPvPS4_
U0e:_DirectoryInfo_Initialize_m2216118894
sEd:_WindowsIdentity_Dispose_m2649088337
Ysb:__ZN2UI13RectTransform23VirtualRedirectTransferER14SafeBinaryRead
ojb:__ZN24GenerateTypeTreeTransfer8TransferINSt3__26vectorIN4core12basic_stringIcNS3_20StringStorageDefaultIcEEEE13stl_allocatorIS7_L18MemLabelIdentifier13ELi16EEEEEEvRT_PKc17TransferMetaFlags
Urf:_Collection_1_System_Collections_IList_Contains_m323652826_gshared
hef:_List_1_System_Collections_ICollection_get_SyncRoot_m3733894943_gshared
sjf:_List_1_Reverse_m302978607_gshared
ipb:__ZNSt3__26vectorIN9ShaderLab20SerializedSubProgramENS_9allocatorIS2_EEE6assignIPS2_EENS_9enable_ifIXaasr21__is_forward_iteratorIT_EE5valuesr16is_constructibleIS2_NS_15iterator_traitsIS9_E9referenceEEE5valueEvE4typeES9_S9_
fHc:__Z18Transfer_BlittableI8JSONReadLb0E8BitFieldEvRK29SerializationCommandArgumentsR31RuntimeSerializationCommandInfo
r7f:_SoapServices_RegisterInteropXmlType_m2949236705
hyj:__ZNK15dense_hashtableINSt3__24pairIK10KeyWrapperIPK10Il2CppTypeEjEES6_N6il2cpp8metadata14Il2CppTypeHashEN14dense_hash_mapIS6_jSB_NS6_14EqualsComparerINSA_26Il2CppTypeEqualityComparerEEENS0_9allocatorIS8_EEE9SelectKeyESF_SH_E10test_emptyERK24dense_hashtable_iteratorIS8_S6_SB_SJ_SF_SH_E
eIb:__ZL17Transfer_GUIStyleI18StreamedBinaryReadILb1EELb0EEvRK29SerializationCommandArgumentsR31RuntimeSerializationCommandInfo
wId:_String_CharCopy_m2550399897
huh:__Z234RuntimeInvoker_RuntimeObject_Int16_t4041245914_RuntimeObject_Int32_t2071877448_Int32_t2071877448_Int32_t2071877448_SByte_t454417549_SByte_t454417549_SByte_t454417549_SByte_t454417549_Int16_t4041245914_SByte_t454417549_SByte_t454417549PFvvEPK10MethodInfoPvPS4_
onb:__ZN9ShaderLab14SerializedPass8TransferI14SafeBinaryReadEEvRT_
pBc:__Z71Register_UnityEngine_GUILayoutUtility_INTERNAL_CALL_Internal_MoveWindowv
gY:__ZN12AudioManager16SetListenerPauseEb
SVc:__ZThn160_N17PolygonCollider2DD0Ev
EOc:__ZNSt3__26__sortIRN10ClipperLib12LocMinSorterEPNS1_12LocalMinimumEEEvT0_S6_T_
kfd:__ZN15TilemapRenderer10SmartResetEv
kHj:__ZN6il2cpp2vm9Exception25RaiseOutOfMemoryExceptionERKNS_5utils10StringViewIDsEE
vsf:_Collection_1_IsValidItem_m2254106115_gshared
P9g:_TypeBuilder_GetEvent_m3876348075
HRh:_Slider_OnMove_m641164662
ea:invoke_viiiiiiiiiii
k0j:___syscall_ret
Qig:_Scheduler__ctor_m3716265742
aQe:_MACAlgorithm_Final_m4076939925
_bc:__ZN14qsort_internal30FindAndMovePivotToLastPositionIP8Vector2fi26PointDistanceSortPredicateEEvT_S4_T0_T1_
yod:__Z56Register_UnityEngine_Analytics_CustomEventData_AddDoublev
E8a:__ZN11ChannelInfo8TransferI19StreamedBinaryWriteILb0EEEEvRT_
C8h:_InternalEnumerator_1_System_Collections_IEnumerator_get_Current_m3583252352_gshared
qGi:_Object_op_Implicit_m1757773010
q9g:_EnumBuilder_get_FullName_m2818393911
WWb:__ZN14qsort_internal13Partition3WayIP17RODataReplacementi19ROSorterReplacementEENSt3__24pairIT_S6_EES6_S6_T0_T1_
v4e:_StreamAsyncResult_get_Done_m2858832609
qsc:__Z34Register_UnityEngine_Gradient_Initv
L_i:_ObjectPool_1_set_countAll_m1742773675_gshared
P9f:_SerializationEntry_get_Value_m1628109884_AdjustorThunk
mKd:_BaseInputModule_GetAxisEventData_m3903709281
OIe:_Array_InternalArray__get_Item_TisUriScheme_t1876590943_m1821482697_gshared
MGf:_BigInteger__ctor_m3239748086
z7a:__ZN13ScreenManager23SetIsOrientationEnabledE18EnabledOrientationb
V4i:__ZL24UnresolvedVirtualCall_57P12Il2CppObjectiPK10MethodInfo
er:__ZN9Animation13AwakeFromLoadE17AwakeFromLoadMode
DGg:__ZL79Convert_t2607082565_CustomAttributesCacheGenerator_Convert_ToUInt16_m1043031438P21CustomAttributesCache
JC:__ZN7mecanim5human25HumanPoseAddOverrideLayerERNS0_9HumanPoseERKS1_fRKNS_6bitsetILj70EEE
pec:__ZN13ProduceHelperI9TransformLb0EE7ProduceE18MemLabelIdentifier18ObjectCreationMode
Yth:__Z42RuntimeInvoker_AlertDescription_t844791462PFvvEPK10MethodInfoPvPS4_
Tti:_Alternation_get_Alternatives_m1445219249
z2h:_DefaultComparer_GetHashCode_m2506382068_gshared
f6h:_EqualityComparer_1_System_Collections_IEqualityComparer_GetHashCode_m1012273405_gshared
eBe:_Array_InternalArray__ICollection_Add_TisHitInfo_t1761367055_m2956071622_gshared
pfi:_InternalEnumerator_1_MoveNext_m470170271_AdjustorThunk
yNa:__ZN10GameObject23VirtualRedirectTransferER18StreamedBinaryReadILb0EE
Sbf:_Enumerator_get_Current_m2577424081_gshared
lii:_InternalEnumerator_1_Dispose_m2270401482_AdjustorThunk
vg:_glFrontFace
o9f:_ObjectRecord_get_IsUnsolvedObjectReference_m2202692850
J0f:_FactoryCache_Cleanup_m4130035987
qpi:__ZN23InterfaceActionInvoker1IP18Context_t502196753E6InvokeEjP11Il2CppClassP12Il2CppObjectS1_
LNi:_Vector2_op_Addition_m4229571528
nnj:__ZNK15dense_hashtableINSt3__24pairIK10KeyWrapperIPK19Il2CppGenericMethodEPK26Il2CppGenericMethodIndicesEES6_N6il2cpp8metadata23Il2CppGenericMethodHashEN14dense_hash_mapIS6_SA_SE_NS6_14EqualsComparerINSD_26Il2CppGenericMethodCompareEEENS0_9allocatorISB_EEE9SelectKeyESI_SK_E12test_deletedEj
odc:__ZN13ProduceHelperI19LowerResBlitTextureLb0EE7ProduceE18MemLabelIdentifier18ObjectCreationMode
X$b:__ZNSt3__26vectorI16ShadowCasterData13stl_allocatorIS1_L18MemLabelIdentifier2ELi16EEE21__push_back_slow_pathIKS1_EEvRT_
Ong:_UInt32_ToString_m1783596809
eof:_List_1_Sort_m269561757_gshared
kbk:_glUniform1i__wrapper
Wcd:__Z51Register_UnityEngine_TextGenerator_GetLinesInternalv
d2i:_HashSet_1_Init_m1258286688_gshared
qJi:_X509ExtensionCollection_get_Item_m4212651995
uAf:_ReadOnlyCollection_1_System_Collections_IList_RemoveAt_m525136953_gshared
wye:__ZN21InterfaceFuncInvoker1Ii19Vector4_t2243707581E6InvokeEjP11Il2CppClassP12Il2CppObjectS0_
Qua:__ZN6prcoreL17RemapGenericFloatI17TexFormatRGBFloat18TexFormatRGBAFloatEEvPKNS_9InnerInfoE
nwj:__ZN6il2cpp2vm4Type15IsSystemDecimalEPK10Il2CppType
Tng:_UInt64_System_IConvertible_ToBoolean_m3012279573_AdjustorThunk
Ilg:_Type_get_IsGenericTypeDefinition_m2147901038
utd:__ZN20UnityConnectSettings10InitializeEv
Npi:_ContextAttribute_Freeze_m4133346275
EUe:_GregorianCalendar__ctor_m3794576475
Jng:_UInt32_TryParse_m4283512434
tQi:_TrackedReference_GetHashCode_m1278837032
tRc:__ZN16PhysicsManager2D12BeginContactEP9b2Contact
yLj:__ZN15dense_hashtableI10KeyWrapperIP18Il2CppGenericClassES3_N6il2cpp8metadata22Il2CppGenericClassHashEN14dense_hash_setIS3_S6_NS3_14EqualsComparerINS5_25Il2CppGenericClassCompareEEENSt3__29allocatorIS3_EEE8IdentityESA_SD_E8min_sizeEjj
UP:__ZN9AudioClip11CreateSoundEv
jWh:_ShimEnumerator_MoveNext_m3313047792_gshared
Bqb:__ZN9ShaderLab20SerializedSubProgram15VectorParameter8TransferI19StreamedBinaryWriteILb0EEEEvRT_
mkg:_TimeSpan_op_Inequality_m257547441
SCj:__ZN14dense_hash_mapI10KeyWrapperINSt3__24pairIPK9FieldInfoP11Il2CppClassEEEj17ReflectionMapHashIS8_ENS9_14EqualsComparerINS1_8equal_toIS8_EEEENS1_9allocatorINS2_IKS9_jEEEEEC2EjRKSB_RKSF_
syj:__ZNK15dense_hashtableINSt3__24pairIK10KeyWrapperINS1_IPK10MethodInfoP11Il2CppClassEEEjEES9_17ReflectionMapHashIS8_EN14dense_hash_mapIS9_jSD_NS9_14EqualsComparerINS0_8equal_toIS8_EEEENS0_9allocatorISB_EEE9SelectKeyESI_SK_E13find_positionERSA_
i9g:_EnumBuilder_get_Assembly_m4285228003
I9b:__Z10tesvertLeqP10TESSvertexS0_
qna:__ZN13GfxDeviceGLES20CreateComputeProgramEPKhj
Bge:_DateTimeFormatInfo_get_RoundtripPattern_m562440017
Ksd:__ZN11UnityEngine7Connect16PersistentValues13RestoreValuesER8JSONRead
PZi:_U3CStartU3Ec__Iterator0_System_Collections_Generic_IEnumeratorU3CobjectU3E_get_Current_m1702093362_gshared
QKa:__ZN20ArchiveStorageReader31TryToReadDirectoryFromBlockDataEyPKvj
y3h:_DefaultComparer__ctor_m3947565964_gshared
spe:_Double_System_IConvertible_ToByte_m3004284950_AdjustorThunk
v7f:_TypeEntry_get_AssemblyName_m1762285107
UEh:__Z55RuntimeInvoker_Int32_t2071877448_LabelFixup_t4090909514PFvvEPK10MethodInfoPvPS4_
AJj:__ZN6il2cpp2vmL11GetIdentityEP14Il2CppIUnknown
RVj:_GC_push_gc_structures
F2i:_PCMReaderCallback_BeginInvoke_m2451387560
xPd:_AspectRatioFitter_get_aspectRatio_m3023618874
SVf:_ServicePointManager_get_ServerCertificateValidationCallback_m1409951209
Brj:__ZN6il2cpp6icalls8mscorlib6SystemL8IsPublicEPK9EventInfo
H2f:_Enumerator__ctor_m3782962052
qBj:__ZN15dense_hashtableINSt3__24pairIK10KeyWrapperIPK14Il2CppAssemblyEPK22Il2CppMonoAssemblyNameEES6_N6il2cpp5utils11PointerHashIS4_EEN14dense_hash_mapIS6_SA_SF_NS6_14EqualsComparerINS0_8equal_toIS5_EEEENS0_9allocatorISB_EEE9SelectKeyESK_SM_E4swapERSP_
bee:_Enumerator_get_Current_m1271212567
bTj:__ZThn4_N6il2cpp2vm13ComObjectBase18ReleaseMarshalDataEP13Il2CppIStream
PBa:__Z22GetShaderCachePathGLESv
$rh:__Z51RuntimeInvoker_UInt16_t986882611_Double_t4078015681PFvvEPK10MethodInfoPvPS4_
gv:__ZNSt3__26vectorIN13AnimationClip10FloatCurveE13stl_allocatorIS2_L18MemLabelIdentifier26ELi16EEE6resizeEj
Nkc:__ZNK15dense_hashtableINSt3__24pairIK12TriangleEdgeiEES2_16TriangleEdgeHashN14dense_hash_mapIS2_iS5_NS0_8equal_toIS2_EENS0_9allocatorIS4_EEE9SelectKeyES8_SA_E23find_position_with_hashERS3_j
ZYc:__Z41Rigidbody2D_CUSTOM_INTERNAL_CALL_AddForceP12Il2CppObjectRK13Vector2fIcallN11Rigidbody2D9ForceModeE
CWf:_IPAddress_ParseIPV6_m2209709575
lOh:_U3CClickRepeatU3Ec__Iterator0_MoveNext_m1747924386
eGf:_Comparison_1_Invoke_m1670081898_gshared
aTh:_Toggle_set_group_m3833595685
Q0d:_LayoutRebuilder_ForceRebuildLayoutImmediate_m566681977
X8a:__ZNSt3__213__stable_sortIRNS_4lessI4PPtrI11SpriteAtlasEEENS_11__wrap_iterIPS4_EEEEvT0_SA_T_NS_15iterator_traitsISA_E15difference_typeEPNSD_10value_typeEi
BBa:__ZNSt3__26vectorIPN19ConstantBuffersGLES11ConstBufferENS_9allocatorIS3_EEE21__push_back_slow_pathIKS3_EEvRT_
mBe:_Array_InternalArray__ICollection_Add_TisVector4_t2243707581_m698578249_gshared
WKi:_PropertyName_ToString_m1129982609_AdjustorThunk
a6:__ZN8keywords6CreateEPKc
S:Math_imul
$cb:__ZN14SpriteRenderer15SetupPropertiesEv
N6a:__ZN11PlayerPrefs6GetIntERKN4core12basic_stringIcNS0_20StringStorageDefaultIcEEEEi
mmj:__ZN6il2cpp5utils13dynamic_arrayIPK10Il2CppTypeLj4EEC2ERKS5_
VEd:_SecurityFrame_t1002202659_marshal_pinvoke_back
Ecd:__Z45TextGenerator_CUSTOM_INTERNAL_get_rectExtentsP12Il2CppObjectP5RectTIfE
eLf:_CertificateValidationCallback_Invoke_m2500463874
lwe:_SetPropertyUtility_SetStruct_TisChar_t3454481338_m2333420724_gshared
ysf:_Collection_1_IsSynchronized_m2601980439_gshared
yce:_Hashtable_ContainsKey_m2716576664
eJa:__Z18ReadStringFromFilePN4core17string_with_labelILi1EEERKNS_12basic_stringIcNS_20StringStorageDefaultIcEEEE
Rri:_PatternCompiler_EmitCategory_m1696942454
Nne:_Decimal_decimalFloorAndTrunc_m3655683429
GBe:_Array_InternalArray__ICollection_CopyTo_TisInt32_t2071877448_m984622488_gshared
O7:__ZN18ScriptingArguments9AddObjectE18ScriptingObjectPtr
Ykd:__Z39CanvasGroup_Get_Custom_PropInteractableP12Il2CppObject
L_:__ZN11UnityEngine15CloudWebService16SessionContainerD2Ev
Vsd:__ZL38InitializeUnityConnectScriptingClassesv
k4b:__ZN13ProbeRenderer8ConvolveEbijjb
ira:__ZN17GenericDynamicVBOC2ER9GfxDevice13GfxBufferModejj
kpi:_Context_get_HasDynamicSinks_m1998518649
OUc:__Z28GetPhysics2DScriptingClassesv
yzc:__ZZN10GUIManager14InitGUIManagerEvEN41PreUpdateIMGUISendQueuedEventsRegistrator7ForwardEv
RXi:_UnityAction_1_Invoke_m2903588655_gshared
c0:__ZN11UnityEngine15CloudWebService17SessionEventQueue10PurgeItemsEj
qJd:_AbstractEventData_get_used_m4208553917
R4b:__ZN6Camera16StandaloneRenderENS_10RenderFlagEP6ShaderRKN4core12basic_stringIcNS3_20StringStorageDefaultIcEEEE
i1d:_Array_System_Collections_IList_get_Item_m2088124007
C1d:_Array_GetLength_m2083296647
b$i:_SymmetricTransform_OFB_m397918932
HDg:__ZL58SecurityElement_t2325568386_CustomAttributesCacheGeneratorP21CustomAttributesCache
z1a:__ZNK12CubemapArray13GetIsReadableEv
iae:_SynchronizedArrayListWrapper_ToArray_m1522185111
yHb:__Z18Transfer_BlittableI18StreamedBinaryReadILb1EELb1EtEvRK29SerializationCommandArgumentsR31RuntimeSerializationCommandInfo
xEd:_SecurityContext_get_FlowSuppressed_m420202521
Gnh:__Z55RuntimeInvoker_DayOfWeek_t721777893_DateTime_t693205669PFvvEPK10MethodInfoPvPS4_
zla:__ZN9GfxDevice20DeallocRenderSurfaceEP17RenderSurfaceBase
kpg:_ValueType_ToString_m3796301715
hxa:__ZN20GpuProgramParameters36UpdatePrepareValuesMaximumBufferSizeEv
TLj:__ZNK15dense_hashtableI10KeyWrapperIP18Il2CppGenericClassES3_N6il2cpp8metadata22Il2CppGenericClassHashEN14dense_hash_setIS3_S6_NS3_14EqualsComparerINS5_25Il2CppGenericClassCompareEEENSt3__29allocatorIS3_EEE8IdentityESA_SD_E12test_deletedEj
Xtc:__Z53Register_UnityEngine_Quaternion_INTERNAL_CALL_Inversev
QEe:_Array_qsort_TisUICharInfo_t3056636800_m2607408901_gshared
zOi:_Screen_get_height_m3831644396
mPa:__ZN12BaseRenderer23RendererBecameInvisibleEv
T_c:__ZN20TextRenderingPrivate8FontImpl13CharacterInfo8TransferI18StreamedBinaryReadILb0EEEEvRT_
NEb:__Z29Transfer_Blittable_ArrayFieldI24GenerateTypeTreeTransferfEvRT_R9ArrayInfoRK23StaticTransferFieldInfo
Jda:__ZNSt3__26__treeINS_12__value_typeIN4core12basic_stringIcNS2_20StringStorageDefaultIcEEEES6_EENS_19__map_value_compareIS6_S7_NS_4lessIS6_EELb1EEE13stl_allocatorIS7_L18MemLabelIdentifier13ELi16EEE7destroyEPNS_11__tree_nodeIS7_PvEE
Tlh:__Z76RuntimeInvoker_RuntimeObject_RuntimeObject_SByte_t454417549_SByte_t454417549PFvvEPK10MethodInfoPvPS4_
e6b:__ZN19CustomRenderTexture9AddParentE4PPtrIS_E
t9h:_InternalEnumerator_1_MoveNext_m930150026_AdjustorThunk
A5a:__ZN8Gradient8TransferI14SafeBinaryReadEEvRT_
hZi:_UnityEvent_1_Invoke_m1533100983_gshared
e$a:__ZNSt3__26vectorIN4core12basic_stringIcNS1_20StringStorageDefaultIcEEEE13stl_allocatorIS5_L18MemLabelIdentifier1ELi16EEE7reserveEj
WVf:_FileWebRequest__ctor_m4003648606
b3g:__ZL71SpriteState_t1353336012_CustomAttributesCacheGenerator_m_DisabledSpriteP21CustomAttributesCache
vqe:_Enum_System_IConvertible_ToSByte_m3488526280
Gdh:_TypeBuilder_ToString_m1952363535
mlb:__ZN18IDCollectorFunctorD0Ev
rnj:__ZNK15dense_hashtableI10KeyWrapperIPK19Il2CppGenericMethodES4_N6il2cpp8metadata23Il2CppGenericMethodHashEN14dense_hash_setIS4_S7_NS4_14EqualsComparerINS6_26Il2CppGenericMethodCompareEEENSt3__29allocatorIS4_EEE8IdentityESB_SE_E4findERKS4_
avb:__ZNK20LocalFileSystemPosix9IsSymLinkERK13FileEntryData
LUj:_GC_new_free_list_inner
l2h:_DefaultComparer_Equals_m85211180_gshared
Avf:_Collection_1_System_Collections_IList_IndexOf_m1950953062_gshared
v8e:_MonoType_InternalGetEvent_m532443236
tuf:_Collection_1_IndexOf_m2700825189_gshared
Oji:_Comparer_1_get_Default_m2605397692_gshared
jTi:_MathfInternal__cctor_m2774058555
VAb:__Z35Transfer_Blittable_FixedBufferFieldI17RemapPPtrTransferiEvRK29SerializationCommandArgumentsR31RuntimeSerializationCommandInfo
TJ:__ZN25RuntimeAnimatorController8TransferI14SafeBinaryReadEEvRT_
VHc:__ZN8JSONRead8TransferI10RectOffsetEEvRT_PKc17TransferMetaFlagsb
jKj:__ZNK15dense_hashtableINSt3__24pairIK10KeyWrapperINS1_IPKcS4_EEEiEES6_24NamespaceAndNamePairHashN14dense_hash_mapIS6_iS9_NS6_14EqualsComparerI26NamespaceAndNamePairEqualsEENS0_9allocatorIS8_EEE9SelectKeyESD_SF_E12test_deletedERK24dense_hashtable_iteratorIS8_S6_S9_SH_SD_SF_E
M$:__ZN9JSONWrite8TransferIN11UnityEngine15CloudWebService14DataErrorEvent15FileErrorDetailEEEvRT_PKc17TransferMetaFlags
XId:_Decoder__ctor_m2623573910
BUa:__Z21ClearFenceWithoutSyncR8JobFence
XS:__ZN12SoundManager20RegisterModifiedClipEP10SampleClip
IAi:_Logger__ctor_m1903664092
sV:__ZN11AudioSource4PlayEd
MNj:__ZN6il2cpp2vm6Object16GetVirtualMethodEP12Il2CppObjectPK10MethodInfo
l2i:_HashSet_1_Add_m199171953_gshared
ilj:__ZN15dense_hashtableI10KeyWrapperIPK17Il2CppGenericInstES4_N6il2cpp8metadata21Il2CppGenericInstHashEN14dense_hash_setIS4_S7_NS4_14EqualsComparerINS6_24Il2CppGenericInstCompareEEENSt3__29allocatorIS4_EEE8IdentityESB_SE_E13set_empty_keyERKS4_
$ub:__ZNK20LocalFileSystemPosix8IsHiddenERK13FileEntryData
f5h:_EqualityComparer_1_System_Collections_IEqualityComparer_Equals_m3589836321_gshared
NPe:_SmallXmlParser_IsNameChar_m1561000202
jIi:_X501__cctor_m2610532554
ezg:__ZL95SafeHandle_t2733794115_CustomAttributesCacheGenerator_SafeHandle_DangerousGetHandle_m1328172664P21CustomAttributesCache
IEh:__Z48RuntimeInvoker_Int32_t2071877448_Link_t865133271PFvvEPK10MethodInfoPvPS4_
pVh:_Enumerator_VerifyState_m3173176371_gshared
yId:_StringComparer__ctor_m2275216983
Vvj:__ZNSt3__214__split_bufferINS_12basic_stringIcNS_11char_traitsIcEENS_9allocatorIcEEEERNS4_IS6_EEED2Ev
cnf:_List_1_CheckCollection_m2220107869_gshared
t2a:__ZN7Cubemap23VirtualRedirectTransferER18StreamedBinaryReadILb0EE
tNf:_RecordProtocol_EncodeRecord_m3884270352
MAd:_SHA256_Create_m896954069
rad:_Read_CVT
vje:_Convert_ToUInt32_m776714429
bLa:__ZN12FileAccessor4SeekEx10FileOrigin
fGh:__Z66RuntimeInvoker_Void_t1841601450_Int32_t2071877448_Slot_t2022531261PFvvEPK10MethodInfoPvPS4_
BDb:__ZL26Transfer_SimpleNativeClassI24GenerateTypeTreeTransfer17AnimationCurveTplIfELb0EEvRK29SerializationCommandArgumentsR31RuntimeSerializationCommandInfo
VIc:__ZN8JSONRead21TransferSTLStyleArrayI13dynamic_arrayI9BoundsIntLj4EEEEvRT_17TransferMetaFlags
v4a:__ZN24GenerateTypeTreeTransfer8TransferI13dynamic_arrayI33EnlightenTerrainChunksInformationLj4EEEEvRT_PKc17TransferMetaFlags
Szi:_Coroutine_t2299508840_marshal_pinvoke
Mea:__ZN16LightmapSettings20DidChangeActiveSceneEP10UnitySceneS1_
bFb:__Z18Transfer_BlittableI19StreamedBinaryWriteILb0EELb0EN4math12int3_storageEEvRK29SerializationCommandArgumentsR31RuntimeSerializationCommandInfo
K6g:_Default_ReorderParameters_m1877749093
p5g:__ZL59g_AssemblyU2DCSharp_Assembly_CustomAttributesCacheGeneratorP21CustomAttributesCache
Xrj:__ZN6il2cpp5utils9PathUtils8BasenameIcEENSt3__212basic_stringIT_NS3_11char_traitsIS5_EENS3_9allocatorIS5_EEEERKSA_
bBc:__Z35Register_UnityEngine_Event_get_typev
AQe:_PrivateKeyInfo_DecodeRSA_m1427048948
wHj:__ZN6il2cpp2vm9Exception23GetInvalidCastExceptionERKNS_5utils10StringViewIDsEE
THf:_BigInteger_op_GreaterThanOrEqual_m2643115413
U5g:_Assembly_FillName_m1934025015
X$e:_IntPtr_op_Explicit_m1073656736
rHd:_String_IndexOf_m2126171214
w$e:_Int64_ToString_m1544341651_AdjustorThunk
AE:__ZN8Animator28BuildControllerPlayableCacheEv
nWe:_Guid_CheckNull_m2903986431
JIg:__ZL62CrossContextDelegate_t754146990_CustomAttributesCacheGeneratorP21CustomAttributesCache
Z8:__Z63ThreadAndSerializationSafeCheckGetMonoBehaviourBeingTransferredv
vXj:_GC_enable
oPf:_TlsClientCertificateVerify_ProcessAsSsl3_m3377063356
kRj:__GLOBAL__sub_I_GenericMethod_cpp
pBj:__ZN15dense_hashtableINSt3__24pairIK10KeyWrapperIPK14Il2CppAssemblyEPK22Il2CppMonoAssemblyNameEES6_N6il2cpp5utils11PointerHashIS4_EEN14dense_hash_mapIS6_SA_SF_NS6_14EqualsComparerINS0_8equal_toIS5_EEEENS0_9allocatorISB_EEE9SelectKeyESK_SM_EC2ERKSP_j
hOd:_StandaloneInputModule_set_repeatDelay_m2820945738
x1e:_EndOfStreamException__ctor_m4268387737
Tmg:_UInt16_ToString_m4213290405
wtc:__Z37Register_UnityEngine_Input_GetAxisRawv
Sof:_List_1_GetIndex_m433539411_gshared
OBg:__ZL59StreamingContext_t1417235061_CustomAttributesCacheGeneratorP21CustomAttributesCache
PJ:__ZNK18AnimatorController28HasMultiThreadedStateMachineEv
Cqe:_Enum_GetName_m1226611481
w9i:_Func_2_Invoke_m4121137703_gshared
eV:__ZN11AudioSource5ResetEv
tWb:__ZN12ImageFilters27SetSurfaceUseResolvedBufferEP13RenderTextureb
PIh:__Z74RuntimeInvoker_DictionaryEntry_t3048875398_RuntimeObject_Int32_t2071877448PFvvEPK10MethodInfoPvPS4_
vrh:__Z53RuntimeInvoker_DateTime_t693205669_Single_t2076509932PFvvEPK10MethodInfoPvPS4_
k9a:__ZN14Texture2DArray23VirtualRedirectTransferER18StreamedBinaryReadILb0EE
sui:_Literal_CompileLiteral_m276843152
Psb:__ZN2UI13RectTransform13AwakeFromLoadE17AwakeFromLoadMode
oui:_Reference__ctor_m4110013284
u$b:__ZN14qsort_internal30FindAndMovePivotToLastPositionIP20ShadowCasterSortDatai26ShadowCasterSortDataSorterEEvT_S4_T0_T1_
Olj:__ZNK15dense_hashtableI10KeyWrapperIPK19Il2CppGenericMethodES4_N6il2cpp8metadata23Il2CppGenericMethodHashEN14dense_hash_setIS4_S7_NS4_14EqualsComparerINS6_26Il2CppGenericMethodCompareEEENSt3__29allocatorIS4_EEE8IdentityESB_SE_E3endEv
$wb:__Z18Transfer_BlittableI14SafeBinaryReadLb1EiEvRK29SerializationCommandArgumentsR31RuntimeSerializationCommandInfo
ylb:__ZN17PersistentManager13GetAllFileIDsERKN4core12basic_stringIcNS0_20StringStorageDefaultIcEEEER13dynamic_arrayIxLj8EE
JBf:_ReadOnlyCollection_1_GetEnumerator_m713393110_gshared
q6f:_ProxyAttribute_GetPropertiesForNewContext_m3587421540
C2d:_Array_LastIndexOf_m4096535198
j8d:_ArrayList_Add_m1719188324
Ipe:_Double_System_IConvertible_ToSByte_m1653690240_AdjustorThunk
fuh:__Z59RuntimeInvoker_RuntimeObject_Byte_t3683104436_RuntimeObjectPFvvEPK10MethodInfoPvPS4_
pyi:_Bounds_get_size_m3951110137
Gk:_glGetStringi
LVi:_GUIStyleState_t3801000545_marshal_pinvoke
FLj:__ZNK15dense_hashtableI10KeyWrapperIP18Il2CppGenericClassES3_N6il2cpp8metadata22Il2CppGenericClassHashEN14dense_hash_setIS3_S6_NS3_14EqualsComparerINS5_25Il2CppGenericClassCompareEEENSt3__29allocatorIS3_EEE8IdentityESA_SD_E10test_emptyERK30dense_hashtable_const_iteratorIS3_S3_S6_SF_SA_SD_E
jte:_CultureInfo_set_NumberFormat_m1618950525
fab:__ZN18StreamedBinaryReadILb0EE21TransferSTLStyleArrayI13dynamic_arrayI8Vector4fLj4EEEEvRT_17TransferMetaFlags
r_f:_X509Store__ctor_m1573680316
G_f:_X509Chain_get_CertificateCollection_m324631835
s5h:_EqualityComparer_1__cctor_m1011898363_gshared
gPd:_AnimationTriggers__ctor_m2623627182
Uye:_Array_InternalArray__IndexOf_TisClientCertificateType_t4001384466_m1168139450_gshared
hG:__ZN8Animator9WriteStepEy
qah:_FieldBuilder_get_Name_m2243491233
y0:__ZN11UnityEngine15CloudWebService20WebRequestRestClient18GetResponseHeadersEv
Hjc:__ZN16PropertyAccessorC2Ev
W6a:__ZNSt3__23mapIN4core12basic_stringIcNS1_20StringStorageDefaultIcEEEE9PrefValueNS_4lessIS5_EENS_9allocatorINS_4pairIKS5_S6_EEEEEixERSB_
WHb:__Z35Transfer_Blittable_FixedBufferFieldI18StreamedBinaryReadILb1EEaEvRK29SerializationCommandArgumentsR31RuntimeSerializationCommandInfo
jjc:__ZN15DirectorManager22ConstructPlayableGraphEv
m7a:__ZN13ScreenManager16SetScreenTimeoutEi
cCb:__Z18Transfer_BlittableI17RemapPPtrTransferLb0EdEvRK29SerializationCommandArgumentsR31RuntimeSerializationCommandInfo
JBd:_SymmetricAlgorithm_set_IV_m4262655606
aSh:_StencilMaterial__cctor_m2963056855
l0i:_EqualityComparer_1_System_Collections_IEqualityComparer_Equals_m315020809_gshared
v7g:_CustomAttributeNamedArgument_GetHashCode_m3715408876_AdjustorThunk
Lcd:__Z38Register_UnityEngine_Font_HasCharacterv
LZf:_X509Certificate2_AppendBuffer_m3517242299
t3b:__Z35IntersectSpherePlaneBoundsOptimizedRKN4math7_float4EPS1_i
fte:_CultureInfo_get_IsNeutralCulture_m3874876470
Boe:_Delegate_CreateDelegate_m3813023227
Dwi:_Uri_get_AbsoluteUri_m2120317928
rOj:__ZN6il2cpp2os5posix15PosixWaitObject13InterruptWaitEv
gSd:_ColorTween_TweenValue_m3279916815
Ox:__ZN7mecanim6memory16ChainedAllocator10DeallocateEPv
tKd:_BaseInputModule_IsModuleSupported_m4272494372
lea:__Z22CleanupLODGroupManagerPv
fBe:_Array_InternalArray__ICollection_Add_TisContentType_t1028629049_m2984242302_gshared
ZAc:__Z21Event_CUSTOM_PopEventP12Il2CppObject
ql:_glUniform3fv
D_j:__ZNK6il2cpp8metadata24Il2CppGenericInstCompareclERK10KeyWrapperIPK17Il2CppGenericInstES8_
jib:__ZNSt3__218__insertion_sort_3IRN15ResourceManager10Dependency6SorterEPS2_EEvT0_S6_T_
Ddf:_Enumerator_System_Collections_IEnumerator_Reset_m3796537546_AdjustorThunk
xbd:_UNITY_FT_Init_Class_tt_service_gx_multi_masters
Eth:__Z53RuntimeInvoker_Int32_t2071877448_TimeSpan_t3430258949PFvvEPK10MethodInfoPvPS4_
Rei:_InternalEnumerator_1_System_Collections_IEnumerator_Reset_m3249248421_AdjustorThunk
Nrj:_TileAnimationData_t1492388264_marshal_pinvoke_back
Vjh:__Z64RuntimeInvoker_RuntimeObject_Int32_t2071877448_Int16_t4041245914PFvvEPK10MethodInfoPvPS4_
e8e:_IntComparer_Compare_m3057931085
c_b:__ZNK16LightmapSettings31GetRealtimeLightmapDecodeValuesEv
mU:__ZN5audio5mixer12SetSuspendedERNS0_16AudioMixerMemoryEb
tmb:__ZN17PersistentManager21UnloadNonDirtyStreamsEv
inh:__Z63RuntimeInvoker_DSAParameters_t1872138834_BooleanU26_t3168250738PFvvEPK10MethodInfoPvPS4_
bEh:__Z62RuntimeInvoker_Boolean_t3825574718_PlayableBinding_t2498078091PFvvEPK10MethodInfoPvPS4_
lIj:__ZN6il2cpp2vm13LivenessStateC2EP11Il2CppClassjPFvPP12Il2CppObjectiPvES7_PFvvESB_
HJe:_Array_ConvertAll_TisRuntimeObject_TisRuntimeObject_m2423585546_gshared
YUb:__ZN12ImageFilters4BlitER17ShaderPassContextP7TextureP13RenderTextureiPK18SharedMaterialDataPKcP6ShaderiNS_9BlitFlagsE11CubemapFaceRK8Vector2fSH_
$Xf:_Oid__ctor_m1936781897
m0:__ZN11UnityEngine15CloudWebService10RestClientINS0_23WebRequestRestHeaderMapEED2Ev
pli:_ResourceSet__ctor_m1222864106
Hqf:_Collection_1_System_Collections_IList_get_Item_m3376056117_gshared
Ml:_emscripten_glDepthMask
ALd:__ZN23InterfaceActionInvoker1IP28PointerEventData_t1599784723E6InvokeEjP11Il2CppClassP12Il2CppObjectS1_
vqg:__ZL76UInt16_t986882611_CustomAttributesCacheGenerator_UInt16_TryParse_m1818885113P21CustomAttributesCache
Cdf:_Enumerator_VerifyState_m3639069574_gshared
tsa:__ZN4crnd25static_huffman_data_model22prepare_decoder_tablesEv
fqf:_Enumerator_MoveNext_m689054299_gshared
qHf:_ModulusRing_Difference_m662924064
sei:_InternalEnumerator_1_MoveNext_m1869236997_gshared
KQd:_CanvasUpdateRegistry_ObjectValidForUpdate_m855695984
zZd:_InputField_set_onValueChanged_m2406388125
Yzc:__Z23GUIStatePopDisplayIndexv
qzf:_ReadOnlyCollection_1_System_Collections_ICollection_get_SyncRoot_m2702046016_gshared
d5:__ZL22CleanupUnityWebStreamsPv
eKb:__Z18Transfer_BlittableI18StreamedBinaryReadILb0EELb0E10ColorRGBAfEvRK29SerializationCommandArgumentsR31RuntimeSerializationCommandInfo
OUf:_ListDictionary_Add_m4276262662
W7i:__ZL25UnresolvedVirtualCall_220P12Il2CppObjectiPK10MethodInfo
Rea:__Znaj
pzd:_RIPEMD160Managed_GGG_m1639995340
afk:_emscripten_glEnableClientState__wrapper
W6:__ZN17MessageIdentifierC2EPKcNS_7OptionsEPKN5Unity4TypeES1_
ZXh:_Enumerator_System_Collections_IEnumerator_get_Current_m1648049763_gshared
XZj:__ZN6il2cpp6icalls8mscorlib4Mono8Security12Cryptography18KeyPairPersistence15_ProtectMachineEP12Il2CppString
q5j:dynCall_viiifiii
Tnh:__Z31RuntimeInvoker_Char_t3454481338PFvvEPK10MethodInfoPvPS4_
gPa:__ZN11GameManager15ThreadedCleanupEv
wlf:_List_1__ctor_m1337392449_gshared
EZ:__Z55Register_UnityEngine_AudioSource_get_spatializeInternalv
T8a:__ZN15dense_hashtableINSt3__24pairIKN4core12basic_stringIcNS2_20StringStorageDefaultIcEEEE13dynamic_arrayI4PPtrI6SpriteELj4EEEES6_20StringHash32FunctionIS6_EN14dense_hash_mapIS6_SC_SF_NS0_8equal_toIS6_EE13stl_allocatorISD_L18MemLabelIdentifier81ELi16EEE9SelectKeyESI_SL_E12resize_deltaEjj
Z4e:_TextWriter__ctor_m2225796097
soi:__ZN21InterfaceFuncInvoker0IP24StringU5BU5D_t1642385972E6InvokeEjP11Il2CppClassP12Il2CppObject
AHa:__ZN14SafeBinaryRead8TransferI14ConstantStringEEvRT_PKc17TransferMetaFlags
Noa:__ZNK6Camera16GetStereoEnabledEv
Xu:__ZN13AnimationClip9PPtrCurveaSERKS0_
rgc:__ZN12LightManager15InitializeClassEv
IQa:__ZN9ShaderLab11shaderprops16GetComputeBufferEPK19ShaderPropertySheetS3_NS_16FastPropertyNameE
_Sg:__ZL86Logger_t3328995178_CustomAttributesCacheGenerator_Logger_set_filterLogType_m3982626604P21CustomAttributesCache
a8:__ZN18ScriptingArgumentsC2Ev
ukg:_TimeZone_IsDaylightSavingTime_m875882154
Sfd:__ZN17TilemapCollider2D15InitializeClassEv
J7h:_ArrayReadOnlyList_1_Insert_m503707439_gshared
wak:_emscripten_glBlendFuncSeparate__wrapper
fMf:_CipherSuiteCollection_System_Collections_IList_set_Item_m750275607
upa:__Z17HasSampledTexture14GraphicsFormat13formatSupport
WVb:__ZNK25CameraStackRenderingState27GetStereoImageEffectTextureEb
rAd:_SHA1CryptoServiceProvider__ctor_m3127563759
Cp:__ZN8Vector3f8TransferI14SafeBinaryReadEEvRT_
lpj:__ZN6il2cpp6icalls6System6System3Net7Sockets6Socket7ReceiveEiP11Il2CppArrayiiNS4_11SocketFlagsEPi
dnc:__ZN13BuildSettings13GetSceneIndexERKN4core12basic_stringIcNS0_20StringStorageDefaultIcEEEE
T4g:__ZL103BaseVertexEffect_t2504093552_CustomAttributesCacheGenerator_BaseVertexEffect_ModifyVertices_m3446986347P21CustomAttributesCache
Fo:FUNCTION_TABLE_ii
WYh:_Enumerator_MoveNext_m335649778_AdjustorThunk
aPa:__ZN10TagManager8TransferI18StreamedBinaryReadILb0EEEEvRT_
eih:__Z45RuntimeInvoker_Char_t3454481338_RuntimeObjectPFvvEPK10MethodInfoPvPS4_
vEc:__Z18Transfer_BlittableI9JSONWriteLb0E8BitFieldEvRK29SerializationCommandArgumentsR31RuntimeSerializationCommandInfo
Nng:_UInt32_ToString_m3894907091_AdjustorThunk
yxe:_Array_InternalArray__IEnumerable_GetEnumerator_TisPlayableBinding_t2498078091_m2095426925_gshared
FEi:_Matrix4x4__ctor_m828876617_AdjustorThunk
Maj:_Predicate_1__ctor_m2863314033_gshared
$se:_CultureInfo_get_TextInfo_m1582311326
hAe:_Array_ForEach_TisRuntimeObject_m1849351808_gshared
Kkc:__ZNK6Sprite15GenerateOutlineEfhbRNSt3__26vectorI13dynamic_arrayI8Vector2fLj4EENS0_9allocatorIS4_EEEEi
zWh:_ShimEnumerator_get_Key_m616785465_gshared
tPg:__ZL76Object_t1021602117_CustomAttributesCacheGenerator_Object_Destroy_m3959286051P21CustomAttributesCache
rPe:_SmallXmlParser_Error_m1832158746
F1f:_RepeatContext_get_IsLazy_m1620488045
Fk:_glDeleteVertexArrays
AMa:__Z24CreateDirectoryRecursiveRKN4core12basic_stringIcNS_20StringStorageDefaultIcEEEE
O8j:b41
eqb:__ZN9ShaderLab20SerializedSubProgram8TransferI18StreamedBinaryReadILb0EEEEvRT_
z4e:_StreamAsyncResult_get_AsyncWaitHandle_m4218169359
N8j:b40
$1b:__Z9EndJobSetR8JobFence11JobPriority
QIe:_Array_InternalArray__get_Item_TisContactPoint2D_t3659330976_m825151777_gshared
thd:__ZN2UI13CanvasManager9AddCanvasEPNS_6CanvasE
cab:__ZN9Texture3D8TransferI19StreamedBinaryWriteILb0EEEEvRT_
yWb:__ZNK6Camera22CalculateRenderingPathEv
PFc:__ZN9JSONWrite8TransferI5RectTIfEEEvRT_PKc17TransferMetaFlags
RH:__ZN11UnityEngine9Animation37SetGenericRootTransformPropertyValuesERKNS0_30AnimatorGenericBindingConstantERKN7mecanim10ValueArrayER9Transformbb
Jya:__Z13ConvertMipmap14GraphicsFormatPKvS_Pviiii
LKf:_ContentInfo_get_Content_m1802070908
zXi:_InvokableCall_4_Find_m2012236736_gshared
Cu:__ZN15SerializeTraitsIKN4math7_float4EE8TransferI14SafeBinaryReadEEvRS2_RT_
bBd:_SHA384Managed_processBlock_m3232296629
PSe:_X509Certificate_get_PublicKey_m714501701
ovh:__Z70RuntimeInvoker_Boolean_t3825574718_UInt16_t986882611_Int32_t2071877448PFvvEPK10MethodInfoPvPS4_
G$d:_U3CMouseDragOutsideRectU3Ec__Iterator1_System_Collections_IEnumerator_get_Current_m561728752
Sxi:_AsyncOperation_InternalDestroy_m2067452588
c4c:_tt_sbit_decoder_load_image
Pfd:__Z13RegisterClassI15TilemapRendererEvv
GHd:_String_LastIndexOf_m290475879
gOc:__ZN15b2DistanceJointD0Ev
lye:__ZN21InterfaceFuncInvoker1Ii22UILineInfo_t3621277874E6InvokeEjP11Il2CppClassP12Il2CppObjectS0_
EPg:__ZL113PlayableHandle_t213697122_CustomAttributesCacheGenerator_PlayableHandle_INTERNAL_CALL_IsValidInternal_m3649184361P21CustomAttributesCache
AYd:_Image_get_layoutPriority_m2151045813
kEj:__ZN15dense_hashtableINSt3__24pairIK10KeyWrapperIP11Il2CppClassES4_EES5_N6il2cpp8metadata16SZArrayClassHashEN14dense_hash_mapIS5_S4_SA_NS5_14EqualsComparerINS9_19SZArrayClassCompareEEENS0_9allocatorIS7_EEE9SelectKeyESE_SG_EC2EjRKSA_RKSE_RKSI_
zFe:_Array_Sort_TisInt32_t2071877448_m1860415737_gshared
P5e:_TextReader_Read_m975794707
Szc:__ZNSt3__24listIN10GUIManager12SortedScriptE11memory_poolIS2_EE6__sortI13OldSortScriptEENS_15__list_iteratorIS2_PvEESA_SA_jRT_
Xng:_UInt64_System_IConvertible_ToChar_m1930853313_AdjustorThunk
jPf:_TlsClientCertificate_SendCertificates_m1096074091
ePd:_UIBehaviour_OnCanvasHierarchyChanged_m762109874
ide:_SyncHashtable_get_Item_m408601391
iCg:__ZL45DSA_t903174880_CustomAttributesCacheGeneratorP21CustomAttributesCache
Ged:__ZN17TilemapCollider2DD0Ev
lqf:_Stack_1_System_Collections_ICollection_CopyTo_m2104527616_gshared
ofg:_StringBuilder_AppendFormat_m1666670800
dzh:__Z97RuntimeInvoker_Boolean_t3825574718_RuntimeObject_TextGenerationSettings_t2543476768_RuntimeObjectPFvvEPK10MethodInfoPvPS4_
Vqd:__ZN18UnityConnectClient12CloseServiceEv
yw:__ZN13AnimationClip8TransferI17RemapPPtrTransferEEvRT_
MBb:__Z18Transfer_BlittableI17RemapPPtrTransferLb1E8BitFieldEvRK29SerializationCommandArgumentsR31RuntimeSerializationCommandInfo
yGj:__ZN6il2cpp6icalls8mscorlib6System9ThreadingL11ThreadStartEPv
Kga:__ZN15DirectorManager12OnSampleTimeEv
hDf:_ReadOnlyCollection_1_System_Collections_IList_Remove_m3878418841_gshared
EZd:_InputField_EnforceContentType_m1902926812
u5a:__ZN15dense_hashtableINSt3__24pairIKiiEEi21InstanceIDHashFunctorN14dense_hash_mapIiiS4_NS0_8equal_toIiEE13stl_allocatorIS3_L18MemLabelIdentifier67ELi16EEE9SelectKeyES7_SA_E12resize_deltaEjj
nFa:__ZN12CachedReader10Align4ReadEv
IRc:__ZN15b2WorldManifold10InitializeEPK10b2ManifoldRK11b2TransformfS5_f
Hyf:_Collection_1_CopyTo_m42272870_gshared
Zu:__Z14resize_trimmedINSt3__26vectorIN13AnimationClip10FloatCurveE13stl_allocatorIS3_L18MemLabelIdentifier26ELi16EEEEEvRT_j
d9:__ZN15dense_hashtableINSt3__24pairIKiP6ObjectEEi21InstanceIDHashFunctorN14dense_hash_mapIiS4_S6_NS0_8equal_toIiEE13stl_allocatorIS5_L18MemLabelIdentifier67ELi16EEE9SelectKeyES9_SC_E12maybe_shrinkEv
yfj:_RaycastHit2D_get_point_m2962370910_AdjustorThunk
_Fa:__ZNK9Behaviour22GetTypeVirtualInternalEv
jQd:_CanvasScaler_set_referencePixelsPerUnit_m1188599784
RDf:_ReadOnlyCollection_1_System_Collections_IList_get_Item_m887129009_gshared
WFf:_Comparison_1_EndInvoke_m179917407_gshared
Pdc:__ZNK28MonoBehaviourPropertyBinding12SetPPtrValueERKN11UnityEngine9Animation10BoundCurveEi
e4b:__Z21GetScriptingArraySize17ScriptingArrayPtr
q_c:__ZN20TextRenderingPrivate8FontImpl8TransferI14SafeBinaryReadEEvRT_
Yti:__ZN23InterfaceActionInvoker1IP19LinkRef_t2090853131E6InvokeEjP11Il2CppClassP12Il2CppObjectS1_
IAc:__ZN11IMGUIModule21ClearDeveloperConsoleEv
Mih:__Z110RuntimeInvoker_Boolean_t3825574718_RuntimeObject_SByte_t454417549_Int64U26_t763825331_ExceptionU26_t1467204777PFvvEPK10MethodInfoPvPS4_
vma:__ZN9GfxDevice17ImmediateTexCoordEifff
Osi:_Parser_ParseRegularExpression_m2390577313
J5c:_ft_black_new
hPc:__ZN10ClipperLib7Clipper13AppendPolygonEPNS_5TEdgeES2_
$2d:_Array_double_swapper_m1175307080
Vti:_Alternation_AddAlternative_m623421443
g$f:_X509CertificateEnumerator_System_Collections_IEnumerator_Reset_m327358896
Wth:__Z65RuntimeInvoker_Void_t1841601450_Byte_t3683104436_Byte_t3683104436PFvvEPK10MethodInfoPvPS4_
RDd:_Hash__ctor_m2554411450
PYe:_NumberFormatter_AppendDigits_m1308372770
Zia:__ZN30dense_hashtable_const_iteratorINSt3__24pairIKN4core12basic_stringIcNS2_20StringStorageDefaultIcEEEE10vector_setI4PPtrI11SpriteAtlasENS0_4lessISB_EE13stl_allocatorISB_L18MemLabelIdentifier81ELi16EEEEES6_20StringHash32FunctionIS6_EN14dense_hash_mapIS6_SH_SK_NS0_8equal_toIS6_EESE_ISI_LSF_81ELi16EEE9SelectKeyESN_SO_EC2EPK15dense_hashtableISI_S6_SK_SQ_SN_SO_EPKSI_SX_b
uFd:_Single_System_IConvertible_ToDateTime_m2510003459_AdjustorThunk
Koe:_Delegate_RemoveImpl_m3666700529
p8j:_emscripten_glUniform4f__wrapper
fVf:_NameObjectCollectionBase_OnDeserialization_m3478980442
nN:__ZN25RuntimeAnimatorControllerC2E18MemLabelIdentifier18ObjectCreationMode
tAi:_CustomYieldInstruction_MoveNext_m3850519634
qZd:_InputField_set_caretColor_m2252440840
kJ:__ZN8Animator8TransferI19StreamedBinaryWriteILb0EEEEvRT_
HPa:__ZNK6Camera16GetProjectionFarEv
Tq:__Z24InverseTransformRotationRK23TransformAccessReadOnlyRKN4math7_float4E
h7e:_MissingFieldException__ctor_m1161042282
fze:_Array_InternalArray__IndexOf_TisSlot_t2267560602_m1912863273_gshared
rFi:_Mesh_get_uv3_m1531319041
Qtd:__Z31GetPerformanceReportingSettingsv
U0a:__ZNK14PlayableOutput11DerivesFromE17ScriptingClassPtr
g2a:__ZN7Texture34CreateFileTextureUploadInstructionE18TextureUploadFlagsj
jma:__ZN9GfxDevice21ResetDynamicResourcesEv
Zza:__ZN13ComputeShader14SetBufferParamEjRKN9ShaderLab16FastPropertyNameE15ComputeBufferID
NWa:__ZThn280_N31CanvasBatchIntermediateRenderer20OnAssetBoundsChangedEv
oGf:_Comparison_1_EndInvoke_m4174686984_gshared
dag:_StreamingContext__ctor_m3063421596_AdjustorThunk
WCf:_ReadOnlyCollection_1_System_Collections_Generic_IListU3CTU3E_Insert_m3054305464_gshared
tdc:__ZN19LowerResBlitTexture13ApplySettingsEv
vrg:__ZL70IntPtr_t_CustomAttributesCacheGenerator_IntPtr_op_Explicit_m3896766622P21CustomAttributesCache
bJ:__ZN8Animator8TransferI14SafeBinaryReadEEvRT_
WDj:__ZN15dense_hashtableINSt3__24pairIK10KeyWrapperIP11Il2CppClassES4_EES5_N6il2cpp8metadata16SZArrayClassHashEN14dense_hash_mapIS5_S4_SA_NS5_14EqualsComparerINS9_19SZArrayClassCompareEEENS0_9allocatorIS7_EEE9SelectKeyESE_SG_E4swapERSJ_
kNa:__ZN17GlobalGameManager23VirtualRedirectTransferER18StreamedBinaryReadILb0EE
yze:_Array_InternalArray__IndexOf_TisTypeTag_t141209596_m2882894956_gshared
mRh:_Slider_get_value_m4182660424
rLc:__ZNK14b2CapsuleShape5CloneEP16b2BlockAllocator
oz:__ZN17AnimationPlayable34CollectAnimatorControllerPlayablesER13dynamic_arrayIP26AnimatorControllerPlayableLj4EE
_X:__ZN16BaseVideoTexture19UpdateVideoTexturesEv
WVa:__Z28BuildSingleStreamChannelInfo17ShaderChannelMaskRK20VertexChannelsLayoutS_S2_P11ChannelInfo
ORa:__ZNK16LightmapSettings23HasLightProbeTetrahedraEv
wOf:_Context_get_WriteSequenceNumber_m243492531
G7a:__ZN6Sprite23VirtualRedirectTransferER19StreamedBinaryWriteILb0EE
oxg:__ZL51Assembly_t4268412390_CustomAttributesCacheGeneratorP21CustomAttributesCache
yHd:_String_LastIndexOfAny_m1473637802
kwc:__Z38Transform_CUSTOM_INTERNAL_set_positionP12Il2CppObjectRK8Vector3f
VFi:_PlayerEditorConnectionEvents_InvokeMessageIdSubscribers_m795891627
Mhf:_List_1_System_Collections_ICollection_CopyTo_m3062449209_gshared
vxj:__ZNK15dense_hashtableINSt3__24pairIK10KeyWrapperINS1_IPK9FieldInfoP11Il2CppClassEEEjEES9_17ReflectionMapHashIS8_EN14dense_hash_mapIS9_jSD_NS9_14EqualsComparerINS0_8equal_toIS8_EEEENS0_9allocatorISB_EEE9SelectKeyESI_SK_E5beginEv
i_a:__ZNK9ShaderLab7Program19HasMatchingVariantsERK13dynamic_arrayI16ShaderKeywordSetLj4EE
PEe:_Array_qsort_TisUICharInfo_t3056636800_TisUICharInfo_t3056636800_m1253367821_gshared
dqa:__ZN14DataBufferGLES11CopySubDataEPKS_jjj
ke:_emscripten_glVertexPointer
hEa:__ZNSt3__26__treeI20DeviceDepthStateGLES11memcmp_lessIS1_S1_ENS_9allocatorIS1_EEE7destroyEPNS_11__tree_nodeIS1_PvEE
lVd:_Graphic__ctor_m821539719
Wgf:_List_1_System_Collections_Generic_ICollectionU3CTU3E_get_IsReadOnly_m1614481629_gshared
isj:__ZN6il2cpp2vm7Runtime47RaiseExecutionEngineExceptionIfMethodIsNotFoundEPK10MethodInfo
_$b:__Z17GetFrustumPortionPK8Vector3fffPS_
Vog:_UnauthorizedAccessException__ctor_m259001183
YIj:__ZN15dense_hashtableINSt3__24pairIK10KeyWrapperIP14Il2CppIUnknownEjEES5_N6il2cpp5utils11PointerHashIS3_EEN14dense_hash_mapIS5_jSB_NS5_14EqualsComparerINS0_8equal_toIS4_EEEENS0_9allocatorIS7_EEE9SelectKeyESG_SI_E14squash_deletedEv
hTd:_DefaultControls_CreateDropdown_m1384069408
$Md:_PointerEventData_get_clickCount_m4064532478
rBf:_ReadOnlyCollection_1_System_Collections_Generic_ICollectionU3CTU3E_get_IsReadOnly_m3508872969_gshared
rre:_EventArgs__cctor_m1350395667
UWi:_InvokableCall_1_remove_Delegate_m1748003978_gshared
rka:__ZNK9GfxDevice27GetPlatformAdjustedViewportEv
Ure:_CCGregorianCalendar_is_leap_year_m567513478
GYf:_Oid_get_Value_m2271181078
A3d:_Attribute_IsDefined_m2118467641
nRi:_SpriteAtlasManager_Register_m447878083
zQe:_PrivateKeyInfo_Normalize_m3959595934
wDh:__Z68RuntimeInvoker_Void_t1841601450_Int32_t2071877448_Color32_t874517518PFvvEPK10MethodInfoPvPS4_
M8h:_InternalEnumerator_1_System_Collections_IEnumerator_get_Current_m3125080595_gshared
hwf:_Collection_1_System_Collections_IList_Add_m2091889616_gshared
Ljc:__ZN16StreamedResource8TransferI24GenerateTypeTreeTransferEEvRT_
lNc:__ZN11b2GearJoint4DumpEv
DUd:_DropdownItem_OnPointerEnter_m761897861
XAa:__ZN10Matrix3x3f15InvertTransposeEv
Gvj:__ZNSt3__213__vector_baseIN6il2cpp2vm17TypeNameParseInfoENS_9allocatorIS3_EEED2Ev
ave:_Array_InternalArray__ICollection_Remove_TisKeyValuePair_2_t1174980068_m2768765894_gshared
KTb:__Z11IsBatchmodev
Ocj:_helpscene_Update_m2856079917
Rtf:_Collection_1_set_Item_m2199807215_gshared
JAb:__Z29Transfer_Blittable_ArrayFieldI14SafeBinaryRead8Vector3fEvRT_R9ArrayInfoRK23StaticTransferFieldInfo
SVg:__ZL75Event_t3028476042_CustomAttributesCacheGenerator_Event_PopEvent_m4241312794P21CustomAttributesCache
Zmg:_UInt32_System_IConvertible_ToBoolean_m91295134
Bhg:_Monitor_Monitor_test_synchronised_m1542589500
mRg:__ZL68RuntimePlatform_t1869584967_CustomAttributesCacheGenerator_WP8PlayerP21CustomAttributesCache
f$c:__ZN20TextRenderingPrivate8FontImpl18ResetCachedTextureEv
Qqg:__ZL75String_t_CustomAttributesCacheGenerator_String_Concat_m626692867____values0P21CustomAttributesCache
mRe:_SymmetricTransform_TransformFinalBlock_m4192185386
aWe:_TextInfo__ctor_m1263401274
spg:_Version_get_Major_m3385239713
q_i:_ListPool_1_Release_m3047738410_gshared
tVj:_GC_print_finalization_stats
kOf:_Context_get_SecurityProtocolFlags_m3295551796
NZh:_ValueCollection__ctor_m927733289_gshared
LGa:__ZN11NamedObject15ThreadedCleanupEv
$Mc:__ZNK12b2WheelJoint10GetAnchorBEv
_ei:_InternalEnumerator_1__ctor_m2981879621_AdjustorThunk
Mqc:__Z53Register_UnityEngine_Behaviour_get_isActiveAndEnabledv
TWf:_IPAddress_ToString_m267966740
V$i:_EqualityComparer_1__ctor_m3971803374_gshared
qq:__ZNSt3__26vectorIN4core12basic_stringIcNS1_20StringStorageDefaultIcEEEENS_9allocatorIS5_EEE8__appendEj
JCh:__Z64RuntimeInvoker_Boolean_t3825574718_IntPtr_t_ObjectU26_t597476745PFvvEPK10MethodInfoPvPS4_
zhb:__ZN26PlayerSettingsSplashScreen8TransferI17RemapPPtrTransferEEvRT_
xci:_InternalEnumerator_1_get_Current_m3922357178_gshared
Lqj:__ZN6il2cpp6icalls8mscorlib6SystemL17CollectTypeFieldsINS_5utils10functional10TrueFilterEEEvP11Il2CppClassPKS7_iRNSt3__26vectorIP9FieldInfoNSB_9allocatorISE_EEEERKT_
G$g:__ZL72ColorBlock_t2652774230_CustomAttributesCacheGenerator_m_HighlightedColorP21CustomAttributesCache
Mkg:_Type_get_IsValueType_m1733572463
Bbc:__Z13GetTagManagerv
L9h:_InternalEnumerator_1_Dispose_m1748410190_AdjustorThunk
IXc:__ZN14PhysicsQuery2D7RaycastERK8Vector2fS2_fRKN10Collider2D13ContactFilterEPKS3_bP12RaycastHit2Di
Eve:_Array_InternalArray__ICollection_Remove_TisUInt16_t986882611_m65494986_gshared
KBf:_ReadOnlyCollection_1_IndexOf_m3054637117_gshared
vej:__ZL10roundUp128PyS_
v_:__ZN11UnityEngine15CloudWebService17CloudJobSchedulerD0Ev
tGd:_String_System_IConvertible_ToBoolean_m2696751322
Ojb:__ZN18LoadSceneOperation7PerformEv
BWi:_CachedInvokableCall_1_Invoke_m687018726_gshared
Thd:__ZNK2UI11CanvasGroup22GetTypeVirtualInternalEv
MEi:_Matrix4x4_MultiplyPoint3x4_m1436516889
BHd:_String_LastIndexOfAny_m4281325295
fPc:__ZN10ClipperLib7Clipper14IntersectEdgesEPNS_5TEdgeES2_RNS_8IntPointE
VBh:__Z163RuntimeInvoker_Void_t1841601450_RuntimeObject_Int32_t2071877448_SByte_t454417549_SByte_t454417549_SingleU26_t4173844468_SingleU26_t4173844468_SingleU26_t4173844468PFvvEPK10MethodInfoPvPS4_
kAc:__Z21CleanupGlobalGUIStatev
idj:_startgame_SceneChange_m2530564163
pjg:_TimeSpan__ctor_m1888018443_AdjustorThunk
AIh:__Z74RuntimeInvoker_Int32_t2071877448_UIVertex_t1204258818_UIVertex_t1204258818PFvvEPK10MethodInfoPvPS4_
sx:__ZN19StreamedBinaryWriteILb0EE21TransferSTLStyleArrayI22OffsetPtrArrayTransferIN7mecanim9animation10ValueDeltaEEEEvRT_17TransferMetaFlags
dde:_SyncHashtable_get_Count_m3694444082
ZJb:__Z18Transfer_BlittableI18StreamedBinaryReadILb0EELb1EN4math12int3_storageEEvRK29SerializationCommandArgumentsR31RuntimeSerializationCommandInfo
Jvj:__ZNSt3__26vectorINS_12basic_stringIcNS_11char_traitsIcEENS_9allocatorIcEEEENS4_IS6_EEE8allocateEj
qlc:__ZNSt3__26vectorI14SubstanceInputNS_9allocatorIS1_EEE6assignIPS1_EENS_9enable_ifIXaasr21__is_forward_iteratorIT_EE5valuesr16is_constructibleIS1_NS_15iterator_traitsIS8_E9referenceEEE5valueEvE4typeES8_S8_
aih:__Z56RuntimeInvoker_RuntimeObject_RuntimeObject_RuntimeObjectPFvvEPK10MethodInfoPvPS4_
FCa:__ZN22VertexDeclarationCache5ClearEv
Fmb:__ZN15CacheWriterBase18GetAddressOfMemoryEv
UB:__Z27ProcessRootMotionEmptyMixerP35AnimationPlayableEvaluationConstantP32AnimationPlayableEvaluationInputP33AnimationPlayableEvaluationOutput
E1b:__ZN6Camera24PrepareCullingParametersERK23CameraCullingParameters13RenderingPathR11CullResults
Fmc:__Z12SetIUISystemP9IUISystem
$jb:__ZN19RuntimeSceneManager22EndIntegrateMainThreadEP10UnitySceneNS_11LoadingModeE
nDg:__ZL84Evidence_t1407710183_CustomAttributesCacheGenerator_Evidence_GetHashCode_m1260371757P21CustomAttributesCache
hyc:__Z25SendGridChangedToChildrenP9TransformR11MessageData
BBf:_ReadOnlyCollection_1_System_Collections_ICollection_get_IsSynchronized_m2344337514_gshared
jCb:__Z26Transfer_UnityEngineObjectI17RemapPPtrTransferLb0EEvRK29SerializationCommandArgumentsR31RuntimeSerializationCommandInfo
RBh:__Z34RuntimeInvoker_FitMode_t4030874534PFvvEPK10MethodInfoPvPS4_
IHd:_String_IsNullOrEmpty_m2802126737
l6d:_Byte_Parse_m1442736478
$na:__ZN13GfxDeviceGLES15OnDeviceCreatedEb
e$e:_Int64_Parse_m3258022240
sHd:_String_IndexOfOrdinal_m3591623977
Ybg:_CryptoConfig_EncodeLongNumber_m2352037787
plg:_Type_GetMethod_m475234662
aGd:_Single_GetHashCode_m3102305584
cbf:_KeyValuePair_2__ctor_m1877755778_AdjustorThunk
cni:_ActivationServices_get_ConstructionActivator_m1726426854
EEb:__Z29Transfer_Blittable_ArrayFieldI24GenerateTypeTreeTransfer4AABBEvRT_R9ArrayInfoRK23StaticTransferFieldInfo
OFg:__ZL76Convert_t2607082565_CustomAttributesCacheGenerator_Convert_ToChar_m245844937P21CustomAttributesCache
iFg:__ZL52Activator_t1850728717_CustomAttributesCacheGeneratorP21CustomAttributesCache
vWj:_GC_adj_bytes_allocd
RRh:_SpriteState_t1353336012_marshal_pinvoke_cleanup
aBe:_Array_InternalArray__ICollection_Add_TisKeyframe_t1449471340_m887263954_gshared
HCe:_Array_InternalArray__Insert_TisDateTime_t693205669_m1484996356_gshared
Shf:_List_1_System_Collections_IList_Remove_m3933652540_gshared
u$h:_Dictionary_2_System_Collections_IDictionary_GetEnumerator_m1484720898_gshared
L3e:_MonoIO_get_ConsoleInput_m2976499023
Jch:_OpCode_get_Size_m481593949_AdjustorThunk
Cae:_BitArrayEnumerator_checkVersion_m3839504595
Q1d:_Array_GetUpperBound_m1352329707
yNc:__ZN13b2PulleyJoint24SolveVelocityConstraintsERK12b2SolverData
Agj:_CustomEventData_Add_m1145561703
IIj:__ZN6il2cpp6icalls8mscorlib6System10Reflection10MonoMethod19get_base_definitionEP22Il2CppReflectionMethod
Da:invoke_fiiifii
TMf:_RecordProtocol__ctor_m168945279
hme:_DateTimeOffset_Equals_m3728302791_AdjustorThunk
MVi:_GUIStyleState_t3801000545_marshal_pinvoke_back
hYa:__ZN20SphericalHarmonicsL219AddDirectionalLightERKN4math7_float3ERKNS0_7_float4E
lkg:_TimeSpan_op_GreaterThanOrEqual_m3997050520
FGg:__ZL77Convert_t2607082565_CustomAttributesCacheGenerator_Convert_ToUInt16_m36213644P21CustomAttributesCache
Bga:__Z26ScheduleJobForEachInternalR8JobFencePFvPvjES1_iPFvS1_E11JobPriority
RYf:_OidEnumerator_MoveNext_m1889267785
EJe:_Mesh_GetAllocArrayFromChannel_TisVector3_t2243707580_m799130432_gshared
vTb:__ZZ23InitPlayerLoopCallbacksvEN41PostLateUpdateProfilerEndFrameRegistrator7ForwardEv
pnc:__ZN9Scripting18RaiseMonoExceptionEPKcz
n3a:__ZN9Texture2D8TransferI19StreamedBinaryWriteILb0EEEEvRT_
GUd:_OptionData__ctor_m3070653720
f_i:_TweenRunner_1_StartTween_m3792842064_gshared
Rgc:__ZN9ShaderLab16FastPropertyName15InitBy28BitHashEj
CFd:_Single_System_IConvertible_ToInt32_m3269519527_AdjustorThunk
E8i:_TextGenerationSettings_Equals_m1603221718
xAd:_SHA1Internal_ProcessBlock_m4070037334
vOa:__ZN17PersistentManager17IsObjectAvailableEi
zmi:_Marshal_copy_from_unmanaged_m98320635
ODe:_Array_InternalArray__set_Item_TisDouble_t4078015681_m24756265_gshared
YAi:_Display_RelativeMouseAtImpl_m700362000
WRi:_Vector2_get_right_m4262310679
Ydc:__ZN13ProduceHelperIN2UI13RectTransformELb0EE7ProduceE18MemLabelIdentifier18ObjectCreationMode
Iab:__ZN17PackedFloatVector12UnpackFloatsEPfiiii
XDg:__ZL113EncoderReplacementFallback_t4228544112_CustomAttributesCacheGenerator_EncoderReplacementFallback__ctor_m517300448P21CustomAttributesCache
Bzf:_ReadOnlyCollection_1__ctor_m3671019970_gshared
YE:__ZN17AnimationPlayable28UpdateInternalStateRecursiveILi3ELb0EEEvPK35AnimationPlayableEvaluationConstant
rna:__ZN13GfxDeviceGLES21DestroyComputeProgramER12ObjectHandleI18ComputeProgram_TagPvE
ahe:_Convert_ToDecimal_m2007036836
NFj:__ZN6il2cpp6icalls8mscorlib6System5Array12SetValueImplEP11Il2CppArrayP12Il2CppObjecti
pea:__ZN17UniqueIDGenerator16DestroyPureIndexEj
Vaa:__ZL21AppendNestedClassName17ScriptingClassPtrRN4core17string_with_labelILi1EEE
Qnb:__ZN14SafeBinaryRead21TransferSTLStyleArrayINSt3__26vectorIN9ShaderLab20SerializedSubProgram12UAVParameterENS1_9allocatorIS5_EEEEEEvRT_17TransferMetaFlags
jpi:_Context_NotifyDynamicSinks_m1367144344
qUh:_Enumerator__ctor_m1897170543_AdjustorThunk
U2:__ZNK13BaseAllocator10IsAssignedEv
E$:__ZN24TextDOMTransferWriteBaseI9JSONWriteE12PushMetaFlagEi
SOf:_Context_get_Current_m2717045324
pOg:__ZL79Mesh_t1356156583_CustomAttributesCacheGenerator_Mesh_Internal_Create_m384282753P21CustomAttributesCache
ZMf:_TlsClientCertificateVerify__ctor_m110646389
Sva:__ZN6prcoreL26RemapGenericIntegerToFloatI17TexFormatARGB888815TexFormatRFloatEEvPKNS_9InnerInfoE
Juj:_UpdatedEventHandler__ctor_m2169897603
h3:__ZN5Mutex6UnlockEv
spi:_Context_GetServerContextSinkChain_m390126977
wvj:__ZN6il2cpp2vm17TypeNameParseInfoD2Ev
vS:__ZN4FMOD7Channel7setModeEj
s5e:_StringReader_Read_m513112775
a5a:__ZNK8Renderer8GetLayerEv
Bqf:_Collection_1_System_Collections_IList_Insert_m266942173_gshared
pUa:__ZN12FlareManager11DeleteFlareEi
esf:_Collection_1_Add_m2613548553_gshared
YD:__ZN7mecanim9animation22DestroyBlendTreeOutputEPNS0_15BlendTreeOutputERNS_6memory9AllocatorE
gYb:__ZNK6Camera20GetReplacementShaderEv
Z9j:_glProgramBinary__wrapper
$me:_Decimal__ctor_m569480123_AdjustorThunk
mWf:_HttpWebRequest__cctor_m3013631978
xZj:__ZNSt3__26__treeINS_12__value_typeINS_12basic_stringIcNS_11char_traitsIcEENS_9allocatorIcEEEEPFvvEEENS_19__map_value_compareIS7_SA_NS_4lessIS7_EELb1EEENS5_ISA_EEE4findIS7_EENS_15__tree_iteratorISA_PNS_11__tree_nodeISA_PvEEiEERKT_
cob:__ZNSt3__26vectorIN9ShaderLab20SerializedSubProgram14ConstantBufferENS_9allocatorIS3_EEE7reserveEj
fta:__ZL23stbir__calculate_memoryP11stbir__info
$ph:__Z83RuntimeInvoker_Void_t1841601450_Int64_t909078037_Int32_t2071877448_Int64_t909078037PFvvEPK10MethodInfoPvPS4_
Pyj:__ZNK15dense_hashtableINSt3__24pairIK10KeyWrapperINS1_IPK10MethodInfoP11Il2CppClassEEEjEES9_17ReflectionMapHashIS8_EN14dense_hash_mapIS9_jSD_NS9_14EqualsComparerINS0_8equal_toIS8_EEEENS0_9allocatorISB_EEE9SelectKeyESI_SK_E12test_deletedERK24dense_hashtable_iteratorISB_S9_SD_SM_SI_SK_E
Wvg:__ZL90BinaryReader_t2491843768_CustomAttributesCacheGenerator_BinaryReader_ReadSByte_m1712621355P21CustomAttributesCache
$Pg:__ZL101Transform_t3275118058_CustomAttributesCacheGenerator_Transform_INTERNAL_set_localPosition_m2606735056P21CustomAttributesCache
cOh:_Scrollbar_FindSelectableOnRight_m3219495255
MDi:_Logger_IsLogTypeAllowed_m243840823
M4h:_EqualityComparer_1_System_Collections_IEqualityComparer_GetHashCode_m487741360_gshared
Khd:__ZNSt3__227__insertion_sort_incompleteIRPFbPN2UI6CanvasES3_EPS3_EEbT0_S8_T_
fMi:_Rect_set_width_m2294291744_AdjustorThunk
jVb:__ZNK6Camera18GetRenderRectangleEv
Xmj:__ZN6il2cpp5utils13dynamic_arrayIPK10Il2CppTypeLj4EE7reserveEj
Hyj:__ZNK15dense_hashtableINSt3__24pairIK10KeyWrapperINS1_IPK10MethodInfoP11Il2CppClassEEEjEES9_17ReflectionMapHashIS8_EN14dense_hash_mapIS9_jSD_NS9_14EqualsComparerINS0_8equal_toIS8_EEEENS0_9allocatorISB_EEE9SelectKeyESI_SK_E3endEv
R8a:__ZN13sorted_vectorIN4core12basic_stringIcNS0_20StringStorageDefaultIcEEEENSt3__24lessIS4_EE13stl_allocatorIS4_L18MemLabelIdentifier81ELi16EEE4findIS4_EENS5_11__wrap_iterIPS4_EERKT_
qCe:_Array_InternalArray__ICollection_CopyTo_TisVector3_t2243707580_m509487340_gshared
SWd:_GridLayoutGroup_get_constraint_m1351424857
oHc:__ZL26Transfer_SimpleNativeClassI8JSONRead10RectOffsetLb1EEvRK29SerializationCommandArgumentsR31RuntimeSerializationCommandInfo
odj:_Enumerator__ctor_m1118423891
eld:__Z44CanvasRenderer_CUSTOM_INTERNAL_CALL_SetColorP12Il2CppObjectRK10ColorRGBAf
f7g:_CustomAttributeData_GetCustomAttributes_m119332220
qni:_UrlAttribute_Equals_m1587451932
GPj:__ZNSt3__26__treeINS_12basic_stringIcNS_11char_traitsIcEENS_9allocatorIcEEEENS_4lessIS6_EENS4_IS6_EEE12__find_equalIS6_EERPNS_16__tree_node_baseIPvEESG_RKT_
dEc:__Z18Transfer_BlittableI9JSONWriteLb1EsEvRK29SerializationCommandArgumentsR31RuntimeSerializationCommandInfo
ZOc:__ZN10ClipperLib8JoinHorzEPNS_5OutPtES1_S1_S1_NS_8IntPointEb
Bod:__Z48UnityAnalyticsHandler_CUSTOM_SendCustomEventNameP12Il2CppObjectP12Il2CppString
twd:_DSAParameters_t1872138834_marshal_pinvoke_cleanup
LFa:__ZN6ObjectD2Ev
eoc:__ZN9Transform16SetLocalRotationERK11Quaternionf
dUb:__ZN13RenderManager37RenderCamerasWithScriptableRenderLoopEi
PNe:_ASN1_Element_m2600236165
Zaj:_Canvas_get_renderMode_m3398547532
q6:__ZN23InstancedPropInfoStaticL16RegisterCallbackEPv
sMj:__ZN15dense_hashtableINSt3__24pairIK10KeyWrapperIP12Il2CppObjectEN6il2cpp2gc9CachedCCWEEES5_NS7_5utils11PointerHashIS3_EEN14dense_hash_mapIS5_S9_SD_NS5_14EqualsComparerINS0_8equal_toIS4_EEEENS0_9allocatorISA_EEE9SelectKeyESI_SK_E16reset_thresholdsEv
eH:__ZN7mecanim8skeleton25SkeletonPoseComputeLocalQEPKNS0_8SkeletonEPKNS0_13SkeletonPoseTIN4math4trsXEEEPS7_ii
dNj:__ZN6il2cpp2os19ReleaseSocketHandleEj
kDg:__ZL59ApplicationTrust_t3968282840_CustomAttributesCacheGeneratorP21CustomAttributesCache
fug:__ZL128SafeHandleZeroOrMinusOneIsInvalid_t1177681199_CustomAttributesCacheGenerator_SafeHandleZeroOrMinusOneIsInvalid__ctor_m3340306667P21CustomAttributesCache
oX:__ZN11AudioModule16GetDSPSampleRateEv
wRj:__ZN15dense_hashtableINSt3__24pairIK10KeyWrapperIPK19Il2CppGenericMethodEP10MethodInfoEES6_N6il2cpp8metadata23Il2CppGenericMethodHashEN14dense_hash_mapIS6_S9_SD_NS6_14EqualsComparerINSC_26Il2CppGenericMethodCompareEEENS0_9allocatorISA_EEE9SelectKeyESH_SJ_E5clearEv
Ijc:__ZN16PropertyAccessor5ClearEv
z8g:_TypeBuilder_get_next_table_index_m1415870184
O4j:___cxa_can_catch
bIf:_SequentialSearchPrimeGeneratorBase_GenerateNewPrime_m296245934
q7d:_Char_GetUnicodeCategory_m4273361321
zYb:__ZN6Camera28DefaultPerformRenderFunctionD0Ev
X6e:_Math_Round_m565516458
api:_Identity_get_ClientDynamicProperties_m767245959
K8h:_InternalEnumerator_1__ctor_m675130983_AdjustorThunk
S_h:_Dictionary_2_Clear_m899854001_gshared
kOj:__ZN6il2cpp2os5posix15PosixWaitObjectC2ENS2_4TypeE
sWb:__ZN6Camera21PostMultiCustomRenderENS_10RenderFlagEb
odh:_TypeBuilder_create_generic_class_m986834171
y4i:__ZL24UnresolvedVirtualCall_34P12Il2CppObjectS0_PK10MethodInfo
Fza:__ZN12_GLOBAL__N_112UploadImagesEP7ApiGLESjji14GraphicsFormatPKhjS2_iiii16TextureUsageModePh
hRb:__ZN23ShaderVariantCollection13WarmupShadersEv
HQi:_Transform_set_rotation_m2824446320
jOf:_Context_set_ProtocolNegotiated_m1177527245
bng:_UInt32_System_IConvertible_ToChar_m1056040486
Aaa:__Z25GetCommonScriptingClassesv
STf:_TlsStream_get_Length_m1562309511
Dkb:__Z27scripting_gc_collect_unsafei
tX:__ZN11AudioModule20SuspendVideoTexturesEv
Fae:_CaseInsensitiveComparer__ctor_m1125492797
uZ:__Z59Register_UnityEngine_AudioExtensionManager_GetAudioListenerv
mgc:__ZN12CubemapArrayC2E18MemLabelIdentifier18ObjectCreationMode
MIh:__Z73RuntimeInvoker_DictionaryEntry_t3048875398_RuntimeObject_SByte_t454417549PFvvEPK10MethodInfoPvPS4_
nfe:_Convert_ToByte_m395020137
XDb:__Z26Transfer_UnityEngineObjectI24GenerateTypeTreeTransferLb0EEvRK29SerializationCommandArgumentsR31RuntimeSerializationCommandInfo
zfj:_RaycastHit2D_get_normal_m1680752829
R1c:_UNITY_FT_GlyphLoader_CheckPoints
Dkf:_List_1_System_Collections_ICollection_CopyTo_m1995866425_gshared
GSc:__ZN16b2PolygonContact7DestroyEP9b2ContactP16b2BlockAllocator
f6e:_TextWriter_WriteLine_m1754475888
lUa:__ZN15SharedLightData7PrecalcEv
APa:__ZN10Matrix4x4fmLERKS_
Kq:__ZN4PPtrI9TransformE8TransferI18StreamedBinaryReadILb0EEEEvRT_
pIe:_Array_InternalArray__get_Item_TisDouble_t4078015681_m2215331088_gshared
ZPg:__ZL95Transform_t3275118058_CustomAttributesCacheGenerator_Transform_INTERNAL_set_position_m502085109P21CustomAttributesCache
tDg:__ZL57PrincipalPolicy_t289802916_CustomAttributesCacheGeneratorP21CustomAttributesCache
tHb:__Z35Transfer_Blittable_FixedBufferFieldI18StreamedBinaryReadILb1EEsEvRK29SerializationCommandArgumentsR31RuntimeSerializationCommandInfo
$uf:_Collection_1_ClearItems_m3446813399_gshared
K_h:_Dictionary_2_Init_m3666073812_gshared
c8i:__ZL25UnresolvedVirtualCall_228P12Il2CppObject19Vector2_t2243707579PK10MethodInfo
mSi:_Vector3_get_magnitude_m4021906415
Vlf:_List_1_AsReadOnly_m1681105545_gshared
CKa:__ZN15ArchiveReadFileD0Ev
fRe:_SymmetricTransform_TransformBlock_m1524716432
XVi:_GUIUtility_TakeCapture_m1786193394
bye:_Array_compare_TisColor32_t874517518_m3842009370_gshared
Szh:__Z105RuntimeInvoker_Boolean_t3825574718_RuntimeObject_Vector2_t2243707579_RuntimeObject_Vector2U26_t3911752445PFvvEPK10MethodInfoPvPS4_
gqd:__ZN11UnityEngine15PlatformWrapper18GetOperatingSystemEv
tja:__ZNSt3__26vectorIP14DataBufferGLESNS_9allocatorIS2_EEE21__push_back_slow_pathIKS2_EEvRT_
khi:_InternalEnumerator_1__ctor_m2458691472_AdjustorThunk
bEf:_ReadOnlyCollection_1_System_Collections_Generic_ICollectionU3CTU3E_Remove_m974176789_gshared
yoe:_Delegate_return_type_match_m4278947849
e$d:_InputField_GenerateHightlight_m1346735465
jfj:_Physics2D_Raycast_m1275014335
Fp:__ZN15SerializeTraitsI13dynamic_arrayIiLj4EEE19ResizeSTLStyleArrayERS1_i
pCi:_UnityEventBase_ToString_m2323130098
cwi:_Uri_ParseNoExceptions_m1151989845
Gee:_GC_SuppressFinalize_m953228702
G1c:_FT_MSB
aN:__ZN29AnimationStateNetworkProvider24SetNetworkAnimationStateER9AnimationPK24AnimationStateForNetworki
CEj:__ZN15dense_hashtableINSt3__24pairIK10KeyWrapperINS1_IP11Il2CppClassjEEES4_EES6_N6il2cpp8metadata14ArrayClassHashEN14dense_hash_mapIS6_S4_SB_NS6_14EqualsComparerINSA_17ArrayClassCompareEEENS0_9allocatorIS8_EEE9SelectKeyESF_SH_E3endEv
q7f:_SoapServices_PreLoad_m490411755
OMi:_RectOffset__ctor_m2517237351
rnh:__Z63RuntimeInvoker_RuntimeObject_Int32_t2071877448_SByte_t454417549PFvvEPK10MethodInfoPvPS4_
VZj:__ZN6il2cpp6icalls8mscorlib4Mono8Security12Cryptography18KeyPairPersistence10_CanSecureEP12Il2CppString
y6h:_Action_1_Invoke_m4180501989_gshared
WQh:_Slider__ctor_m3124136916
dji:_DefaultComparer__ctor_m3180706193_gshared
wmf:_List_1_System_Collections_Generic_IEnumerableU3CTU3E_GetEnumerator_m3625278020_gshared
Mja:__ZN13GfxDeviceGLES14SetRasterStateEPK17DeviceRasterState
Grh:__Z51RuntimeInvoker_Int16_t4041245914_Single_t2076509932PFvvEPK10MethodInfoPvPS4_
qyb:__Z30TransferField_LinearCollectionI14SafeBinaryReadEvRK29SerializationCommandArgumentsR31RuntimeSerializationCommandInfo
WZd:_InputField_set_caretPositionInternal_m231166704
FNf:_TlsServerHello__ctor_m3032108168
DEa:__ZN14SafeBinaryRead11EndTransferEv
Rwg:__ZL98ILGenerator_t99948092_CustomAttributesCacheGenerator_ILGenerator_Mono_GetCurrentOffset_m3553856682P21CustomAttributesCache
Kyb:__ZN14SafeBinaryRead8TransferI8MonoPPtrEEvRT_PKc17TransferMetaFlags
J1h:_Dictionary_2_System_Collections_Generic_ICollectionU3CSystem_Collections_Generic_KeyValuePairU3CTKeyU2CTValueU3EU3E_Remove_m1705959559_gshared
XOi:_SerializeField__ctor_m2670658200
Ugi:_InternalEnumerator_1_System_Collections_IEnumerator_get_Current_m1533037706_gshared
FAa:__ZN21UniformBufferTFMethod13MapBoneBufferEj
vRf:_RecordProtocol_SendChangeCipherSpec_m3542001341
xs:__Z27InsertAnimationClipCurveIDsR14dense_hash_mapI7CurveIDj10hash_curveNSt3__28equal_toIS0_EE13stl_allocatorINS2_4pairIKS0_jEEL18MemLabelIdentifier1ELi16EEER13AnimationClip
AEe:_Array_InternalArray__set_Item_TisVector3_t2243707580_m1390667454_gshared
tzc:__ZN12GUIClipState10BeginOnGUIER10InputEvent
aGj:__ZNSt3__26vectorIcNS_9allocatorIcEEEC2Ej
Krb:__ZNSt3__26vectorIN9ShaderLab20SerializedSubProgram12UAVParameterENS_9allocatorIS3_EEE21__push_back_slow_pathIKS3_EEvRT_
cPe:_KeyPairPersistence_CanSecure_m2251009700
KC:__ZN7mecanim5human14HumanPoseClearERNS0_9HumanPoseERKNS_6bitsetILj70EEE
zOb:__ZN9TextAsset15ThreadedCleanupEv
X4f:_ReturnMessage_get_Properties_m531965085
Aah:_GenericTypeParameterBuilder_IsSubclassOf_m563999142
Gre:_Exception_ToString_m627574695
Wdh:_AddEventAdapter_Invoke_m3970567975
Cga:__Z21CompleteFenceInternalR8JobFence
TAc:__Z30Event_Get_Custom_PropModifiersP12Il2CppObject
yxj:__ZN30dense_hashtable_const_iteratorINSt3__24pairIK10KeyWrapperINS1_IPK9FieldInfoP11Il2CppClassEEEjEES9_17ReflectionMapHashIS8_EN14dense_hash_mapIS9_jSD_NS9_14EqualsComparerINS0_8equal_toIS8_EEEENS0_9allocatorISB_EEE9SelectKeyESI_SK_E30advance_past_empty_and_deletedEv
$1h:_Dictionary_2_ContainsValue_m2375979648_gshared
Fz:__ZN7mecanim9animation16CreateClipOutputEPKNS0_4ClipERNS_6memory9AllocatorE
ICe:_Array_InternalArray__Insert_TisDecimal_t724701077_m1429254816_gshared
B_i:_ListPool_1_Get_m2998644518_gshared
Lqh:__Z191RuntimeInvoker_Int32_t2071877448_RuntimeObject_Int32_t2071877448_Int32_t2071877448_RuntimeObject_Int32_t2071877448_SByte_t454417549_Int32U26_t455636984_BooleanU26_t3168250738_SByte_t454417549PFvvEPK10MethodInfoPvPS4_
tjg:_TimeSpan_get_Days_m1002111510
hMb:__ZNSt3__218__stable_sort_moveIRN10vector_mapI17ScriptingClassPtrPKN5Unity4TypeENS_4lessIS2_EENS_9allocatorINS_4pairIS2_S6_EEEEE13value_compareENS_11__wrap_iterIPSB_EEEEvT0_SJ_T_NS_15iterator_traitsISJ_E15difference_typeEPNSM_10value_typeE
Kmb:__ZN6Shader21AwakeFromLoadThreadedEv
Uua:__ZN6prcoreL17RemapGenericFloatI17TexFormatRGBFloat17TexFormatRGBAHalfEEvPKNS_9InnerInfoE
e1g:__ZL70InputField_t1631627530_CustomAttributesCacheGenerator_m_CharacterLimitP21CustomAttributesCache
lnf:_List_1_get_Capacity_m2443158653_gshared
yvd:__ZN13RuntimeStaticINSt3__26vectorIjNS0_9allocatorIjEEEELb0EE16StaticInitializeEPv
b1:__ZN13UploadHandler10OnSentDataEj
c$j:__ZN6il2cpp2os9SemaphoreC2Eii
I8h:_InternalEnumerator_1_get_Current_m2960188445_AdjustorThunk
Ovh:__Z56RuntimeInvoker_UriHostNameType_t2148127109_RuntimeObjectPFvvEPK10MethodInfoPvPS4_
Myb:__ZNSt3__26vectorI8MonoPPtr13stl_allocatorIS1_L18MemLabelIdentifier1ELi16EEE8__appendEj
vSh:_Text_set_alignByGeometry_m1514652028
YWb:__ZN14qsort_internal30FindAndMovePivotToLastPositionIP17RODataReplacementi19ROSorterReplacementEEvT_S4_T0_T1_
QAa:__ZN15UniformTFMethod20IsBoneCountSupportedEi
k2e:_FileStream_get_Position_m465478322
Zfc:__Z12BuildTextureIA4_tPFvP9Texture2DPS0_iiiiEES2_PKcii13TextureFormatRKT0_17TextureColorSpaceb
_5j:dynCall_viidi
MCe:_Array_InternalArray__Insert_TisInt64_t909078037_m3039874636_gshared
A4d:_Convert_ToInt16_m1787678274
fTh:_ToggleGroup_NotifyToggleOn_m997426227
dz:__ZN8Playable18OnApplicationPauseEb
FRf:_RSASslSignatureDeformatter_SetKey_m1150106904
m8:__ZN24ScriptingMethodFiltering17FilterOnSignatureENS_18MethodSearchFilterE
S7g:_TypeBuilder_get_Module_m1668298460
ONh:_Scrollbar_ClickRepeat_m3403943364
zRc:__ZThn4_N16PhysicsManager2D12BeginContactEP9b2Contact
D6b:__ZN18ScreenManagerWebGL13SetLockCursorE14CursorLockMode
l8c:_cf2_arrstack_finalize
B8e:_MonoType_GetMethodsByName_m1854415088
EUh:_Enumerator_get_CurrentValue_m3147984131_gshared
I8g:_DerivedType_GetMethods_m165266904
MQe:_RSAManaged_EncryptValue_m4089823119
Jdc:__ZN13MonoBehaviour19HandleNotificationsEPviR11MessageData
Jzi:_Component_get_gameObject_m2159020946
I$j:__ZN6il2cpp2os9EventImpl5ResetEv
Ynj:__ZN6il2cpp2vm13MetadataCache23GetMethodGenericContextEPK10MethodInfo
R2h:_DefaultComparer_GetHashCode_m926363525_gshared
BPg:__ZL78Object_t1021602117_CustomAttributesCacheGenerator_Object_Instantiate_m86013740P21CustomAttributesCache
DTi:_Event_get_keyCode_m4176847855
OOh:_ScrollRect_get_verticalScrollbar_m2455612493
_2e:_ReadDelegate_Invoke_m2091885836
R9g:_TypeBuilder_GetField_m2112455315
x9j:b58
y9j:b59
hUb:__ZN25CameraStackRenderingState18EndStereoRenderingEv
f9j:b52
g9j:b53
d9j:b50
e9j:b51
v9j:b56
w9j:b57
h9j:b54
s9j:b55
IMe:_Kernel_Multiply_m3585610531
cLf:_CertificateSelectionCallback_EndInvoke_m3525317639
XU:__ZN4PPtrI15AudioMixerGroupE8TransferI18StreamedBinaryReadILb0EEEEvRT_
bke:_DateTime__ctor_m3604679583_AdjustorThunk
ufj:_RaycastHit2D_t4063908774_marshal_pinvoke
f3d:_SimpleEnumerator_Reset_m1341779532
Tvj:__ZNSt3__214__split_bufferINS_12basic_stringIcNS_11char_traitsIcEENS_9allocatorIcEEEERNS4_IS6_EEEC2EjjS8_
$Pe:_MACAlgorithm_Core_m2390605245
Ofi:_InternalEnumerator_1_System_Collections_IEnumerator_get_Current_m30488070_gshared
iic:__ZN10GameObject12CleanupClassEv
lci:_InternalEnumerator_1_System_Collections_IEnumerator_Reset_m2624612805_AdjustorThunk
ctg:__ZL108ArrayReadOnlyList_1_t3367196019_CustomAttributesCacheGenerator_ArrayReadOnlyList_1_GetEnumerator_m3031680693P21CustomAttributesCache
Aka:__ZN9GfxDevice25SetShaderPropertiesSharedERK19ShaderPropertySheet
zZi:_IndexedSet_1_GetEnumerator_m3646001838_gshared
Dlh:__Z96RuntimeInvoker_Int32_t2071877448_RuntimeObject_Int32_t2071877448_Int32_t2071877448_RuntimeObjectPFvvEPK10MethodInfoPvPS4_
jOb:__ZN10MonoScript17MainThreadCleanupEv
cbc:__ZN19SpriteMeshGenerator4path9clip_edgeEi
$Lh:_VertexHelper_AddUIVertexTriangleStream_m4009409241
Lji:_Comparer_1__ctor_m844571340_gshared
Ahc:__ZL25InitializeDefaultMaterialv
Eld:__Z53Register_UnityEngine_CanvasRenderer_get_materialCountv
G4:__GLOBAL__sub_I_runtime_graphics_lod_0_cpp
kLa:__ZN19FileAccessorHandlerD2Ev
mNg:__ZL84RectOffset_t3387826427_CustomAttributesCacheGenerator_RectOffset_Cleanup_m3560058379P21CustomAttributesCache
JTh:_VertexHelper_AddVert_m3290455716
VCg:__ZL56SHA256Managed_t2029745292_CustomAttributesCacheGeneratorP21CustomAttributesCache
Nwg:__ZL126GenericTypeParameterBuilder_t1370236603_CustomAttributesCacheGenerator_GenericTypeParameterBuilder_MakeGenericType_m2955814622P21CustomAttributesCache
IIa:__ZN17PersistentManager12UnloadStreamERKN4core12basic_stringIcNS0_20StringStorageDefaultIcEEEEb
iM:__ZN15SerializeTraitsI9OffsetPtrIN7mecanim9animation17BlendTreeConstantEEE8TransferI19StreamedBinaryWriteILb0EEEEvRS4_RT_
WVc:__ZN19CompositeCollider2D22SimplifyCompositePathsERKNSt3__26vectorINS1_IN10ClipperLib8IntPointENS0_9allocatorIS3_EEEENS4_IS6_EEEERS8_
$6a:__ZN13ScreenManager17RequestResolutionEiibi
tcg:_DESTransform__ctor_m4096028381
Etj:_il2cpp_unity_liveness_calculation_from_statics
TGe:_Dictionary_2_Do_CopyTo_TisDictionaryEntry_t3048875398_TisDictionaryEntry_t3048875398_m983412647_gshared
nD:__ZNK26AnimatorControllerPlayable11DerivesFromE17ScriptingClassPtr
Iig:_Scheduler_get_Instance_m1989471839
N5a:__ZN8Renderer8TransferI17RemapPPtrTransferEEvRT_
nJh:__Z76RuntimeInvoker_Boolean_t3825574718_UIVertex_t1204258818_UIVertex_t1204258818PFvvEPK10MethodInfoPvPS4_
quf:_Collection_1_Contains_m1299140035_gshared
u9j:_glBlitFramebuffer__wrapper
gBe:_Array_InternalArray__ICollection_Add_TisUICharInfo_t3056636800_m968274080_gshared
J_i:_ObjectPool_1__ctor_m1532275833_gshared
Hna:__ZN13GfxDeviceGLES19SetSinglePassStereoE16SinglePassStereo
eJh:__Z72RuntimeInvoker_Boolean_t3825574718_Color32_t874517518_Color32_t874517518PFvvEPK10MethodInfoPvPS4_
a3i:_AudioSourceExtension_set_audioSource_m650845743
Spf:_Queue_1_System_Collections_ICollection_get_IsSynchronized_m3521628381_gshared
h5i:__ZL24UnresolvedVirtualCall_71P12Il2CppObjectS0_S0_iS0_S0_S0_PK10MethodInfo
org:__ZL64IntPtr_t_CustomAttributesCacheGenerator_IntPtr__ctor_m3803259710P21CustomAttributesCache
$lf:_List_1_GetIndex_m3262928832_gshared
KWc:__ZN16PhysicsManager2D19AddRigidbodyUpdatesEP11Rigidbody2D
E4b:__Z24LookRotationToQuaternionRK8Vector3fS1_P11Quaternionf
C4b:__ZN16ReflectionProbes9GetCameraEv
rrb:__ZL18IsGpuProgramUsable20ShaderGpuProgramTypePK6Shader
mUe:_ArgumentException__ctor_m2105824819
hkd:__ZN2UI6Canvas17SetSortingLayerIDEi
MPd:_BaseMeshEffect_get_graphic_m3358796463
hOj:__ZN6il2cpp2vm11MethodStack23CleanupForCurrentThreadEv
_Si:_YieldInstruction__ctor_m3378690795
daj:_Predicate_1_Invoke_m695569038_gshared
Pbf:_Enumerator_VerifyState_m825848279_AdjustorThunk
hVa:__ZN20TierGraphicsSettings8TransferI24GenerateTypeTreeTransferEEvRT_
QVi:_GUIStyleState_Cleanup_m824895509
Ljh:__Z77RuntimeInvoker_Int32_t2071877448_RuntimeObject_RuntimeObject_SByte_t454417549PFvvEPK10MethodInfoPvPS4_
Dgj:_UnityAnalyticsHandler_t3238795095_marshal_pinvoke_back
wAb:__ZN14SafeBinaryRead21TransferSTLStyleArrayI13dynamic_arrayI4AABBLj4EEEEvRT_17TransferMetaFlags
C$a:__ZN18UnityPropertySheet8TransferI19StreamedBinaryWriteILb0EEEEvRT_
TPf:_TlsServerCertificate_checkServerIdentity_m3836435780
tha:__ZNSt3__26__treeINS_12__value_typeIiN11TypeManager18TypeCallbackStructEEENS_19__map_value_compareIiS4_NS_4lessIiEELb1EEENS_9allocatorIS4_EEE7destroyEPNS_11__tree_nodeIS4_PvEE
ORe:_PKCS12_Decrypt_m2353135969
Fzi:_Color32_ToString_m685380321
Zed:__ZN13dynamic_arrayIS_I8Vector2fLj4EELj4EE9push_backERKS1_
OPc:__ZN16PhysicsManager2D42RegisterTransformChangeInterestForColliderEP10Collider2D
FFe:_Array_Sort_TisRuntimeObject_m3309514378_gshared
iNd:_PointerEventData_get_pointerPress_m880101744
Ooa:__ZL19GetCameraTargetRectRK6Camerabb
gpd:__ZN11UnityEngine7Connect17XRDeviceInfoEventD0Ev
XWh:_Transform_1_BeginInvoke_m1786442111_gshared
SXe:_Int32_GetFormatException_m1729046182
XNa:__ZN13dynamic_arrayIN10GameObject13ComponentPairELj4EE6insertEPS1_RKS1_
Wqf:_Collection_1_get_Count_m3834276648_gshared
Q2:__ZN21UnityDefaultAllocatorI17LowLevelAllocatorE10DeallocateEPv
Cv:__ZN15PackedIntVector8TransferI14SafeBinaryReadEEvRT_
$dh:_FieldInfo_get_IsLiteral_m267898096
DXg:__ZL84Canvas_t209405766_CustomAttributesCacheGenerator_Canvas_get_isRootCanvas_m3746337338P21CustomAttributesCache
ulh:__Z45RuntimeInvoker_RuntimeObject_Int64_t909078037PFvvEPK10MethodInfoPvPS4_
TSf:_SslStreamBase_EndNegotiateHandshake_m1732321201
tXh:_Transform_1_BeginInvoke_m1167293475_gshared
_Q:__ZN13AudioListener8DoUpdateEv
vCc:__ZN5Unity9rapidjson13GenericReaderINS0_4UTF8IcEES3_13JSONAllocatorE9ParseTrueILj1ENS0_25GenericInsituStringStreamIS3_EENS0_15GenericDocumentIS3_S4_S4_EEEEvRT0_RT1_
ife:__Z13bankers_roundd
ohb:__ZN14SafeBinaryRead8TransferI5RectTIfEEEvRT_PKc17TransferMetaFlags
vi:_emscripten_glGenFramebuffers
qce:_Hashtable_CopyTo_m2778915805
oha:__ZN17BaseObjectManager16StaticInitializeEPv
Y7g:_ConstructorBuilder_get_IsCompilerContext_m2796899803
Pye:_Array_IndexOf_TisUIVertex_t1204258818_m613887160_gshared
hnb:__ZNSt3__26vectorIN9ShaderLab26SerializedShaderDependencyENS_9allocatorIS2_EEE26__swap_out_circular_bufferERNS_14__split_bufferIS2_RS4_EE
JSd:_FloatTween_GetDuration_m1757342579_AdjustorThunk
Jfe:_DateTime_CoreParse_m2014268103
rli:_ResourceSet_Dispose_m2968479859
bGa:__ZN9Behaviour23VirtualRedirectTransferER17RemapPPtrTransfer
qnd:__ZN21UnityAnalyticsManager23VirtualRedirectTransferER19StreamedBinaryWriteILb0EE
LEc:__Z18Transfer_BlittableI9JSONWriteLb0EyEvRK29SerializationCommandArgumentsR31RuntimeSerializationCommandInfo
MZa:__ZN13RenderTexture15ThreadedCleanupEv
Txe:_Array_BinarySearch_TisRuntimeObject_m3361740551_gshared
s1a:__ZN12CubemapArray23VirtualRedirectTransferER14SafeBinaryRead
hBi:_DrivenRectTransformTracker_Clear_m4190599786
qf:___cxa_free_exception
iEf:_ReadOnlyCollection_1_System_Collections_IList_Add_m616574295_gshared
TXe:_Int32_ProcessTrailingWhitespace_m2812079777
Qoa:__ZN18ProceduralMaterial9ReloadAllEbb
Euc:__Z43RectTransform_CUSTOM_INTERNAL_set_sizeDeltaP12Il2CppObjectRK13Vector2fIcall
PXf:_WebProxy__ctor_m3679722173
jbi:_InternalEnumerator_1_Dispose_m2743309309_AdjustorThunk
qKj:__ZN15dense_hashtableINSt3__24pairIK10KeyWrapperINS1_IPKcS4_EEEiEES6_24NamespaceAndNamePairHashN14dense_hash_mapIS6_iS9_NS6_14EqualsComparerI26NamespaceAndNamePairEqualsEENS0_9allocatorIS8_EEE9SelectKeyESD_SF_E6insertERKS8_
vGa:__ZN24GenerateTypeTreeTransfer18BeginArrayTransferEPKcS1_Ri17TransferMetaFlags
Wra:__Z16DecompressCrunchPKhRjR13TextureFormatiiii18MemLabelIdentifier
Cgd:__ZZN15TilemapRenderer15InitializeClassEvEN36FunctorImpl_159kOnTilemapTileChanged4CallEPviR11MessageData
nof:_List_1__ctor_m2082969060_gshared
qm:___syscall51
um:___syscall54
aLj:__ZNSt3__26__treeINS_12__value_typeIP24Il2CppReflectionAssemblyPvEENS_19__map_value_compareIS3_S5_NS_4lessIS3_EELb1EEENS_9allocatorIS5_EEE12__find_equalIS3_EERPNS_16__tree_node_baseIS4_EESH_RKT_
M7i:__ZL25UnresolvedVirtualCall_210P12Il2CppObjectiiPK10MethodInfo
esb:__ZN9ShaderLab9SubShader19CreateFromSubShaderERKS0_
PXg:__ZL84Canvas_t209405766_CustomAttributesCacheGenerator_Canvas_get_targetDisplay_m150918273P21CustomAttributesCache
WFb:__Z18Transfer_BlittableI19StreamedBinaryWriteILb0EELb1EjEvRK29SerializationCommandArgumentsR31RuntimeSerializationCommandInfo
$I:__ZNK8Animator20IsAnyRendererVisibleEv
S8c:_cff_builder_add_point1
kLj:__ZN6il2cpp2vm5Image21GetCachedResourceDataEPK11Il2CppImageRKNSt3__212basic_stringIcNS5_11char_traitsIcEENS5_9allocatorIcEEEE
JVa:__ZN4Mesh10CreateMeshEv
Gth:__Z54RuntimeInvoker_TimeSpan_t3430258949_Double_t4078015681PFvvEPK10MethodInfoPvPS4_
WAe:_Array_InternalArray__ICollection_Add_TisUInt32_t2149682021_m2629016323_gshared
txb:__Z18Transfer_BlittableI14SafeBinaryReadLb0E10ColorRGBAfEvRK29SerializationCommandArgumentsR31RuntimeSerializationCommandInfo
Aa:invoke_iiiiiiiiii
XY:__ZN11AudioSource25GetNumExtensionPropertiesEv
cX:__ZNK7Texture10GetVRUsageEv
ACe:_Array_InternalArray__Insert_TisKeyValuePair_2_t888819835_m975554221_gshared
Zph:__Z59RuntimeInvoker_RuntimeObject_Int64_t909078037_RuntimeObjectPFvvEPK10MethodInfoPvPS4_
Pjb:__ZN18LoadSceneOperation19IntegrateTimeSlicedEi
Tig:_Scheduler_SchedulerThread_m2209572785
TKe:_SortKeyBuffer_GetResultAndReset_m2516956577
NVg:__ZL79Event_t3028476042_CustomAttributesCacheGenerator_Event_get_character_m788279814P21CustomAttributesCache
K8b:__ZN10FileSystem19SetCurrentDirectoryERKN4core12basic_stringIcNS0_20StringStorageDefaultIcEEEE
K_i:_ObjectPool_1_get_countAll_m4217365918_gshared
Waa:__ZN16ScriptingManager24NotifyScriptCacheReleaseEi
PKg:__ZL85UriParser_t1012511323_CustomAttributesCacheGenerator_UriParser_OnRegister_m4010407891P21CustomAttributesCache
ywg:__ZL63UnmanagedMemoryStream_t822875729_CustomAttributesCacheGeneratorP21CustomAttributesCache
Eqc:__Z47Register_UnityEngine_Coroutine_ReleaseCoroutinev
dKi:_PlayableBehaviour__ctor_m1589016632
LR:__ZN15AudioReverbZone13SetFMODValuesEv
v7:__ZL19StaticDestroyShaderPv
fe:_glRenderbufferStorageMultisample
F5f:_SoapTypeAttribute_get_XmlTypeName_m2546866572
BLi:_Ray_GetPoint_m2427899009
vE:__ZN23AnimationPlayableOutput17SetTargetAnimatorEP8Animator
xAf:_ReadOnlyCollection_1_System_Collections_IList_get_IsFixedSize_m158012227_gshared
gGc:__ZN9JSONWrite8TransferI13dynamic_arrayIN4math12int3_storageELj4EEEEvRT_PKc17TransferMetaFlags
_Ii:_X509Chain__ctor_m1113875360
OAb:__Z35Transfer_Blittable_SingleValueFieldI14SafeBinaryReadfEvRT_R17GeneralMonoObjectRK23StaticTransferFieldInfo
mQf:_TlsServerHello_processProtocol_m1241336522
eJg:__ZL79ModulusRing_t80355992_CustomAttributesCacheGenerator_ModulusRing_Pow_m661630322P21CustomAttributesCache
$ue:_Array_InternalArray__ICollection_Remove_TisKeyValuePair_2_t888819835_m1287715465_gshared
x9h:_InternalEnumerator_1_System_Collections_IEnumerator_Reset_m324760031_AdjustorThunk
Qpi:_ContextAttribute_IsContextOK_m3281216012
j4e:_PathTooLongException__ctor_m3212099251
Ifk:_pthread_cond_broadcast__wrapper
s9f:_ObjectManager_RaiseDeserializationEvent_m1611173032
ax:__ZN17PackedFloatVector8TransferI18StreamedBinaryReadILb0EEEEvRT_
iNg:__ZL88Screen_t786852042_CustomAttributesCacheGenerator_Screen_t786852042____width_PropertyInfoP21CustomAttributesCache
u2a:__ZN7Cubemap23VirtualRedirectTransferER17RemapPPtrTransfer
zsc:__Z37Register_UnityEngine_Screen_get_widthv
rUd:_DropdownItem_get_image_m2752143412
Y4i:__ZL24UnresolvedVirtualCall_60P12Il2CppObjectaPK10MethodInfo
Akc:__ZN22BlockMemoryCacheWriter11GetPathNameEv
SVd:_Graphic_Rebuild_m2617722358
loc:__ZN23TransformChangeDispatch38CheckAndClearChangedForMultipleSystemsEyP19ProfilerInformation
jzg:__ZL86SafeHandle_t2733794115_CustomAttributesCacheGenerator_SafeHandle_SetHandle_m1980208835P21CustomAttributesCache
Qle:_DateTime_ToString_m3108726445_AdjustorThunk
I_:__ZN19CloudServiceHandlerD2Ev
_He:_Array_InternalArray__get_Item_TisTableRange_t2011406615_m602485977_gshared
Z_d:_InputField_Append_m2623574152
gUe:_ApplicationException__ctor_m1120437222
Zfh:_MonoMethod__ctor_m4091684020
ip:stackAlloc
Xqc:__Z44Camera_CUSTOM_INTERNAL_CALL_ScreenPointToRayP12Il2CppObjectRK8Vector3fR3Ray
NLa:__ZN25SingleBlockMemoryFileData4LockEPPv
zub:__ZN12HandlerChain5TouchER13FileEntryData
Ybh:_MethodBuilder_GetHashCode_m1713271764
GQc:__ZNK16CircleCollider2D22GetCompositeCapabilityEv
Okc:__ZN15dense_hashtableINSt3__24pairIK12TriangleEdgeiEES2_16TriangleEdgeHashN14dense_hash_mapIS2_iS5_NS0_8equal_toIS2_EENS0_9allocatorIS4_EEE9SelectKeyES8_SA_E12resize_deltaEjj
DDh:__Z50RuntimeInvoker_Boolean_t3825574718_Link_t865133271PFvvEPK10MethodInfoPvPS4_
brf:_Collection_1_IsSynchronized_m1319022347_gshared
aKe:_MSCompatUnicodeTable_GetResource_m3816716847
Ksc:__Z32RectOffset_Get_Custom_PropBottomP12Il2CppObject
d2d:_Array_CreateInstance_m15016505
Ozb:__ZNSt3__26vectorI17AnimationCurveTplIfE13stl_allocatorIS2_L18MemLabelIdentifier1ELi16EEE6assignINS_11__wrap_iterIPS2_EEEENS_9enable_ifIXaasr21__is_forward_iteratorIT_EE5valuesr16is_constructibleIS2_NS_15iterator_traitsISC_E9referenceEEE5valueEvE4typeESC_SC_
P1j:_stat
Xyd:_RijndaelTransform_Decrypt128_m1282993908
_aj:_Canvas_get_isRootCanvas_m3746337338
Bp:__ZN11Quaternionf8TransferI14SafeBinaryReadEEvRT_
_Be:_Array_InternalArray__ICollection_CopyTo_TisUInt16_t986882611_m3228377237_gshared
iff:_List_1_Add_m4157722533_gshared
P1g:__ZL68Navigation_t1571958496_CustomAttributesCacheGenerator_m_SelectOnDownP21CustomAttributesCache
hOc:__ZN15b2DistanceJoint23InitVelocityConstraintsERK12b2SolverData
rRb:__ZNSt3__218__insertion_sort_3IRNS_4lessIN22BuiltinResourceManager8ResourceEEEPS3_EEvT0_S7_T_
pyd:_RC2_set_KeySize_m2015782960
ma:invoke_iiiiiiiiiiii
Opf:_Queue_1_GetEnumerator_m2842671368_gshared
Zvf:_Collection_1_SetItem_m3715941382_gshared
TUe:_NumberFormatInfo_get_CurrencyGroupSeparator_m2480433019
CRe:_StrongName_get_PublicKey_m3777577320
Nli:_RuntimeCompatibilityAttribute__ctor_m1331212510
YBi:_PersistentCallGroup_Initialize_m3729167844
zU:__ZN10AudioMixer12RebindOutputEv
aEj:__ZNK15dense_hashtableINSt3__24pairIK10KeyWrapperIP11Il2CppClassES4_EES5_N6il2cpp8metadata16SZArrayClassHashEN14dense_hash_mapIS5_S4_SA_NS5_14EqualsComparerINS9_19SZArrayClassCompareEEENS0_9allocatorIS7_EEE9SelectKeyESE_SG_E5beginEv
oij:__ZN6il2cpp2vm17SetupFieldsLockedEP11Il2CppClassRKNS_2os12FastAutoLockE
aV:__ZN11AudioSourceD0Ev
Pgf:_List_1_System_Collections_ICollection_CopyTo_m1530390632_gshared
Exf:_Collection_1_System_Collections_IEnumerable_GetEnumerator_m1452790461_gshared
Xai:_InternalEnumerator_1_System_Collections_IEnumerator_Reset_m3194282029_AdjustorThunk
Rvb:__ZN16MemoryFileSystem4NameEv
dif:__ZN21InterfaceFuncInvoker0I18Color32_t874517518E6InvokeEjP11Il2CppClassP12Il2CppObject
zKd:_BaseRaycaster_OnEnable_m3641767070
gof:_List_1_ToArray_m2810936944_gshared
n7e:_MissingMemberException_get_Message_m2763732423
YHf:_PrimeGeneratorBase_get_PrimalityTest_m308005118
Trg:__ZL71Enum_t2459695545_CustomAttributesCacheGenerator_Enum_Format_m2294492821P21CustomAttributesCache
oxc:__Z13SetCopyBufferRKN4core12basic_stringIcNS_20StringStorageDefaultIcEEEE
vgf:_List_1_CheckIndex_m2328469916_gshared
uth:__Z75RuntimeInvoker_RuntimeObject_RuntimeObject_Decimal_t724701077_RuntimeObjectPFvvEPK10MethodInfoPvPS4_
Lof:_List_1_AddRange_m3345533268_gshared
Rmd:__ZN14UnityAnalyticsD2Ev
Woc:__Z42ScriptingGetComponentsOfTypeFromGameObjectRK26ScriptingGetComponentsArgs
STi:_GUI_set_changed_m3199207797
ipf:_List_1_get_Item_m3157283227_gshared
Yxe:__ZN21InterfaceFuncInvoker2Ii38CustomAttributeNamedArgument_t94157543S0_E6InvokeEjP11Il2CppClassP12Il2CppObjectS0_S0_
sVg:__ZL92AudioSource_t1135106623_CustomAttributesCacheGenerator_AudioSource_get_isPlaying_m1207358099P21CustomAttributesCache
$ie:_Convert_ToString_m2915777777
Z$a:__ZNSt3__27__sort4IRPFbRKNS_4pairIN9ShaderLab16FastPropertyNameEN18UnityPropertySheet11UnityTexEnvEEES8_EPS6_EEjT0_SD_SD_SD_T_
h8c:_cf2_hintmap_build
HRg:__ZL54PropertyName_t217228410_CustomAttributesCacheGeneratorP21CustomAttributesCache
b6c:_Line_Up
h9e:_MonoType_GetGenericTypeDefinition_m2363776160
Epf:_Queue_1__ctor_m1845245813_gshared
tOf:_Context_set_SentConnectionEnd_m2641458842
me:_emscripten_glBufferSubData
o5d:_Buffer_BlockCopyInternal_m2627156229
aCb:__Z18Transfer_BlittableI17RemapPPtrTransferLb1EyEvRK29SerializationCommandArgumentsR31RuntimeSerializationCommandInfo
LVd:_Graphic_set_material_m329335629
iKd:_ExecuteEvents_get_pointerExitHandler_m3250605428
Wta:__ZN6prcoreL12RemapGenericI15TexFormatRGB88817TexFormatARGB8888EEvPKNS_9InnerInfoE
_p:__Z17CalculateGlobalRS23TransformAccessReadOnly
vCh:__Z70RuntimeInvoker_DictionaryEntry_t3048875398_RuntimeObject_RuntimeObjectPFvvEPK10MethodInfoPvPS4_
Q8f:__ZN21InterfaceFuncInvoker1IP12Il2CppObject28StreamingContext_t1417235061E6InvokeEjP11Il2CppClassS1_S2_
CMe:_Kernel_multiByteDivide_m735279869
r1h:_Dictionary_2_ToTValue_m542772656_gshared
Osd:__ZN23UnityPurchasingSettings10InitializeER6Object
rig:_Thread_GetNewManagedId_internal_m3211695465
bgj:_CustomEventData_AddInt64_m890154679
tcj:_UISystemProfilerApi_EndSample_m3264820872
sra:__ZN17GenericDynamicVBO17DrawChunkInternalERK21DynamicVBOChunkHandle17ShaderChannelMaskS3_P17VertexDeclarationP16DrawBuffersRangeij
wvd:__ZN13RuntimeStaticINSt3__26vectorIN5physx25PxVehicleWheelQueryResultENS0_9allocatorIS3_EEEELb0EE16StaticInitializeEPv
sAb:__ZN14SafeBinaryRead21TransferSTLStyleArrayI13dynamic_arrayI9BoundsIntLj4EEEEvRT_17TransferMetaFlags
xmb:__ZN22MemoryCacherReadBlocks14LockCacheBlockEjPPhS1_
p4d:_Boolean_System_IConvertible_ToChar_m2637404801_AdjustorThunk
LHh:__Z55RuntimeInvoker_UICharInfo_t3056636800_Int32_t2071877448PFvvEPK10MethodInfoPvPS4_
wEd:_SecurityContext_Capture_m2535194991
tmg:_UInt16_System_IConvertible_ToSByte_m3044765342_AdjustorThunk
Es:__ZN15dense_hashtableINSt3__24pairIK7CurveIDjEES2_10hash_curveN14dense_hash_mapIS2_jS5_NS0_8equal_toIS2_EE13stl_allocatorIS4_L18MemLabelIdentifier1ELi16EEE9SelectKeyES8_SB_E12resize_deltaEjj
lqg:__ZL47Byte_t3683104436_CustomAttributesCacheGeneratorP21CustomAttributesCache
Mdj:_AnimationOffsetPlayable_GetHandle_m144943338_AdjustorThunk
iVb:__ZNK9GfxDevice26GetSinglePassStereoEyeMaskEv
psh:__Z66RuntimeInvoker_Void_t1841601450_Int64_t909078037_Int32_t2071877448PFvvEPK10MethodInfoPvPS4_
D$c:__ZN20TextRenderingPrivate8FontImpl16CacheFontForTextEPtiifjPK13dynamic_arrayINS_16TextFormatChangeELj4EE
pFh:__Z52RuntimeInvoker_Int32_t2071877448_Vector3_t2243707580PFvvEPK10MethodInfoPvPS4_
TEe:_Array_qsort_TisUIVertex_t1204258818_TisUIVertex_t1204258818_m512606409_gshared
ewd:__Z21ArrayElementTypeCheckP11Il2CppArrayPv
Mck:_emscripten_glTexSubImage2D__wrapper
AVf:_NameValueCollection_AsSingleString_m10599052
A$b:__ZN14qsort_internal30FindAndMovePivotToLastPositionIP21ForwardRenderPassDataiN23ForwardShaderRenderLoop18RenderObjectSorterILb0EEEEEvT_S6_T0_T1_
haf:_Object_InternalGetHashCode_m1371384246
SLh:_Navigation_get_defaultNavigation_m2185194207
ZXc:__ZN16PhysicsManager2D20WorldContactFilter2D13ShouldCollideEP9b2FixtureS2_
NZe:_Int32_System_IConvertible_ToSByte_m1449623243_AdjustorThunk
ATe:_AccessViolationException__ctor_m1270251537
Kmd:__Z42Register_UnityEngine_Canvas_get_rootCanvasv
rJi:_X509ExtensionCollection_IndexOf_m3972100651
Jyb:__Z14resize_trimmedINSt3__26vectorI8MonoPPtr13stl_allocatorIS2_L18MemLabelIdentifier1ELi16EEEEEvRT_j
Ve:_TTF_RenderText_Solid
nng:_UInt32_System_IConvertible_ToInt64_m3091851828
q7e:_MissingMethodException__ctor_m3898429715
R6f:_RemotingConfiguration_RegisterClientProviderTemplate_m514821425
rVh:_Enumerator_System_Collections_IEnumerator_Reset_m3085583937_gshared
Cha:__ZN15dense_hashtableINSt3__24pairIKPKcPK4RTTIEES3_N11TypeManager23ConstCharPtrHashFunctorEN14dense_hash_mapIS3_S7_SA_NS9_19ConstCharPtrEqualToE13stl_allocatorIS8_L18MemLabelIdentifier7ELi16EEE9SelectKeyESC_SF_E15insert_noresizeERKS8_
NQe:_RSAManaged_ExportParameters_m2873993187
Jee:_Convert__cctor_m926133987
_pf:_Enumerator__ctor_m2816143215_AdjustorThunk
mtd:__ZN11UnityEngine7Connect16PersistentValuesC2Ev
B_f:_X509Chain_FindParent_m404663796
ptj:_il2cpp_field_get_parent
pEc:__Z18Transfer_BlittableI9JSONWriteLb0E5RectTIiEEvRK29SerializationCommandArgumentsR31RuntimeSerializationCommandInfo
p7e:_MissingMemberException__ctor_m2164043278
Eej:__ZL7log2_32j
Gtf:_Collection_1_CopyTo_m2282972507_gshared
RPd:_BaseVertexEffect__ctor_m358261091
g1f:_Interpreter_GetGroupInfo_m312421921
Zxa:__Z15IsIEEE754Format14GraphicsFormat
oCb:__Z19TransferField_ArrayI17RemapPPtrTransfer27Converter_UnityEngineObjectEvRK23StaticTransferFieldInfoR31RuntimeSerializationCommandInfoRT0_
$a:invoke_iifiii
E_b:__ZN19ShaderPropertySheet24SetTextureFromTextureRefERK23FastTexturePropertyNamePK10TextureRef
tCg:__ZL53HMACSHA384_t3026079344_CustomAttributesCacheGeneratorP21CustomAttributesCache
p$e:_NumberFormatter_InitDecHexDigits_m1612588520
Pla:__ZN13GfxDeviceGLES15UploadTexture2DE9TextureID16TextureDimensionPKhiii14GraphicsFormati18TextureUploadFlags16TextureUsageMode
bGd:_Single_GetHashCode_m3102305584_AdjustorThunk
YWg:__ZL77GUISkin_t1436893342_CustomAttributesCacheGenerator_m_horizontalScrollbarThumbP21CustomAttributesCache
KGe:_Array_swap_TisVector3_t2243707580_m3036634038_gshared
CT:__ZN4FMOD6System9createDSPEP20FMOD_DSP_DESCRIPTIONPPNS_3DSPE
TD:__ZN7mecanim9animation26DestroyControllerWorkspaceEPNS0_19ControllerWorkspaceERNS_6memory9AllocatorE
exi:_UriParser_set_SchemeName_m3624672465
FP:__ZN4FMOD8ChannelI11EndCallbackEv
_Bd:_ToBase64Transform_TransformBlock_m2201454137
wAc:__ZN8GUIStyle14SetDefaultFontEPN13TextRendering4FontE
Kch:_OpCode_get_StackBehaviourPop_m3787015663_AdjustorThunk
Ori:_PatternCompiler_EmitCount_m3609178511
t6a:__ZN15QualitySettings23VirtualRedirectTransferER24GenerateTypeTreeTransfer
SZg:__ZL89PointerEventData_t1599784723_CustomAttributesCacheGenerator_U3CpositionU3Ek__BackingFieldP21CustomAttributesCache
juj:__ZN6il2cpp2os10FileHandleC2Ev
Nrh:__Z48RuntimeInvoker_SByte_t454417549_SByte_t454417549PFvvEPK10MethodInfoPvPS4_
jmh:__Z65RuntimeInvoker_Void_t1841601450_SByte_t454417549_SByte_t454417549PFvvEPK10MethodInfoPvPS4_
LIh:__Z54RuntimeInvoker_KeyValuePair_2_t888819835_RuntimeObjectPFvvEPK10MethodInfoPvPS4_
IIh:__Z65RuntimeInvoker_DictionaryEntry_t3048875398_IntPtr_t_RuntimeObjectPFvvEPK10MethodInfoPvPS4_
$Dg:__ZL84Encoding_t663144255_CustomAttributesCacheGenerator_Encoding_GetByteCount_m4104502544P21CustomAttributesCache
QLd:__ZN23InterfaceActionInvoker1IP25AxisEventData_t1524870173E6InvokeEjP11Il2CppClassP12Il2CppObjectS1_
V5f:_ObjRef_set_TypeInfo_m1661789743
_kj:__ZN30dense_hashtable_const_iteratorINSt3__24pairIK10KeyWrapperIPK19Il2CppGenericMethodEPK26Il2CppGenericMethodIndicesEES6_N6il2cpp8metadata23Il2CppGenericMethodHashEN14dense_hash_mapIS6_SA_SE_NS6_14EqualsComparerINSD_26Il2CppGenericMethodCompareEEENS0_9allocatorISB_EEE9SelectKeyESI_SK_EppEv
uUf:_HybridDictionary_Add_m1037587952
g0c:_UNITY_FT_Request_Metrics
wZa:__ZN7Texture8TransferI18StreamedBinaryReadILb0EEEEvRT_
OIj:__ZN6il2cpp6icalls8mscorlib6System10Reflection10MonoMethod29get_IsGenericMethodDefinitionEP22Il2CppReflectionMethod
uFj:__ZN6il2cpp2vm6Thread21AllocThreadStaticDataEi
Bui:__ZN23InterfaceActionInvoker4IiibP19LinkRef_t2090853131E6InvokeEjP11Il2CppClassP12Il2CppObjectiibS1_
Mfe:_DateTime_YearMonthDayFormats_m4204607055
rRd:_ColorBlock_set_disabledColor_m3502887543_AdjustorThunk
CRj:__ZN30dense_hashtable_const_iteratorINSt3__24pairIK10KeyWrapperIPK19Il2CppGenericMethodEP10MethodInfoEES6_N6il2cpp8metadata23Il2CppGenericMethodHashEN14dense_hash_mapIS6_S9_SD_NS6_14EqualsComparerINSC_26Il2CppGenericMethodCompareEEENS0_9allocatorISA_EEE9SelectKeyESH_SJ_EppEv
iY:__Z13RegisterClassI13AudioListenerEvv
gHh:__Z48RuntimeInvoker_Link_t865133271_Int32_t2071877448PFvvEPK10MethodInfoPvPS4_
v$i:_Aes__ctor_m4020215067
ODc:__Z18Transfer_BlittableI9JSONWriteLb0E8Vector3fEvRK29SerializationCommandArgumentsR31RuntimeSerializationCommandInfo
iea:__ZN13RuntimeStaticI17UniqueIDGeneratorLb0EE13StaticDestroyEPv
Uf:_emscripten_glUniform4i
ACg:__ZL46MD5_t1507972490_CustomAttributesCacheGeneratorP21CustomAttributesCache
QVd:_Graphic_OnDisable_m2360886868
P_i:_ObjectPool_1_Release_m1615270002_gshared
ef:_emscripten_glUniform4f
Aj:___unlock
vUj:_GC_default_oom_fn
wJa:__ZN15dense_hashtableINSt3__24pairIKN4core12basic_stringIcNS2_20StringStorageDefaultIcEEEEP20ArchiveStorageReaderEES6_20StringHash32FunctionIS6_EN14dense_hash_mapIS6_S9_SC_NS0_8equal_toIS6_EE13stl_allocatorISA_L18MemLabelIdentifier55ELi16EEE9SelectKeyESF_SI_ED2Ev
vPh:_ScrollRect_InternalCalculateOffset_m3083065267
Vdi:_InternalEnumerator_1_System_Collections_IEnumerator_Reset_m1561424184_AdjustorThunk
c7b:__ZN13sorted_vectorINSt3__24pairIN4core12basic_stringIcNS2_20StringStorageDefaultIcEEEES6_EEN10vector_mapIS6_S6_27compare_tstring_insensitiveIS6_E13stl_allocatorIS7_L18MemLabelIdentifier38ELi16EEE13value_compareESD_E9erase_oneIS6_EEjRKT_
Jae:_Comparer_Compare_m4132969818
LV:__ZN20SoundChannelInstance19setReverbPropertiesEP29FMOD_REVERB_CHANNELPROPERTIES
A$d:_U3CCaretBlinkU3Ec__Iterator0_System_Collections_Generic_IEnumeratorU3CobjectU3E_get_Current_m3541562536
gii:_InternalEnumerator_1__ctor_m2808001655_AdjustorThunk
$ei:_InternalEnumerator_1_System_Collections_IEnumerator_Reset_m2571770313_AdjustorThunk
eeh:_FieldInfo_get_UMarshal_m1934544188
f3h:_DefaultComparer_Equals_m2171836276_gshared
eia:__ZN13RuntimeStaticI18SpriteAtlasManagerLb0EE13StaticDestroyEPv
KHj:__ZN6il2cpp2vm9Exception18GetFormatExceptionEPKc
xAg:__ZL55IMessageSink_t2189618969_CustomAttributesCacheGeneratorP21CustomAttributesCache
Xwc:__Z40Register_UnityEngine_Transform_IsChildOfv
rEi:_Mathf_Floor_m484333823
B8d:_ArrayList_Sort_m923359189
rgd:__ZN15dense_hashtableINSt3__24pairIKN4math12int2_storageEPN19TilemapRendererJobs18TilemapRenderChunkEEES3_NS5_22TilemapRenderChunkHashEN14dense_hash_mapIS3_S7_S9_NS0_8equal_toIS3_EE13stl_allocatorIS8_L18MemLabelIdentifier95ELi16EEE9SelectKeyESC_SF_E12maybe_shrinkEv
UCi:_Gradient_Init_m3042650694
Lrc:__Z45Register_UnityEngine_Display_GetSystemExtImplv
ZDa:__ZN9GfxDevice31DrawIndexedNullGeometryIndirectE16GfxPrimitiveTypeP9GfxBuffer15ComputeBufferIDj
IA:__ZN7mecanim9animation23TransformValuesFromClipEiiiRKNS_10ValueArrayERKNS0_10ClipOutputERKNS0_12ClipBindingsERS1_RNS_14ValueArrayMaskEb
VSe:_X509Certificate_GetSubjectName_m2120755276
Pia:__ZN30dense_hashtable_const_iteratorINSt3__24pairIKN4core12basic_stringIcNS2_20StringStorageDefaultIcEEEE13dynamic_arrayI4PPtrI6SpriteELj4EEEES6_20StringHash32FunctionIS6_EN14dense_hash_mapIS6_SC_SF_NS0_8equal_toIS6_EE13stl_allocatorISD_L18MemLabelIdentifier81ELi16EEE9SelectKeyESI_SL_EC2EPK15dense_hashtableISD_S6_SF_SN_SI_SL_EPKSD_SU_b
Bej:__ZL17log2withScale_128yyi
EOg:__ZL58ResourceRequest_t2560315377_CustomAttributesCacheGeneratorP21CustomAttributesCache
Sid:__ZNSt3__218__insertion_sort_3IRNS_6__lessIN2UI14DepthSortEntryES3_EEPS3_EEvT0_S7_T_
Zdc:__ZN2UI13RectTransform15InitializeClassEv
Bfa:__ZN13RuntimeStaticI15DirectorManagerLb0EE16StaticInitializeEPv
KHc:__ZN8JSONRead8TransferI23ManagedObjectTransfererEEvRT_PKc17TransferMetaFlagsb
sig:_Thread_get_ManagedThreadId_m1995754972
TJd:_BaseInput_get_touchCount_m998724785
dgb:__ZN11TimeManager6UpdateEv
$Ii:_X509Chain_get_Status_m2726750609
r$d:_InputField_get_preferredWidth_m3185355225
Gwf:_Collection_1_RemoveItem_m1406181352_gshared
jig:_Thread_SetState_m3198426726
V8d:_ArrayListWrapper_Contains_m1158465965
xGe:_Array_swap_TisColor32_t874517518_m2203309732_gshared
SHf:_BigInteger_op_LessThan_m3825358479
W1j:_fflush
kQa:__ZN17LightProbeContext4InitERK16LightmapSettingsRK14RenderSettings
D4d:_Convert_ToInt32_m55151042
$$j:__GLOBAL__sub_I_Error_cpp
Y2i:_AudioSource_INTERNAL_CALL_ReadExtensionPropertyName_m3694806886
Zti:_Alternation_GetWidth_m4218808325
ZJi:_PlayableAsset__ctor_m1402632843
D9a:__ZN9Texture3DD2Ev
tSa:__ZN10ColorRGBAf8TransferI19StreamedBinaryWriteILb0EEEEvRT_
Y1c:_ft_bitmap_glyph_bbox
HVf:_TypeConverterAttribute__ctor_m4061167050
Bpf:_Enumerator_MoveNext_m3315718998_gshared
cOj:__ZNSt3__26vectorI20Il2CppStackFrameInfoNS_9allocatorIS1_EEE7reserveEj
KQg:__ZL75SpriteAtlasManager_t308281693_CustomAttributesCacheGenerator_atlasRequestedP21CustomAttributesCache
uK:__ZN14SafeBinaryRead21TransferSTLStyleArrayI22OffsetPtrArrayTransferI9OffsetPtrIN7mecanim12statemachine21SelectorStateConstantEEEEEvRT_17TransferMetaFlags
l1h:_Dictionary_2_ContainsValue_m2760581195_gshared
eWj:_GC_reclaim_uninit
R2b:__Z34ProcessIndexListIsNodeVisibleStep2RK22SceneCullingParametersPK9SceneNodePK4AABBR9IndexList
hOb:__ZN10MonoScriptD2Ev
lua:__ZN6prcoreL12RemapGenericI17TexFormatARGB888817TexFormatBGRA8888EEvPKNS_9InnerInfoE
Dw:__ZN18StreamedBinaryReadILb0EE8TransferINSt3__26vectorIN13AnimationClip12Vector3CurveE13stl_allocatorIS5_L18MemLabelIdentifier26ELi16EEEEEEvRT_PKc17TransferMetaFlags
wed:__ZN17TileAnimationData8TransferI18StreamedBinaryReadILb0EEEEvRT_
CRh:_Slider_OnRectTransformDimensionsChange_m4109401172
LXf:_WebHeaderCollection_Get_m3391944907
htc:__Z39Input_CUSTOM_INTERNAL_get_mousePositionP8Vector3f
c5c:_tt_cmap13_char_next
h7f:_ServerIdentity__ctor_m1576469955
bsb:__ZN9ShaderLab4Pass16SetupPassOptionsEv
hh:_JS_Sound_ReleaseInstance
YQg:__ZL72IL2CPPStructAlignmentAttribute_t130316838_CustomAttributesCacheGeneratorP21CustomAttributesCache
Oka:__ZN13GfxDeviceGLES19DrawBuffersIndirectEP9GfxBufferPK18VertexStreamSourceiP17VertexDeclaration17ShaderChannelMask16GfxPrimitiveType15ComputeBufferIDj
flf:_List_1_Shift_m439051997_gshared
ZSd:_DefaultControls_CreateScrollbar_m770089625
wmi:_InAttribute__ctor_m1401060713
xbk:_emscripten_glPixelStorei__wrapper
rWc:__Z20GetRigidbodyChildrenRK9Transform13dynamic_arrayIP11Rigidbody2DLj4EE
pne:_Decimal_System_IConvertible_ToDecimal_m1541432424_AdjustorThunk
qLb:__Z29Transfer_Blittable_ArrayFieldI18StreamedBinaryReadILb0EEaEvRT_R9ArrayInfoRK23StaticTransferFieldInfo
Hm:FUNCTION_TABLE_diddi
Wcg:_EncoderExceptionFallbackBuffer__ctor_m3538569575
$uc:__Z26Material_CUSTOM_SetIntImplP12Il2CppObjectii
RRg:__ZL108StackTraceUtility_t1881293839_CustomAttributesCacheGenerator_StackTraceUtility_ExtractStackTrace_m2375126700P21CustomAttributesCache
BXe:_Int16_System_IConvertible_ToSingle_m3277935657_AdjustorThunk
crj:__ZNSt3__26vectorIPK10MethodInfoNS_9allocatorIS3_EEE21__push_back_slow_pathIRKS3_EEvOT_
mid:__ZNK2UI14CanvasRenderer22GetTypeVirtualInternalEv
pqi:_InternalRemotingServices__cctor_m3821625125
Xsc:__Z42Register_UnityEngine_RectOffset_get_bottomv
pfg:_StringBuilder_Insert_m3322917127
tdd:__ZNK7Tilemap11CellToWorldERKN4math5_int3E
o2h:_DefaultComparer_Equals_m724229128_gshared
Bkf:_List_1__cctor_m1337542316_gshared
gWh:_Enumerator_VerifyCurrent_m1702320752_AdjustorThunk
_6h:_ArrayReadOnlyList_1_Clear_m2539474626_gshared
V2f:__ZN21InterfaceFuncInvoker0IP24ObjectU5BU5D_t3614634134E6InvokeEjP11Il2CppClassP12Il2CppObject
tAb:__ZN9BoundsInt8TransferI14SafeBinaryReadEEvRT_
Bhe:_Convert_ToDouble_m3520060872
Rak:_emscripten_glUniform1f__wrapper
I5j:dynCall_di
LRf:_SslCipherSuite_ComputeServerRecordMAC_m1876572367
mOg:__ZL90AnimationCurve_t3306541151_CustomAttributesCacheGenerator_AnimationCurve__ctor_m3808882547P21CustomAttributesCache
vDc:__Z28RegisterModule_JSONSerializev
yhg:_Interlocked_CompareExchange_m3227034792
Qwd:_HashAlgorithm_get_Hash_m931854461
Stj:_il2cpp_monitor_enter
kji:_DefaultComparer_Compare_m3564013922_gshared
dtb:__ZN2UI13RectTransform8TransferI14SafeBinaryReadEEvRT_
HEc:__Z35Transfer_Blittable_FixedBufferFieldI9JSONWriteaEvRK29SerializationCommandArgumentsR31RuntimeSerializationCommandInfo
Uyh:__Z63RuntimeInvoker_RuntimeObject_Ray_t2469606224_Single_t2076509932PFvvEPK10MethodInfoPvPS4_
wmc:__Z20IsHumanControllingUsv
EUb:__ZNK19RenderEventsContext21ExecuteCommandBuffersEijR17ShaderPassContextR15RenderNodeQueueP19ProfilerInformationi
ivf:_Collection_1_RemoveAt_m3454169520_gshared
F3:__ZNK20DynamicHeapAllocatorI17LowLevelAllocatorE10GetPtrSizeEPKv
Iu:__ZN7mecanim5human9HumanGoal8TransferI14SafeBinaryReadEEvRT_
MPi:_Texture2D_GetPixelBilinear_m3514551520
dB:__ZN17AnimationPlayable16AllocateBindingsEPK35AnimationPlayableEvaluationConstant
KTd:_Dropdown_set_value_m2945561009
Fka:__ZN13GfxDeviceGLES17DestroyGpuProgramEPK10GpuProgram
LUe:_GregorianCalendar_GetMonth_m523739832
Twb:__Z44InitializeTransferFunctionScriptingTraitsForI18StreamedBinaryReadILb0EEEvR31TransferFunctionScriptingTraits
Q_b:__ZNSt3__218__insertion_sort_3IR23CompareReflectionProbesP31RuntimeReflectionProbeBlendInfoEEvT0_S5_T_
yCb:__ZN12NativeBufferI27Converter_SimpleNativeClassI8GradientEE15SetupForWritingER9ArrayInfo
ria:__ZNSt3__213__stable_sortIRNS_4lessIN4core12basic_stringIcNS2_20StringStorageDefaultIcEEEEEENS_11__wrap_iterIPS6_EEEEvT0_SC_T_NS_15iterator_traitsISC_E15difference_typeEPNSF_10value_typeEi
ZAf:_ReadOnlyCollection_1_System_Collections_ICollection_get_IsSynchronized_m2987885125_gshared
p5:__ZN12_GLOBAL__N_113StaticDestroyEPv
_We:_Guid_ToString_m51661589
f$h:_Dictionary_2__ctor_m1512192236_gshared
hSh:_Text_set_font_m1095513810
Cfk:_glUnmapBuffer__wrapper
Qke:_DateTime_System_IConvertible_ToUInt32_m1363211018_AdjustorThunk
KYd:_InputField_get_cachedInputTextGenerator_m881618486
cuc:__Z32Mesh_CUSTOM_ExtractArrayFromListP12Il2CppObject
D6g:_Binder_get_DefaultBinder_m965620943
a_g:__ZL87PointerEventData_t1599784723_CustomAttributesCacheGenerator_U3CbuttonU3Ek__BackingFieldP21CustomAttributesCache
nIc:__ZN8JSONRead21TransferSTLStyleArrayINSt3__26vectorI8Gradient13stl_allocatorIS3_L18MemLabelIdentifier1ELi16EEEEEEvRT_17TransferMetaFlags
ZOf:_SecurityParameters_Clear_m3409219757
Agb:__ZNSt3__218__insertion_sort_3IRNS_6__lessINS_4pairIPKN5Unity4TypeE7Hash128EES8_EEPS8_EEvT0_SC_T_
gEb:__ZN10RectOffset8TransferI24GenerateTypeTreeTransferEEvRT_
d3d:_SimpleEnumerator_get_Current_m482975946
A2j:_srand
JRc:__ZNK10Collider2D15GetAttachedBodyEv
sDb:__Z18Transfer_BlittableI24GenerateTypeTreeTransferLb1E5RectTIiEEvRK29SerializationCommandArgumentsR31RuntimeSerializationCommandInfo
eSa:__ZNSt3__24listI4PPtrI6CameraENS_9allocatorIS3_EEE6removeERKS3_
p8e:_MonoTypeInfo__ctor_m1398838196
Bid:__ZN2UI13CanvasManager19RemoveDirtyRendererEPNS_6CanvasEPNS_14CanvasRendererE
fxi:_UriParser_set_DefaultPort_m1159216960
jTh:_Toggle_Rebuild_m929023818
Zlj:__ZN15dense_hashtableI10KeyWrapperIPK17Il2CppGenericInstES4_N6il2cpp8metadata21Il2CppGenericInstHashEN14dense_hash_setIS4_S7_NS4_14EqualsComparerINS6_24Il2CppGenericInstCompareEEENSt3__29allocatorIS4_EEE8IdentityESB_SE_E12resize_deltaEjj
Xnc:__ZN8Material14DisableKeywordERKN4core12basic_stringIcNS0_20StringStorageDefaultIcEEEE
hzi:_CameraCallback_EndInvoke_m1254702166
Upd:__ZN11UnityEngine15PlatformWrapper25GetGraphicsRendererStringEv
eQg:__ZL97Transform_t3275118058_CustomAttributesCacheGenerator_Transform_INTERNAL_get_localScale_m275445901P21CustomAttributesCache
F_d:_InputField_KeyPressed_m3066588581
HQh:_Selectable_DoStateTransition_m539253088
hBd:_SHA512_Create_m439875055
m2:__ZN11UnityEngine15CloudWebService17WebFileDownloaderINS0_20WebRequestRestClientENS0_23WebRequestRestHeaderMapEED2Ev
Vb:invoke_vi
$Ad:_SHA384Managed_update_m2629600295
yPc:__ZNSt3__26vectorINS0_IN10ClipperLib8IntPointENS_9allocatorIS2_EEEENS3_IS5_EEE7reserveEj
WFc:__ZN9JSONWrite8TransferI13dynamic_arrayI9BoundsIntLj4EEEEvRT_PKc17TransferMetaFlags
Tb:invoke_vd
tb:invoke_vf
Sgi:_InternalEnumerator_1__ctor_m32322958_AdjustorThunk
Nca:__ZNK10GameObject8IsActiveEv
A9e:_NumberFormatter__cctor_m1641464619
lXg:__ZL67g_UnityEngine_PhysicsModule_Assembly_CustomAttributesCacheGeneratorP21CustomAttributesCache
cbg:_SByte_System_IConvertible_ToUInt32_m4256495110
xMd:_PointerEventData_set_eligibleForClick_m2036057844
Nxa:__ZN18GfxFramebufferGLES23SetupDefaultFramebufferEPP17RenderSurfaceBaseS2_N2gl6HandleILNS3_10ObjectTypeE9EEE
c2j:_mbsinit
eZg:__ZL70EventSystem_t3466835263_CustomAttributesCacheGenerator_m_FirstSelectedP21CustomAttributesCache
w7a:__ZN13ScreenManager18RequestOrientationE17ScreenOrientation
Nij:__ZN6il2cpp2vm5Class12SetupMethodsEP11Il2CppClass
soc:__Z39DeleteLastPathNameComponentWithAnySlashRKN4core12basic_stringIcNS_20StringStorageDefaultIcEEEE
wzc:__ZN10GUIManager14InitGUIManagerEv
rFg:__ZL62ApplicationException_t474868623_CustomAttributesCacheGeneratorP21CustomAttributesCache
a1g:__ZL68InputField_t1631627530_CustomAttributesCacheGenerator_m_KeyboardTypeP21CustomAttributesCache
NTh:_VerticalLayoutGroup_CalculateLayoutInputHorizontal_m497637066
UPd:_Button_get_onClick_m1595880935
i_i:_ListPool_1_Release_m3716853512_gshared
Mqh:__Z134RuntimeInvoker_Int32_t2071877448_RuntimeObject_Int32_t2071877448_Int32_t2071877448_RuntimeObject_Int32_t2071877448_Int32U26_t455636984PFvvEPK10MethodInfoPvPS4_
H3f:_MethodCall__ctor_m4106494862
Rmh:__Z167RuntimeInvoker_Void_t1841601450_SByte_t454417549_SByte_t454417549_SByte_t454417549_SByte_t454417549_SByte_t454417549_SByte_t454417549_SByte_t454417549_SByte_t454417549PFvvEPK10MethodInfoPvPS4_
FBc:__Z37Register_UnityEngine_GUIStyle_Cleanupv
Oa:invoke_iiifii
Thc:__ZN8GUILayer12AddToManagerEv
vrj:__ZN6il2cpp6icalls8mscorlib6System8MonoType13IsPointerImplEP20Il2CppReflectionType
lhe:_Convert_ToDecimal_m2284596541
Ti:_emscripten_glFramebufferRenderbuffer
G1b:__ZN19CullingGroupManager17CullAndSendEventsERK22SceneCullingParametersiRK13CullingOutputRK8JobFence
wJg:__ZL64CipherSuiteCollection_t2431504453_CustomAttributesCacheGeneratorP21CustomAttributesCache
BEh:__Z105RuntimeInvoker_Int32_t2071877448_RuntimeObject_UILineInfo_t3621277874_Int32_t2071877448_Int32_t2071877448PFvvEPK10MethodInfoPvPS4_
aQf:_TlsServerCertificateRequest_ProcessAsSsl3_m3017921864
HUg:__ZL88Animation_t2068071072_CustomAttributesCacheGenerator_Animation_GetStateCount_m2765794865P21CustomAttributesCache
a$e:_Int64_GetHashCode_m4047499913
YNa:__ZN9Transform30EnsureTransformHierarchyExistsEv
otj:_il2cpp_field_get_flags
EX:__ZN11AudioModule26SetDefaultMicrophoneDriverEPv
Rxh:__Z52RuntimeInvoker_Vector4_t2243707581_Color_t2020392075PFvvEPK10MethodInfoPvPS4_
B3d:_Attribute_IsDefined_m216577166
F7d:_Char_ToUpper_m109978609
dci:_InternalEnumerator_1_get_Current_m1089848479_gshared
Fpe:_Double_System_IConvertible_ToInt64_m3798425616
gOd:_StandaloneInputModule_get_repeatDelay_m3025279
Q8a:__ZN14dense_hash_mapIN4core12basic_stringIcNS0_20StringStorageDefaultIcEEEE13dynamic_arrayI4PPtrI6SpriteELj4EE20StringHash32FunctionIS4_ENSt3__28equal_toIS4_EE13stl_allocatorINSC_4pairIKS4_S9_EEL18MemLabelIdentifier81ELi16EEEixERSH_
V6b:__ZNSt3__26vectorINS_4pairIN4core12basic_stringIcNS2_20StringStorageDefaultIcEEEEPK17MessageIdentifierEENS_9allocatorISA_EEE12__move_rangeEPSA_SE_SE_
sOi:_SceneManager_LoadSceneAsyncNameIndexInternal_m1250496078
ZWb:__ZN14qsort_internal17MedianOfThreeSwapIP17RODataReplacement19ROSorterReplacementEEvT_S4_S4_T0_
nAh:__Z60RuntimeInvoker_FramePressState_t1414739712_Int32_t2071877448PFvvEPK10MethodInfoPvPS4_
Isf:_Collection_1_System_Collections_IList_Insert_m3303840316_gshared
Ehj:__ZNK15dense_hashtableINSt3__24pairIK10KeyWrapperIPK22Il2CppGenericParameterEP11Il2CppClassEES6_N6il2cpp5utils11PointerHashIS4_EEN14dense_hash_mapIS6_S9_SE_NS6_14EqualsComparerINS0_8equal_toIS5_EEEENS0_9allocatorISA_EEE9SelectKeyESJ_SL_E3endEv
noc:__ZN17TransformInternal36OnScaleChangedCalculateTransformTypeE15TransformAccess
Z9d:_SynchronizedArrayListWrapper_InsertRange_m709359548
PJa:__ZN17ArchiveFileSystem10ToAbsoluteEPKc
MHf:_BigInteger_op_Modulus_m13450242
pVa:__ZN4PPtrI8MaterialE8TransferI18StreamedBinaryReadILb0EEEEvRT_
Hqd:__ZN19UnityConnectService15GetPlayerUserIdEv
bie:_Convert_ToInt32_m2988544165
iFe:_Array_Resize_TisColor32_t874517518_m2219502085_gshared
DF:__ZN7mecanim6CRCKeyENS_7eStringE
DTf:_SslStreamBase_get_CanWrite_m2069502593
dlc:__ZL12SetPrefValueRKN4core12basic_stringIcNS_20StringStorageDefaultIcEEEERK9PrefValue
Bnb:__ZL30ReconstructParamNamesFromTableIN9ShaderLab20SerializedSubProgram15MatrixParameterEEvRK14dense_hash_mapIiN4core17string_with_labelILi1EEE18SInt32HashFunctionNSt3__28equal_toIiEE13stl_allocatorINS8_4pairIKiS6_EEL18MemLabelIdentifier1ELi16EEERNS8_6vectorIT_NS8_9allocatorISL_EEEE
V$a:__ZL13SortTexByNameRKNSt3__24pairIN9ShaderLab16FastPropertyNameEN18UnityPropertySheet11UnityTexEnvEEES7_
lSj:__ZN6il2cpp5utils11StringUtils6PrintfEPKcz
sZc:__ZN16NovodexAllocatorD0Ev
l0a:__ZN15NameToObjectMapI6ShaderNSt3__23mapI4PPtrIS0_EN4core12basic_stringIcNS5_20StringStorageDefaultIcEEEENS1_4lessIS4_EENS1_9allocatorINS1_4pairIKS4_S9_EEEEEENS1_8multimapIS9_S4_NSA_IS9_EENSC_INSD_IKS9_S4_EEEEEEE4FindERSK_
oWh:_ShimEnumerator_Reset_m98005789_gshared
T1a:__ZN24GenerateTypeTreeTransfer21TransferResourceImageE19ActiveResourceImagePKcR13StreamingInfoPvjiPKN5Unity4TypeE
PJf:_PKCS1_Compare_m552424558
jIf:_ASN1__ctor_m1045937444
MCf:_ReadOnlyCollection_1_System_Collections_IList_set_Item_m1377990618_gshared
wbh:_ILGenerator_make_room_m373147874
R1h:_Dictionary_2_Init_m1045257495_gshared
f7f:_SingleCallIdentity__ctor_m1512303454
Y4d:_Boolean_CompareTo_m3691698947_AdjustorThunk
$ye:_Array_InternalArray__IndexOf_TisKeyValuePair_2_t888819835_m2660446234_gshared
mQe:_PKCS1_Verify_v15_m2571212635
nXa:__ZNSt3__212__deque_baseI18ReflectionProbeJobNS_9allocatorIS1_EEED2Ev
$E:__ZN11UnityEngine9Animation27DestroyAnimationSetBindingsEPNS0_20AnimationSetBindingsERN7mecanim6memory9AllocatorE
Hnb:__ZN15dense_hashtableINSt3__24pairIKiN4core17string_with_labelILi1EEEEEi18SInt32HashFunctionN14dense_hash_mapIiS5_S7_NS0_8equal_toIiEE13stl_allocatorIS6_L18MemLabelIdentifier1ELi16EEE9SelectKeyESA_SD_E13set_empty_keyERKS6_
rN:__ZN8Animator12CleanupClassEv
Mcg:_DecoderReplacementFallbackBuffer__ctor_m1305504326
lIc:__Z13TransferFieldI8JSONReadLb0E27Converter_SimpleNativeClassI10RectOffsetEEvRK23StaticTransferFieldInfoR31RuntimeSerializationCommandInfoRT1_
qHd:_String_IndexOf_m570401060
tYd:_Image_CalculateLayoutInputVertical_m1340533162
pqe:_Enum_System_IConvertible_ToDateTime_m2924690746
kUd:_Dropdown_CreateBlocker_m4109366440
Lwd:_HashAlgorithm_System_IDisposable_Dispose_m2106335965
lLj:__GLOBAL__sub_I_GenericMetadata_cpp
u9e:_NotImplementedException__ctor_m1305569814
aWg:__ZL67GUISettings_t622856320_CustomAttributesCacheGenerator_m_CursorColorP21CustomAttributesCache
Jqj:__ZN6il2cpp6icalls8mscorlib6System8MonoType18GetFields_internalEP20Il2CppReflectionTypeiS5_
s2b:__Z24CalculateSpotLightBoundsffRK10Matrix4x4fR15SpotLightBounds
dKe:_TailoringInfo__ctor_m2248501932
ZYa:__ZNK13RenderTexture21GetShadowSamplingModeEv
D_:__ZN23CloudWebServicesManager23VirtualRedirectTransferER14SafeBinaryRead
wmh:__Z150RuntimeInvoker_Int32_t2071877448_RuntimeObject_Int32_t2071877448_Int32_t2071877448_RuntimeObject_Int32_t2071877448_Int32_t2071877448_Int32_t2071877448PFvvEPK10MethodInfoPvPS4_
v9d:_FixedSizeArrayListWrapper_InsertRange_m2690348965
MNb:__Z19ShouldTransferFieldR32SerializationCommandQueueBuilder17ScriptingClassPtriR18TransferField_InfoRK20CoreScriptingClasses
tdh:_FieldInfo_get_IsStatic_m1411173225
Fzj:__ZNK15dense_hashtableINSt3__24pairIK10KeyWrapperINS1_IPK12PropertyInfoP11Il2CppClassEEEjEES9_17ReflectionMapHashIS8_EN14dense_hash_mapIS9_jSD_NS9_14EqualsComparerINS0_8equal_toIS8_EEEENS0_9allocatorISB_EEE9SelectKeyESI_SK_E12test_deletedEj
y3e:_MemoryStream_Read_m2289595005
pCa:__ZN26SinglePassStereoSupportExt21SetStereoMatrixCommonE21MonoOrStereoscopicEye24BuiltinShaderMatrixParamRK10Matrix4x4f
iU:__ZN5audio5mixer22UpdateAudioMixerMemoryERKNS0_18AudioMixerConstantERNS0_16AudioMixerMemoryEfPN4FMOD6SystemEf
VZc:__ZL21InitializeCachedStripPv
Dwd:_SignatureDescription_set_DigestAlgorithm_m3219799565
BGj:__ZN6il2cpp6icalls8mscorlib6System9Threading6Thread23GetCachedCurrentCultureEP12Il2CppThread
fTg:__ZL94PlayerEditorConnectionEvents_t2252784345_CustomAttributesCacheGenerator_messageTypeSubscribersP21CustomAttributesCache
aQh:_Selectable_get_allSelectables_m3045831006
LPa:__ZNK6Camera22GetWorldToCameraMatrixEv
l3d:_ArrayTypeMismatchException__ctor_m2892687300
ZNj:__ZN6il2cpp2vm12GenericClass11IsValueTypeEP18Il2CppGenericClass
Ulh:__Z49RuntimeInvoker_TypeCode_t2536926201_RuntimeObjectPFvvEPK10MethodInfoPvPS4_
JMb:__ZN13MonoBehaviour7SetNameEPKc
GKf:_ContentInfo__ctor_m3579805263
nkj:__ZN15dense_hashtableINSt3__24pairIK10KeyWrapperIPKcEP11Il2CppClassEES5_N6il2cpp5utils11StringUtils12StringHasherIS4_EEN14dense_hash_mapIS5_S8_SE_NS5_14EqualsComparerINSB_13VmStringUtils21CaseSensitiveComparerEEENS0_9allocatorIS9_EEE9SelectKeyESJ_SL_E15set_deleted_keyERKS9_
ESc:__ZN25b2PolygonAndCircleContact7DestroyEP9b2ContactP16b2BlockAllocator
iPh:_ScrollRect_get_verticalNormalizedPosition_m1701804869
LYg:__ZL95CustomEventData_t1269126727_CustomAttributesCacheGenerator_CustomEventData_AddUInt32_m670460919P21CustomAttributesCache
U4:__GLOBAL__sub_I_runtime_shaders_shaderimpl_0_cpp
B1g:__ZL138U3CMouseDragOutsideRectU3Ec__Iterator1_t2599668326_CustomAttributesCacheGenerator_U3CMouseDragOutsideRectU3Ec__Iterator1__ctor_m1439320044P21CustomAttributesCache
dkb:__ZN18AwakeFromLoadQueue5ClearEv
CYh:_Enumerator_get_Current_m2986380627_AdjustorThunk
X0b:__ZNSt3__27__sort5IR15ReflProbeSorterPP15ReflectionProbeEEjT0_S6_S6_S6_S6_T_
Zfa:__ZN8Playable10DisconnectEPS_i
u9h:_InternalEnumerator_1_get_Current_m1526874475_AdjustorThunk
wk:_glGenTransformFeedbacks
zIa:__ZN13LoadOperationD2Ev
xL:__ZN18StreamedBinaryReadILb0EE8TransferINSt3__24pairI8StateKey10StateRangeEEEEvRT_PKc17TransferMetaFlags
UOe:_KeyPairPersistence__ctor_m1817312194
bbj:_Canvas_set_scaleFactor_m3986864146
xue:_Array_InternalArray__ICollection_Contains_TisMark_t2724874473_m1640201705_gshared
Ymi:_ActivatedClientTypeEntry_get_ContextAttributes_m53051138
AQb:__Z21PlayerStartFirstSceneb
l9g:_TypeBuilder_get_AssemblyQualifiedName_m2097258567
_$a:__ZNSt3__27__sort5IRPFbRKNS_4pairIN9ShaderLab16FastPropertyNameEN18UnityPropertySheet11UnityTexEnvEEES8_EPS6_EEjT0_SD_SD_SD_SD_T_
Gpa:__ZNK7ApiGLES18GetExtensionStringEv
TAa:__ZN31TransformFeedbackSkinPoseBufferD0Ev
Sak:_emscripten_glVertexAttrib1f__wrapper
qfd:__ZN15TilemapRenderer23VirtualRedirectTransferER14SafeBinaryRead
_tb:__ZNK12HandlerChain4SizeERK13FileEntryData
M2h:_DefaultComparer_Equals_m1281232537_gshared
Btg:__ZL99RuntimeFieldHandle_t2331729674_CustomAttributesCacheGenerator_RuntimeFieldHandle_Equals_m1202966418P21CustomAttributesCache
gp:FUNCTION_TABLE_iiiiiiiii
SZd:_InputField_set_asteriskChar_m619206227
ocg:_DES_IsSemiWeakKey_m3967392585
ZLc:__Z22GetPhysicsGroundBody2Dv
BGf:_Comparison_1__ctor_m2159122699_gshared
HXe:_Int16_System_IConvertible_ToUInt32_m883204517_AdjustorThunk
Mgh:_MonoProperty_get_PropertyType_m1921201152
ESd:_FloatTween_TweenValue_m3881535116_AdjustorThunk
UUj:_GC_allochblk
skb:__Z15UnloadGameScenev
xfk:_glCheckFramebufferStatus__wrapper
$qh:__Z43RuntimeInvoker_Boolean_t3825574718_IntPtr_tPFvvEPK10MethodInfoPvPS4_
_ib:__ZNSt3__26vectorIN30RuntimeInitializeOnLoadManager15ClassMethodInfoE13stl_allocatorIS2_L18MemLabelIdentifier13ELi16EEE7reserveEj
CSg:__ZL59WriteOnlyAttribute_t14323075_CustomAttributesCacheGeneratorP21CustomAttributesCache
CYj:__ZN6il2cpp2vm6Atomic9IncrementEPVi
Ixj:__ZN15dense_hashtableINSt3__24pairIK10KeyWrapperIPK10Il2CppTypeEjEES6_N6il2cpp8metadata14Il2CppTypeHashEN14dense_hash_mapIS6_jSB_NS6_14EqualsComparerINSA_26Il2CppTypeEqualityComparerEEENS0_9allocatorIS8_EEE9SelectKeyESF_SH_E3endEv
JM:__ZN16MecanimAnimationD0Ev
RGf:_BigInteger_get_Rng_m2525288368
_$f:_X509ExtensionEnumerator_Reset_m3200687545
Kae:_CaseInsensitiveHashCodeProvider__ctor_m3775398833
cMi:_Rect_get_width_m3473344679
tsc:__Z36Renderer_Get_Custom_PropSortingOrderP12Il2CppObject
KUi:_GUIContent__cctor_m976962423
Nxj:__ZNK15dense_hashtableINSt3__24pairIK10KeyWrapperIPK10Il2CppTypeEjEES6_N6il2cpp8metadata14Il2CppTypeHashEN14dense_hash_mapIS6_jSB_NS6_14EqualsComparerINSA_26Il2CppTypeEqualityComparerEEENS0_9allocatorIS8_EEE9SelectKeyESF_SH_E13find_positionERS7_
PYa:__ZN7Texture5ResetEv
oLc:__ZNK14b2CapsuleShape7RayCastEP15b2RayCastOutputRK14b2RayCastInputRK11b2Transformi
JCb:__Z18Transfer_BlittableI24GenerateTypeTreeTransferLb1EhEvRK29SerializationCommandArgumentsR31RuntimeSerializationCommandInfo
Lbb:__ZN10VertexData10DeallocateEv
pvj:__ZNSt3__214__split_bufferIiRNS_9allocatorIiEEEC2EjjS3_
_pc:__ZNK16TypeTreeIterator10ByteOffsetEv
vVd:_Graphic_get_rectTransform_m2697395074
gfa:__ZnwjRKSt9nothrow_t
wI:__ZN8Animator11ClearObjectEv
wxh:__Z55RuntimeInvoker_Boolean_t3825574718_Playable_t1896841784PFvvEPK10MethodInfoPvPS4_
bZf:_X500DistinguishedName_Decode_m3070515374
H_a:__ZN14SafeBinaryRead19TransferSTLStyleMapINSt3__23mapI39DeprecatedFastPropertyNameSerializationN18UnityPropertySheet11UnityTexEnvENS1_4lessIS3_EENS1_9allocatorINS1_4pairIKS3_S5_EEEEEEEEvRT_17TransferMetaFlags
UWf:_IPv6Address_set_ScopeId_m1442934355
oPc:__ZNSt3__27__sort4IRPFbPN10ClipperLib13IntersectNodeES3_EPS3_EEjT0_S8_S8_S8_T_
oug:__ZL72PKCS12_t1362584794_CustomAttributesCacheGenerator_U3CU3Ef__switchU24mapBP21CustomAttributesCache
t9f:_ObjectManager_RaiseOnDeserializedEvent_m512850179
gTg:__ZL87PlayerEditorConnectionEvents_t2252784345_CustomAttributesCacheGenerator_connectionEventP21CustomAttributesCache
Upc:__Z35UnregisterSerializationCacheBuilderPFv17ScriptingClassPtrR23CachedSerializationDataRbE
BQa:__Z30GetBuiltinVectorParamArraySize24BuiltinShaderVectorParam
Uwj:__ZNSt3__218uninitialized_copyIPNS_4pairIK10KeyWrapperINS1_IPK14Il2CppAssemblyP11Il2CppClassEEEjEESC_EET0_T_SE_SD_
QJe:_CodePointIndexer__ctor_m797342079
pUg:__ZL93TextGenerator_t647235000_CustomAttributesCacheGenerator_TextGenerator_Dispose_cpp_m1011672971P21CustomAttributesCache
b1g:__ZL64InputField_t1631627530_CustomAttributesCacheGenerator_m_LineTypeP21CustomAttributesCache
yCg:__ZL61KeyedHashAlgorithm_t1374150027_CustomAttributesCacheGeneratorP21CustomAttributesCache
E4a:__ZN18StreamedBinaryReadILb0EE21TransferSTLStyleArrayI13dynamic_arrayI7Hash128Lj8EEEEvRT_17TransferMetaFlags
E_g:__ZL103PointerEventData_t1599784723_CustomAttributesCacheGenerator_PointerEventData_set_clickCount_m2095939005P21CustomAttributesCache
t5a:__ZN21RendererUpdateManager11AddRendererER8Renderer
Vcc:__Z13RegisterClassI15ResourceManagerEvv
L9f:_SerializationEntry_t3485203212_marshal_pinvoke_back
Qzh:__Z78RuntimeInvoker_Void_t1841601450_RuntimeObject_RuntimeObject_RectU26_t844847526PFvvEPK10MethodInfoPvPS4_
Bxb:__Z35Transfer_Blittable_FixedBufferFieldI14SafeBinaryReadsEvRK29SerializationCommandArgumentsR31RuntimeSerializationCommandInfo
Qab:__ZN14SafeBinaryRead21TransferSTLStyleArrayI13dynamic_arrayIfLj4EEEEvRT_17TransferMetaFlags
YEg:__ZL79Thread_t241561612_CustomAttributesCacheGenerator_Thread_GetHashCode_m2038641494P21CustomAttributesCache
mSj:__ZN6il2cpp5utils11StringUtils11Utf16ToUtf8EPKDs
Dib:__ZN18StreamedBinaryReadILb0EE21TransferSTLStyleArrayINSt3__26vectorIN15ResourceManager10DependencyE13stl_allocatorIS5_L18MemLabelIdentifier52ELi16EEEEEEvRT_17TransferMetaFlags
jqd:__ZN11UnityEngine15PlatformWrapper20IsRootedOrJailbrokenEv
DTb:__ZZ23InitPlayerLoopCallbacksvEN52PreLateUpdateScriptRunBehaviourLateUpdateRegistrator7ForwardEv
DZf:_X509Certificate2_GetNameInfo_m402390219
o2b:__Z33IntersectAABBPlaneBoundsOptimizedRK4AABBPKN4math7_float4Ei
i3d:_Swapper_BeginInvoke_m2652511022
MMi:_RectOffset_t3387826427_marshal_pinvoke_back
DHh:__Z54RuntimeInvoker_UriScheme_t1876590943_Int32_t2071877448PFvvEPK10MethodInfoPvPS4_
u5b:__ZN19ScriptingInvocation6InvokeI28ScriptingSystemTypeObjectPtrEET_P21ScriptingExceptionPtrb
Ska:__ZN9GfxDevice19EndGeometryJobFrameEv
DCb:__ZN27Converter_SimpleNativeClassI17AnimationCurveTplIfEE17ScriptingToNativeER18ScriptingObjectPtrPS1_
E_j:__ZN6il2cpp8metadata24Il2CppGenericInstCompare7CompareERK10KeyWrapperIPK17Il2CppGenericInstES8_
CCh:__Z36RuntimeInvoker_Enumerator_t132208513PFvvEPK10MethodInfoPvPS4_
Xkj:__ZNK15dense_hashtableINSt3__24pairIK10KeyWrapperIPK19Il2CppGenericMethodEPK26Il2CppGenericMethodIndicesEES6_N6il2cpp8metadata23Il2CppGenericMethodHashEN14dense_hash_mapIS6_SA_SE_NS6_14EqualsComparerINSD_26Il2CppGenericMethodCompareEEENS0_9allocatorISB_EEE9SelectKeyESI_SK_E5beginEv
MVd:_Graphic_get_materialForRendering_m2600868951
Sy:__ZN27AnimationLayerMixerPlayable21UpdateLayerParametersEv
tPf:_TlsClientSettings_get_ClientCertificate_m89435195
XBg:__ZL61AsymmetricAlgorithm_t784058677_CustomAttributesCacheGeneratorP21CustomAttributesCache
Ukc:__ZN9Polygon2D7DefaultEv
Abh:__ZN21InterfaceFuncInvoker1IiP12MemberInfo_tE6InvokeEjP11Il2CppClassP12Il2CppObjectS1_
buf:_Collection_1_System_Collections_IList_Contains_m3210868188_gshared
iui:_AnchorInfo_get_IgnoreCase_m2406760852
tec:__ZNK17AnimationCurveTplIfE8EvaluateEfPNS0_5CacheE
HSb:__Z31ManagerContextInitializeClassesv
Mqj:__ZNSt3__213__vector_baseIP9FieldInfoNS_9allocatorIS2_EEED2Ev
KYe:_NumberFormatter_AppendIntegerString_m868842252
P2c:_ft_smooth_transform
fvg:__ZL53SortedList_t3004938869_CustomAttributesCacheGeneratorP21CustomAttributesCache
K0c:_UNITY_FT_List_Finalize
n_j:__ZN6il2cpp6icalls8mscorlib6System7Runtime8Remoting10Activation18ActivationServices34AllocateUninitializedClassInstanceEP20Il2CppReflectionType
aYb:__Z20LightAttenuateApproxRKfS0_
DFa:__ZN9Scripting30SetCachedPtrOnScriptingWrapperE18ScriptingObjectPtrP6Object
$Fb:__Z18Transfer_BlittableI19StreamedBinaryWriteILb0EELb0EdEvRK29SerializationCommandArgumentsR31RuntimeSerializationCommandInfo
U3:__ZN17LowLevelAllocator6MallocEj
MId:_ASCIIEncoding_GetBytes_m3649277167
H0h:_Dictionary_2__ctor_m2457723796_gshared
ONc:__ZN16b2PrismaticJoint4DumpEv
jM:__ZN7mecanim9animation21BlendTreeNodeConstant8TransferI19StreamedBinaryWriteILb0EEEEvRT_
zUa:__ZN18BlockRangeInternal16PopLastNodeIndexEP10BlockRangeji
npg:_Version__ctor_m2972638031
hNe:_Kernel_MultiplyByDword_m155008287
kab:__ZN4MeshD0Ev
Tph:__Z121RuntimeInvoker_Void_t1841601450_Int64_t909078037_RuntimeObject_RuntimeObject_Int64_t909078037_RuntimeObject_RuntimeObjectPFvvEPK10MethodInfoPvPS4_
Hvd:__ZL42RequestRecreateEyeTexturesBeforeNextUpdatev
HZh:_ValueCollection_System_Collections_Generic_ICollectionU3CTValueU3E_get_IsReadOnly_m3005456072_gshared
eCf:_ReadOnlyCollection_1_System_Collections_ICollection_get_SyncRoot_m1577944046_gshared
Ioa:__ZNK6Camera20IsCurrentlyRenderingEv
HA:__ZN21AnimationClipPlayable23ProcessRootMotionNoClipEPK35AnimationPlayableEvaluationConstantPK32AnimationPlayableEvaluationInputP33AnimationPlayableEvaluationOutput
nld:__Z36CanvasRenderer_CUSTOM_SetPopMaterialP12Il2CppObjectS0_i
PCg:__ZL58RijndaelManaged_t1034060848_CustomAttributesCacheGeneratorP21CustomAttributesCache
Huj:_UpdatedEventHandler_Invoke_m4240581743
OEc:__Z18Transfer_BlittableI9JSONWriteLb0EdEvRK29SerializationCommandArgumentsR31RuntimeSerializationCommandInfo
jNc:__ZNK11b2GearJoint16GetReactionForceEf
C4e:_TextReader__ctor_m3276128267
WTg:__ZL98Rigidbody2D_t502193897_CustomAttributesCacheGenerator_Rigidbody2D_INTERNAL_set_velocity_m213500543P21CustomAttributesCache
Zff:_List_1_System_Collections_Generic_ICollectionU3CTU3E_get_IsReadOnly_m3598018290_gshared
jL:__ZN15SerializeTraitsI9OffsetPtrIN7mecanim9animation17BlendTreeConstantEEE8TransferI24GenerateTypeTreeTransferEEvRS4_RT_
oTh:_Toggle_OnDidApplyAnimationProperties_m325835214
T0j:_wctomb
Jxh:__Z55RuntimeInvoker_Void_t1841601450_Matrix4x4U26_t266301477PFvvEPK10MethodInfoPvPS4_
$qc:__Z27Camera_CUSTOM_GetAllCamerasP11Il2CppArray
KMb:__ZNK13MonoBehaviour25GetNeedsPerObjectTypeTreeEv
NJb:__Z35Transfer_Blittable_FixedBufferFieldI18StreamedBinaryReadILb0EEiEvRK29SerializationCommandArgumentsR31RuntimeSerializationCommandInfo
Kee:_Convert_InternalFromBase64String_m3682756716
ad:___cxa_rethrow
ROg:__ZL79Sprite_t309593783_CustomAttributesCacheGenerator_Sprite_get_texture_m1594695778P21CustomAttributesCache
rGc:__Z18Transfer_BlittableI8JSONReadLb1EhEvRK29SerializationCommandArgumentsR31RuntimeSerializationCommandInfo
HUc:__ZN18Overlap2DQueryBase13ReportFixtureEP9b2Fixture
UVg:__ZL86GUI_t4082743951_CustomAttributesCacheGenerator_U3CnextScrollStepTimeU3Ek__BackingFieldP21CustomAttributesCache
Cnc:__ZN10systeminfo23SupportsLocationServiceEv
Hzh:__Z48RuntimeInvoker_Void_t1841601450_Rect_t3681755626PFvvEPK10MethodInfoPvPS4_
Jjg:_TimeSpan_Add_m3228293154
P2h:_DefaultComparer_Equals_m4098991076_gshared
i5b:__ZN13MonoBehaviour8SetClassE17ScriptingClassPtr18ScriptingObjectPtr
lKf:_RC4__cctor_m523650203
Upi:_CrossContextDelegate_Invoke_m2908136830
Q_i:_Locale_GetText_m3480617287
iUe:_ApplicationIdentity_ToString_m800036884
Oub:__ZN20LocalFileSystemPosix4ReadER13FileEntryDatayyPvPy
C$b:__ZNSt3__211__sift_downIRN23ForwardShaderRenderLoop18RenderObjectSorterILb0EEEP21ForwardRenderPassDataEEvT0_S7_T_NS_15iterator_traitsIS7_E15difference_typeES7_
B6e:_UnmanagedMemoryStream_get_Position_m4093669769
GAg:__ZL83MethodDictionary_t1742974787_CustomAttributesCacheGenerator_U3CU3Ef__switchU24map21P21CustomAttributesCache
nph:__Z90RuntimeInvoker_Void_t1841601450_IntPtr_t_RuntimeObject_Int32_t2071877448_Int32_t2071877448PFvvEPK10MethodInfoPvPS4_
ZMb:__ZN13MonoBehaviour5DoGUIENS_13GUILayoutTypeEii
xHf:_Kernel_Multiply_m1938858919
f9g:_DerivedType_IsDefined_m555719351
_qi:_Mark_get_IsDefined_m3332701456
oHa:__ZNK12TLSAllocatorI14StackAllocatorE8ContainsEPKv
fgb:__ZN11TimeManager8TransferI18StreamedBinaryReadILb0EEEEvRT_
Mgd:__ZN14qsort_internal13Partition3WayIP22TilemapRenderChunkTimeiPFbRKS1_S4_ES6_EENSt3__24pairIT_S9_EES9_S9_T0_T1_T2_
Asb:__ZN15SerializeTraitsINSt3__23mapI4PPtrI6ShaderEN4core12basic_stringIcNS5_20StringStorageDefaultIcEEEENS0_4lessIS4_EENS0_9allocatorINS0_4pairIKS4_S9_EEEEEEE8TransferI24GenerateTypeTreeTransferEEvRSH_RT_
nQe:_EncryptedPrivateKeyInfo__ctor_m3964541963
zcg:_DESTransform__cctor_m1179482644
C4h:_EqualityComparer_1_System_Collections_IEqualityComparer_GetHashCode_m1465362976_gshared
eGi:_Object_t1021602117_marshal_pinvoke_cleanup
xab:__ZN14BlendShapeData8TransferI14SafeBinaryReadEEvRT_
Vfj:_CustomEventData_AddString_m1682987767
Aqe:_Enum_Format_m2294492821
RFg:__ZL81Convert_t2607082565_CustomAttributesCacheGenerator_Convert_ToDateTime_m3810846875P21CustomAttributesCache
E1a:__ZN7Texture25ReloadFromStorageIfNeededEPvb
IDc:__Z35Transfer_Blittable_FixedBufferFieldI9JSONWritehEvRK29SerializationCommandArgumentsR31RuntimeSerializationCommandInfo
w_g:__ZL106PointerEventData_t1599784723_CustomAttributesCacheGenerator_PointerEventData_set_pressPosition_m2094137883P21CustomAttributesCache
yWh:_ShimEnumerator_get_Entry_m2332479818_gshared
vKd:_BaseRaycaster_get_priority_m247683215
wle:_DateTime_CheckDateTimeKind_m329345155_AdjustorThunk
O7i:__ZL25UnresolvedVirtualCall_212P12Il2CppObject38CustomAttributeNamedArgument_t94157543PK10MethodInfo
Yad:_Update_Max
PFj:__ZN6il2cpp6icalls8mscorlib6SystemL15ThrowNoWideningEv
Bec:__ZNK23TransformChangeDispatch24GetChangeMaskForInterestENS_12InterestTypeE
NVi:_GUIStyleState_t3801000545_marshal_pinvoke_cleanup
ywc:__Z45Transform_CUSTOM_INTERNAL_CALL_TransformPointP12Il2CppObjectRK8Vector3fRS1_
Ltf:__ZN23InterfaceActionInvoker2Ii18Color32_t874517518E6InvokeEjP11Il2CppClassP12Il2CppObjectiS0_
g9b:__ZL10KeyHandleriPK23EmscriptenKeyboardEventPv
ORc:__ZN15dense_hashtableINSt3__24pairIKNS1_IPK10Collider2DS4_EE11Collision2DEES5_NS2_23ColliderPairHashFunctorEN14dense_hash_mapIS5_S7_S9_NS0_8equal_toIS5_EE13stl_allocatorIS8_L18MemLabelIdentifier67ELi16EEE9SelectKeyESC_SF_EC2ERKSI_j
Z_a:__ZNSt3__26__treeINS_12__value_typeI39DeprecatedFastPropertyNameSerializationfEENS_19__map_value_compareIS2_S3_NS_4lessIS2_EELb1EEENS_9allocatorIS3_EEE7destroyEPNS_11__tree_nodeIS3_PvEE
H4c:_tt_cmap4_char_index
Xci:_InternalEnumerator_1__ctor_m2582404099_gshared
ikg:_TimeSpan_op_Addition_m3421801803
iub:__ZNK12HandlerChain8IsHiddenERK13FileEntryData
v0g:__ZL50Graphic_t2426225576_CustomAttributesCacheGeneratorP21CustomAttributesCache
TBb:__ZL26Transfer_SimpleNativeClassI17RemapPPtrTransfer10RectOffsetLb0EEvRK29SerializationCommandArgumentsR31RuntimeSerializationCommandInfo
l1c:__Z14ValidateFormatR13dynamic_arrayIN20TextRenderingPrivate16TextFormatChangeELj4EE
Tv:__ZNSt3__26vectorIN13AnimationClip15QuaternionCurveE13stl_allocatorIS2_L18MemLabelIdentifier26ELi16EEE6assignINS_11__wrap_iterIPS2_EEEENS_9enable_ifIXaasr21__is_forward_iteratorIT_EE5valuesr16is_constructibleIS2_NS_15iterator_traitsISC_E9referenceEEE5valueEvE4typeESC_SC_
wIh:__Z114RuntimeInvoker_Int32_t2071877448_CustomAttributeTypedArgument_t1498197914_CustomAttributeTypedArgument_t1498197914PFvvEPK10MethodInfoPvPS4_
Lgf:_List_1__ctor_m2672294496_gshared
rdk:_glUniform1fv__wrapper
ske:_DateTime_System_IConvertible_ToInt32_m2789391054_AdjustorThunk
Hwh:__Z73RuntimeInvoker_Single_t2076509932_Vector3_t2243707580_Vector3_t2243707580PFvvEPK10MethodInfoPvPS4_
RNe:_ASN1Convert_FromInt32_m1541043489
ANd:_PointerInputModule_ProcessMove_m3200120346
rfe:_Convert_ToByte_m1008221737
mJf:_MD2Managed_MD2Transform_m3825201358
Quf:_Collection_1_System_Collections_IList_IndexOf_m3976312928_gshared
b2g:__ZL69Scrollbar_t3248359358_CustomAttributesCacheGenerator_m_OnValueChangedP21CustomAttributesCache
zaf:_KeyValuePair_2__ctor_m3201181706_gshared
WOc:__ZN10ClipperLib14PointInPolygonERKNS_8IntPointEPNS_5OutPtE
PTd:_Dropdown_AddOptions_m835420907
f_g:__ZL107PointerEventData_t1599784723_CustomAttributesCacheGenerator_PointerEventData_get_rawPointerPress_m448871540P21CustomAttributesCache
xQa:__ZNK9ShaderLab20ShaderBlendStateDesc15ToGfxBlendStateEPK19ShaderPropertySheetS3_R13GfxBlendState
Yug:__ZL92Hashtable_t909839986_CustomAttributesCacheGenerator_Hashtable_t909839986____hcp_PropertyInfoP21CustomAttributesCache
$Qd:_CanvasUpdateRegistry_IsRebuildingLayout_m1677873278
EE:__ZN11UnityEngine9AnimationL22GenericBindingCallbackEPvS1_i
DH:__ZN12_GLOBAL__N_121ProcessAnimationBeginER35AnimationPlayableEvaluationConstantR32AnimationPlayableEvaluationInputR33AnimationPlayableEvaluationOutput
hsb:__ZN9ShaderLab9IntShaderC2Ev
Crj:__ZN6il2cpp6icalls8mscorlib6SystemL9IsPrivateEPK9EventInfo
eZj:__ZN6il2cpp6icalls8mscorlib6System10Reflection4Emit11TypeBuilder20setup_internal_classEP27Il2CppReflectionTypeBuilderS7_
tai:_InternalEnumerator_1_System_Collections_IEnumerator_Reset_m3237341717_AdjustorThunk
I7h:_ArrayReadOnlyList_1_IndexOf_m1809425308_gshared
wtj:_il2cpp_gc_disable
SCc:__ZN5Unity9rapidjson6WriterI16TempBufferWriterNS0_4UTF8IcEES4_13JSONAllocatorE11WriteUint64Ey
hMd:_ExecuteEvents_U3Cs_HandlerListPoolU3Em__0_m2903690915
zce:_Hashtable_Clone_m165405752
RNc:__ZN16b2PrismaticJoint24SolveVelocityConstraintsERK12b2SolverData
Hxg:__ZL61CallingConventions_t1097349142_CustomAttributesCacheGeneratorP21CustomAttributesCache
ohj:__ZN13Il2CppHashMapIPK22Il2CppGenericParameterP11Il2CppClassN6il2cpp5utils11PointerHashIS1_EENSt3__28equal_toIS2_EENS9_9allocatorINS9_4pairIK10KeyWrapperIS2_ES4_EEEEEC2EjRKS8_RKSB_
JHc:__ZN8JSONRead21TransferSTLStyleArrayI31ArrayOfManagedObjectsTransfererEEvRT_17TransferMetaFlags
o$g:__ZL144U3CStartU3Ec__Iterator0_t3220237554_CustomAttributesCacheGenerator_U3CStartU3Ec__Iterator0_System_Collections_IEnumerator_get_Current_m290565900P21CustomAttributesCache
yMa:__Z15CreateDirectoryRKN4core12basic_stringIcNS_20StringStorageDefaultIcEEEE
cYa:__Z21CalculateGlobalMatrix23TransformAccessReadOnly
Stg:__ZL70InternalsVisibleToAttribute_t1037732567_CustomAttributesCacheGeneratorP21CustomAttributesCache
kgb:__ZNK13BuildSettings22GetTypeVirtualInternalEv
i1e:_MonoIO_GetCurrentDirectory_m1509324201
cBd:_SHA384Managed_adjustByteCounts_m410900820
Yfg:_UTF32Encoding_GetHashCode_m4205784236
XGb:__Z35Transfer_Blittable_FixedBufferFieldI18StreamedBinaryReadILb1EEhEvRK29SerializationCommandArgumentsR31RuntimeSerializationCommandInfo
mge:_DateTime_ToUniversalTime_m1815024752
y$g:__ZL73U3COnFinishSubmitU3Ec__Iterator0_t99135383_CustomAttributesCacheGeneratorP21CustomAttributesCache
Tcc:__Z13RegisterClassI14RenderSettingsEvv
R3b:__ZNK25CameraStackRenderingState25CalculateCameraTargetTypeEv
DXj:_GC_set_on_event
iJh:__Z80RuntimeInvoker_Boolean_t3825574718_Navigation_t1571958496_Navigation_t1571958496PFvvEPK10MethodInfoPvPS4_
$qf:_Collection_1_ConvertItem_m3563206219_gshared
fkg:_TimeSpan_Subtract_m3597791685_AdjustorThunk
ifh:_MonoCMethod_get_Name_m764669486
WC:__ZN7mecanim12statemachine24CreateStateMachineOutputEPKNS0_20StateMachineConstantEjRNS_6memory9AllocatorE
XNj:__ZN6il2cpp2vm12GenericClass8GetClassEP18Il2CppGenericClass
rla:__ZNK9GfxDevice27GetActiveRenderSurfaceWidthEv
hqh:__Z45RuntimeInvoker_SerializationEntry_t3485203212PFvvEPK10MethodInfoPvPS4_
Wpd:__ZN11UnityEngine15PlatformWrapper28GetCleanGraphicsFixedVersionEv
Fvb:__ZN16MemoryFileSystem5WriteER13FileEntryDatayyPvPy
w:tempBigIntP
Xvj:__ZN6il2cpp2vm4Type7GetTypeEPK10Il2CppType
_1f:_Interval_t2354235237_marshal_pinvoke_cleanup
NWc:__ZN23ColliderTilingExtensionD0Ev
Dac:__ZN16SpriteRenderData28PrepareRenderingDataIfNeededEv
n3d:_AssemblyLoadEventHandler_Invoke_m108373765
deb:__ZN18ProceduralMaterial17MainThreadCleanupEv
zNd:_PointerInputModule_ShouldStartDrag_m4163638715
S$g:__ZL61Dropdown_t1985816271_CustomAttributesCacheGenerator_m_OptionsP21CustomAttributesCache
m5i:__ZL24UnresolvedVirtualCall_76P12Il2CppObjectPK10MethodInfo
$ua:__ZN6prcoreL17RemapGenericFloatI18TexFormatRGBAFloat17TexFormatRGBAHalfEEvPKNS_9InnerInfoE
wjh:__Z66RuntimeInvoker_Boolean_t3825574718_RuntimeObject_Int32_t2071877448PFvvEPK10MethodInfoPvPS4_
eUb:__Z16FindCameraStacksRKNSt3__24listI4PPtrI6CameraENS_9allocatorIS3_EEEERNS_6vectorI11CameraStackNS4_ISA_EEEE
c4a:__ZN10GISettings8TransferI14SafeBinaryReadEEvRT_
An:FUNCTION_TABLE_vifff
XCf:_ReadOnlyCollection_1_System_Collections_Generic_ICollectionU3CTU3E_Remove_m2957273994_gshared
a6b:__ZN19CustomRenderTexture12ClearGPUDataEv
pKd:_BaseInputModule_ShouldActivateModule_m2899747874
tIh:__Z86RuntimeInvoker_Int32_t2071877448_DateTimeOffset_t1362988906_DateTimeOffset_t1362988906PFvvEPK10MethodInfoPvPS4_
YYa:__ZN13RenderTexture13ApplySettingsEv
wEg:__ZL92UTF8Encoding_t111055448_CustomAttributesCacheGenerator_UTF8Encoding_GetByteCount_m2547312609P21CustomAttributesCache
gyc:__ZN4Grid11CellToLocalERKNS_9GridStateERKN4math5_int3E
Ze:_JS_Sound_SetListenerPosition
sn:FUNCTION_TABLE_fiffi
wch:_ModuleBuilderTokenGenerator_GetToken_m3427457873
dld:__Z55Register_UnityEngine_CanvasGroup_get_ignoreParentGroupsv
pQh:_Selectable_get_isPointerInside_m3162215687
zye:_Array_FindIndex_TisRuntimeObject_m4149904176_gshared
Zef:_List_1_System_Collections_IList_Contains_m149594880_gshared
iKj:__ZNK15dense_hashtableINSt3__24pairIK10KeyWrapperINS1_IPKcS4_EEEiEES6_24NamespaceAndNamePairHashN14dense_hash_mapIS6_iS9_NS6_14EqualsComparerI26NamespaceAndNamePairEqualsEENS0_9allocatorIS8_EEE9SelectKeyESD_SF_E10test_emptyERK24dense_hashtable_iteratorIS8_S6_S9_SH_SD_SF_E
xGg:__ZL78Convert_t2607082565_CustomAttributesCacheGenerator_Convert_ToSByte_m2585959569P21CustomAttributesCache
DGh:__Z77RuntimeInvoker_Void_t1841601450_Int32_t2071877448_PlayableBinding_t2498078091PFvvEPK10MethodInfoPvPS4_
Uog:_UnauthorizedAccessException__ctor_m3480402128
eNe:_BigInteger_op_Modulus_m3788401748
kga:__ZZN15DirectorManager15InitializeClassEvEN45FixedUpdateDirectorFixedSampleTimeRegistrator7ForwardEv
uqi:_ArgInfo_GetInOutArgs_m3184132151
nmb:__ZNK8Material16MarkDependenciesER27GarbageCollectorThreadState
UEg:__ZL85Thread_t241561612_CustomAttributesCacheGenerator_Thread_get_CurrentThread_m3667342817P21CustomAttributesCache
RRc:__ZN15dense_hashtableINSt3__24pairIKNS1_IPK10Collider2DS4_EE11Collision2DEES5_NS2_23ColliderPairHashFunctorEN14dense_hash_mapIS5_S7_S9_NS0_8equal_toIS5_EE13stl_allocatorIS8_L18MemLabelIdentifier67ELi16EEE9SelectKeyESC_SF_E5clearEv
REc:__ZL17Transfer_GUIStyleI9JSONWriteLb0EEvRK29SerializationCommandArgumentsR31RuntimeSerializationCommandInfo
UYb:__Z28GetHaloVertexPositionsStereoP8Vector3fRKS_S2_f
Qva:__ZN6prcoreL27StretchGenericFloatBilinearI15TexFormatRGHalfEEvPKNS_9InnerInfoE
bcf:_Enumerator_MoveNext_m598197344_AdjustorThunk
P4:__GLOBAL__sub_I_runtime_misc_0_cpp
Bt:__ZN13AnimationClip23VirtualRedirectTransferER18StreamedBinaryReadILb0EE
y8i:_TextGenerationSettings_t2543476768_marshal_pinvoke_back
ZIh:__Z36RuntimeInvoker_Enumerator_t442692252PFvvEPK10MethodInfoPvPS4_
eId:_String_JoinUnchecked_m1880555587
DQa:__ZNK9ShaderLab7Program21GetMatchingSubProgramEPK6ShaderPKNS_4PassERK16ShaderKeywordSetjPS7_R19ShaderSnippetResult
BCe:_Array_InternalArray__Insert_TisKeyValuePair_2_t1174980068_m2464431954_gshared
Tuc:__Z49Register_UnityEngine_Resources_GetBuiltinResourcev
zui:_BalancingGroup_set_Balance_m3452171919
T4c:_tt_cmap10_char_index
LTd:_Dropdown_Awake_m335654827
_ea:__Z18GetITerrainManagerv
u1h:_Dictionary_2_U3CCopyToU3Em__0_m1479035402_gshared
rae:_BitArray_set_Item_m3801461194
oOd:_StandaloneInputModule_get_cancelButton_m1563746440
Shj:__ZN15dense_hashtableINSt3__24pairIK10KeyWrapperIPK22Il2CppGenericParameterEP11Il2CppClassEES6_N6il2cpp5utils11PointerHashIS4_EEN14dense_hash_mapIS6_S9_SE_NS6_14EqualsComparerINS0_8equal_toIS5_EEEENS0_9allocatorISA_EEE9SelectKeyESJ_SL_E3endEv
QNi:_RectTransform_SetSizeWithCurrentAnchors_m861800242
PHd:_String_Remove_m3580114465
bWi:_GUIUtility_EndGUIFromException_m3100752188
B2c:_UNITY_FT_Destroy_Class_cff_field_handlers
$Y:__ZN11AudioSource24ClearExtensionPropertiesE12PropertyName
Aqb:__ZN9ShaderLab22SerializedBindChannels8TransferI19StreamedBinaryWriteILb0EEEEvRT_
cAb:__ZN15SerializeTraitsI5RectTIiEE8TransferI14SafeBinaryReadEEvRS1_RT_
Psh:__Z82RuntimeInvoker_Int32_t2071877448_RuntimeObject_Int32_t2071877448_Int16_t4041245914PFvvEPK10MethodInfoPvPS4_
zAc:__ZN5IMGUI20MoveWindowFromLayoutER8GUIStateiRK5RectTIfE
fni:_UrlAttribute_get_UrlValue_m3448699483
Q0c:_UNITY_FT_Stream_ReadUShort
d_d:_InputField_OnEnable_m3797157569
$sc:__Z51Register_UnityEngine_GUILayer_INTERNAL_CALL_HitTestv
myc:__ZN4Grid8TransferI18StreamedBinaryReadILb0EEEEvRT_
G_a:__ZNSt3__26__treeINS_12__value_typeIN4core12basic_stringIcNS2_20StringStorageDefaultIcEEEES6_EENS_19__map_value_compareIS6_S7_NS_4lessIS6_EELb1EEE13stl_allocatorIS7_L18MemLabelIdentifier1ELi16EEE7destroyEPNS_11__tree_nodeIS7_PvEE
P9i:_Nullable_1__ctor_m796575255_gshared
sTj:__ZN6il2cpp2vm8Profiler7GCEventE13Il2CppGCEvent
Cke:_DateTimeUtils_ToString_m3878360633
DEj:__ZN15dense_hashtableINSt3__24pairIK10KeyWrapperIP11Il2CppClassES4_EES5_N6il2cpp8metadata16SZArrayClassHashEN14dense_hash_mapIS5_S4_SA_NS5_14EqualsComparerINS9_19SZArrayClassCompareEEENS0_9allocatorIS7_EEE9SelectKeyESE_SG_E4findERS6_
OFj:__ZN6il2cpp6icalls8mscorlib6SystemL16ThrowInvalidCastEPK11Il2CppClassS5_
Xqa:__Z13IsDepthFormat14GraphicsFormat
uhb:__ZN12AspectRatios8TransferI24GenerateTypeTreeTransferEEvRT_
GOd:_StandaloneInputModule_ForceAutoSelect_m1167170508
hyi:_Bounds_GetHashCode_m458298790
Q8h:_InternalEnumerator_1_MoveNext_m1636015243_gshared
yZc:__Z12FormatBufferPciPKcz
ROd:_TouchInputModule_Process_m1373751353
C_c:__ZN15SerializeTraitsI13dynamic_arrayI4PPtrIN13TextRendering4FontEELj4EEE19ResizeSTLStyleArrayERS5_i
Pbh:_MethodBuilder_Invoke_m1874904900
cij:__ZN6il2cpp2vm5Class13GetArrayClassEP11Il2CppClassj
GQb:__ZN19RuntimeSceneManager18LoadSceneAsyncIntoER10UnitySceneRKN4core12basic_stringIcNS2_20StringStorageDefaultIcEEEENS_11LoadingModeEb
S8g:_DerivedType_InvokeMember_m4149586013
sEg:__ZL88UTF7Encoding_t741406939_CustomAttributesCacheGenerator_UTF7Encoding_GetBytes_m3015176946P21CustomAttributesCache
UTf:_TlsStream_SetLength_m1460039587
GAc:__ZN11IMGUIModule12AddGUIScriptER8ListNodeI13MonoBehaviourE
rb:invoke_difi
LMd:_PointerEventData_set_rawPointerPress_m1484888025
Jea:__ZL50StaticRegisterSceneLoadedCallback_LightmapSettingsPv
F9d:_SimpleEnumerator_Clone_m215554974
Woh:__Z119RuntimeInvoker_Void_t1841601450_RuntimeObject_RuntimeObject_RuntimeObject_RuntimeObject_Int32_t2071877448_RuntimeObjectPFvvEPK10MethodInfoPvPS4_
gZb:__ZN29MotionVectorRenderLoopScratch15ThreadedCleanupEv
Rm:FUNCTION_TABLE_iiffi
OWd:_GridLayoutGroup_get_cellSize_m1061731753
CKj:__ZN15dense_hashtableINSt3__24pairIK10KeyWrapperINS1_IPKcS4_EEEiEES6_24NamespaceAndNamePairHashN14dense_hash_mapIS6_iS9_NS6_14EqualsComparerI26NamespaceAndNamePairEqualsEENS0_9allocatorIS8_EEE9SelectKeyESD_SF_E12expand_arrayEjN21dense_hash_map_traits17integral_constantIbLb0EEE
D4h:_EqualityComparer_1_System_Collections_IEqualityComparer_Equals_m300683774_gshared
c8a:__ZN15SerializeTraitsI13dynamic_arrayItLj2EEE19ResizeSTLStyleArrayERS1_i
vqa:__ZN21GLESGpuProgramApplier11ApplyVectorERKN20GpuProgramParameters14ValueParameterEPK8Vector4ft
Wod:__ZN22BaseUnityConnectClient17SaveSessionValuesEv
Nva:__ZN6prcoreL27StretchGenericFloatBilinearI18TexFormatRGBAFloatEEvPKNS_9InnerInfoE
Cvi:_Parser_IsIgnoreCase_m4155598997
lUi:_GUILayoutUtility_LayoutSingleGroup_m3024581181
dJj:__ZN15dense_hashtableINSt3__24pairIK10KeyWrapperIP14Il2CppIUnknownEjEES5_N6il2cpp5utils11PointerHashIS3_EEN14dense_hash_mapIS5_jSB_NS5_14EqualsComparerINS0_8equal_toIS4_EEEENS0_9allocatorIS7_EEE9SelectKeyESG_SI_E12expand_arrayEjN21dense_hash_map_traits17integral_constantIbLb0EEE
c7c:_cff_size_done
j2b:__ZN29ExtractProjectionPlanesHelperILb1EE5ApplyERK10Matrix4x4fP5Plane
I4h:_EqualityComparer_1_System_Collections_IEqualityComparer_Equals_m3376587337_gshared
MUb:__ZN22RenderingCommandBuffer13GetAndCheckRTE24BuiltinRenderTextureTypeRKN9ShaderLab16FastPropertyNameEPKcPP13RenderTexture
q6b:__ZN6Camera34UpdatePreviousViewProjectionMatrixEv
d_a:__ZN9ShaderLab11ShaderState25RemoveUnsupportedProgramsEPK6Shader
urb:__ZL23AddGpuProgramParametersR20GpuProgramParametersRKNSt3__26vectorIN9ShaderLab20SerializedSubProgram15MatrixParameterENS1_9allocatorIS5_EEEERKNS2_INS4_15VectorParameterENS6_ISB_EEEEiP16PropertyNamesSet
aLg:__ZL179U3CCreateWhereIteratorU3Ec__Iterator1D_1_t2523986802_CustomAttributesCacheGenerator_U3CCreateWhereIteratorU3Ec__Iterator1D_1_System_Collections_IEnumerator_get_Current_m1354814095P21CustomAttributesCache
ixc:__Z44Register_UnityEngine_Object_DestroyImmediatev
gs:__ZNSt3__26__sortIR12GreaterLayerPP14AnimationStateEEvT0_S6_T_
wvg:__ZL57CompareOptions_t2829943955_CustomAttributesCacheGeneratorP21CustomAttributesCache
tzg:__ZL62_ConstructorBuilder_t1236878896_CustomAttributesCacheGeneratorP21CustomAttributesCache
xnc:__Z26scripting_class_has_parent17ScriptingClassPtrS_
H_e:_Int64_System_IConvertible_ToInt16_m2022633688_AdjustorThunk
saf:_OrdinalComparer__ctor_m2952942058
Nrd:__ZNSt3__26__treeINS_12__value_typeIN4core12basic_stringIcNS2_20StringStorageDefaultIcEEEEN11UnityEngine7Connect19RemoteSettingsValueEEENS_19__map_value_compareIS6_SA_NS_4lessIS6_EELb1EEE13stl_allocatorISA_L18MemLabelIdentifier6ELi16EEE16__construct_nodeERKNS_4pairIKS6_S9_EE
AQi:_Transform_INTERNAL_get_localPosition_m130325652
JZ:__Z71Register_UnityEngine_AudioSource_INTERNAL_CALL_ClearExtensionPropertiesv
Q$j:__ZN6il2cpp8metadata25Il2CppGenericClassCompare7CompareEPK18Il2CppGenericClassS4_
gI:__ZNK8Animator20IsInMatchTargetStateEv
tMg:__ZL115DebugLogHandler_t865810509_CustomAttributesCacheGenerator_DebugLogHandler_Internal_LogException_m4229368478____obj1P21CustomAttributesCache
g7i:__ZL25UnresolvedVirtualCall_178P12Il2CppObject20UIVertex_t1204258818S1_PK10MethodInfo
TQ:__ZN13AudioListener23VirtualRedirectTransferER24GenerateTypeTreeTransfer
Gm:FUNCTION_TABLE_viiifiii
lBc:__Z36Register_UnityEngine_GUI_set_changedv
WRd:_ColorTween_get_startColor_m278546349_AdjustorThunk
Zdg:_Encoding_get_Unicode_m1382741113
cyi:_Behaviour_set_enabled_m602406666
Hoi:_LifetimeServices_set_SponsorshipTimeout_m1403222216
rVe:_NumberFormatInfo_get_PositiveSign_m3396333026
CJh:__Z37RuntimeInvoker_Enumerator_t1147558385PFvvEPK10MethodInfoPvPS4_
K7d:_Char_ToString_m1401375624_AdjustorThunk
iAe:_Array_InternalArray__ICollection_Add_TisTableRange_t2011406615_m147373358_gshared
Kge:_Convert_ToDateTime_m1251728572
kAe:_Array_InternalArray__ICollection_Add_TisBoolean_t3825574718_m1009318882_gshared
SDf:_ReadOnlyCollection_1_System_Collections_IList_set_Item_m1149349508_gshared
rC:__ZN27AnimationLayerMixerPlayable18SetInputConnectionEP8Playablei
dQg:__ZL101Transform_t3275118058_CustomAttributesCacheGenerator_Transform_INTERNAL_set_localRotation_m1514748659P21CustomAttributesCache
aC:__ZN7mecanim28TransformValueArrayBlendNodeEiiiRKNS_10ValueArrayERKNS_14ValueArrayMaskERS0_RS3_RNS_16ValueArrayWeightEf
V8f:_ObjectReader_ReadObjectContent_m3949770110
Sif:_List_1_System_Collections_ICollection_get_SyncRoot_m3031553207_gshared
tFi:_Mesh_get_colors32_m1054093013
Djj:__ZN6il2cpp2vm5Class40GetInterfaceInvokeDataFromVTableSlowPathEPK12Il2CppObjectPK11Il2CppClassj
qVa:__ZN20TierGraphicsSettings8TransferI18StreamedBinaryReadILb0EEEEvRT_
fSh:_Text_get_font_m3115501113
XEj:__GLOBAL__sub_I_Thread_cpp
O_a:__ZN14SafeBinaryRead8TransferINSt3__24pairIN9ShaderLab16FastPropertyNameE10ColorRGBAfEEEEvRT_PKc17TransferMetaFlags
rej:__ZL9rshift128PyS_
S9b:__Z10pqHeapInitP13PriorityQHeap
P8f:_ObjectReader_RecordFixup_m1893348030
QHe:_LayoutGroup_SetProperty_TisRuntimeObject_m1703476175_gshared
M9g:_EnumBuilder_GetElementType_m1228393631
LCj:__ZN14dense_hash_mapI10KeyWrapperINSt3__24pairIPK12PropertyInfoP11Il2CppClassEEEj17ReflectionMapHashIS8_ENS9_14EqualsComparerINS1_8equal_toIS8_EEEENS1_9allocatorINS2_IKS9_jEEEEE13set_empty_keyERSH_
Rg:_glRenderbufferStorage
mKj:__ZNK15dense_hashtableINSt3__24pairIK10KeyWrapperINS1_IPKcS4_EEEiEES6_24NamespaceAndNamePairHashN14dense_hash_mapIS6_iS9_NS6_14EqualsComparerI26NamespaceAndNamePairEqualsEENS0_9allocatorIS8_EEE9SelectKeyESD_SF_E13find_positionERS7_
Qwg:__ZL80ILGenerator_t99948092_CustomAttributesCacheGenerator_ILGenerator_Emit_m116557729P21CustomAttributesCache
Quj:_RaycastHit_get_point_m3350410423_AdjustorThunk
Htc:__Z45Register_UnityEngine_Input_get_touchSupportedv
_pd:__ZN11UnityEngine15PlatformWrapper28GetTextureFormatSupportFlagsEv
I2c:_UNITY_FT_Create_Class_pshinter_module_class
mHd:_String_CompareOrdinalCaseInsensitiveUnchecked_m2002640463
c5d:_Boolean_GetHashCode_m1894638460
G7c:_cf2_setError
cUe:_AppDomainInitializer_BeginInvoke_m2446455399
mgg:_UTF7Encoding_InternalGetChars_m4157428055
Ykb:__Z33InterpolateLightProbeCoefficientsRK17LightProbeContextRK29LightProbeSamplingCoordinatesR20SphericalHarmonicsL2
eWh:_Enumerator_Reset_m3129803197_AdjustorThunk
dTb:__ZZ23InitPlayerLoopCallbacksvEN35PreUpdateSendMouseEventsRegistrator7ForwardEv
qPe:_SmallXmlParser_HandleBufferedContent_m3397096753
yBh:__Z55RuntimeInvoker_Void_t1841601450_SpriteState_t1353336012PFvvEPK10MethodInfoPvPS4_
Loa:__ZNK6Camera25GetNormalizedViewportRectEP13RenderTextureb
ch:_glDisable
l$d:_InputField_OnDeselect_m3963675647
fai:_InternalEnumerator_1_MoveNext_m1994485778_AdjustorThunk
rZa:__ZN13RenderTexture8TransferI24GenerateTypeTreeTransferEEvRT_
Zaf:_KeyValuePair_2_get_Value_m1916631176_AdjustorThunk
X6g:_MethodBase__ctor_m3951051358
kw:__ZN7mecanim9animation9DenseClip8TransferI24GenerateTypeTreeTransferEEvRT_
HSj:__ZN6il2cpp5utils11StringUtils15StringDuplicateEPKDsj
xTd:_Dropdown_get_template_m3014799983
p0f:_BaseMachine_Scan_m122450399
_A:__ZN17AnimationPlayable17ProcessRootMotionEP35AnimationPlayableEvaluationConstantP32AnimationPlayableEvaluationInputP33AnimationPlayableEvaluationOutput
v8d:_ArrayList_CopyTo_m2353632788
MCi:_GameObject_get_activeSelf_m2643917226
wxg:__ZL71AssemblyFileVersionAttribute_t2897687916_CustomAttributesCacheGeneratorP21CustomAttributesCache
Aea:__ZNSt3__26vectorINS_4pairIyP17VertexDeclarationEENS_9allocatorIS4_EEE6assignIPS4_EENS_9enable_ifIXaasr21__is_forward_iteratorIT_EE5valuesr16is_constructibleIS4_NS_15iterator_traitsISB_E9referenceEEE5valueEvE4typeESB_SB_
bhf:_List_1_Add_m943275925_gshared
fgk:b119
Xwd:_HMAC_get_BlockSizeValue_m603907214
aUb:__ZNK8Material12GetPassCountEv
Yde:_Enumerator__cctor_m3784927209
Xfk:b110
Yfk:b111
Zfk:b112
U4j:_bitshift64Ashr
agk:b114
bgk:b115
cgk:b116
dgk:b117
Qmj:__ZN30dense_hashtable_const_iteratorINSt3__24pairIK10KeyWrapperIN6il2cpp5utils13dynamic_arrayIPK10Il2CppTypeLj4EEEEPFvvEEESA_NS3_8metadata19Il2CppSignatureHashEN14dense_hash_mapISA_SD_SG_NSA_14EqualsComparerINSF_22Il2CppSignatureCompareEEENS0_9allocatorISE_EEE9SelectKeyESK_SM_E30advance_past_empty_and_deletedEv
oWc:__ZN11Rigidbody2D23VirtualRedirectTransferER14SafeBinaryRead
nsa:__ZN4crnd12crn_unpacker22decode_alpha_endpointsEv
P2b:__Z23CullDynamicObjectsUmbraPK4AABBPKN5Umbra15OcclusionBufferER9IndexList
k5g:__ZL67FieldWithTarget_t2256174789_CustomAttributesCacheGenerator_m_TargetP21CustomAttributesCache
jvf:_Collection_1_RemoveItem_m2565709010_gshared
QD:__ZThn148_NK26AnimatorControllerPlayable41GetStateMachineBehaviourVectorDescriptionEv
I4c:_tt_cmap4_char_next
Hpf:_Queue_1_System_Collections_ICollection_get_IsSynchronized_m307125669_gshared
WAh:__Z49RuntimeInvoker_TouchScreenKeyboardType_t875112366PFvvEPK10MethodInfoPvPS4_
AEi:_Mathf_Approximately_m1944881077
azh:__Z444RuntimeInvoker_Boolean_t3825574718_RuntimeObject_RuntimeObject_RuntimeObject_ColorU26_t3402129837_Int32_t2071877448_Single_t2076509932_Single_t2076509932_Int32_t2071877448_SByte_t454417549_SByte_t454417549_Int32_t2071877448_Int32_t2071877448_Int32_t2071877448_Int32_t2071877448_SByte_t454417549_Int32_t2071877448_Single_t2076509932_Single_t2076509932_Single_t2076509932_Single_t2076509932_SByte_t454417549_SByte_t454417549_UInt32U26_t2197289955PFvvEPK10MethodInfoPvPS4_
TGi:_GeneralNames_ToString_m800435094
PPd:_BaseMeshEffect_OnDidApplyAnimationProperties_m2484799839
ZBg:__ZL73AsymmetricSignatureDeformatter_t3580832979_CustomAttributesCacheGeneratorP21CustomAttributesCache
TId:_ASCIIEncoding_GetString_m3931709239
MDd:_Evidence_GetHashCode_m1260371757
MSi:_Vector4_Equals_m2166390052
NNi:_RectTransform_SetInsetAndSizeFromParentEdge_m2595554673
m4:__GLOBAL__sub_I_runtime_assetbundles_1_cpp
hS:__ZN4FMOD7Channel11setPositionEjj
Wh:_glBindSampler
ZVj:_GC_reclaim_block
fFf:_ReadOnlyCollection_1_System_Collections_Generic_ICollectionU3CTU3E_Clear_m964488020_gshared
dFd:_SecurityFrame_get_Domain_m3219347572_AdjustorThunk
_h:_glGetVertexAttribiv
oHd:_String_IndexOfAny_m2027595557
mAe:_Array_InternalArray__ICollection_Add_TisChar_t3454481338_m422084244_gshared
Gkj:__ZNSt3__218uninitialized_fillIPNS_4pairIK10KeyWrapperIPKcEP11Il2CppClassEES9_EEvT_SB_RKT0_
Vhd:__ZN2UI11CanvasGroup23VirtualRedirectTransferER18StreamedBinaryReadILb0EE
Imi:_OutAttribute__ctor_m1447235100
cFf:_ReadOnlyCollection_1_get_Item_m3778245964_gshared
CHg:__ZL52EventArgs_t3289624707_CustomAttributesCacheGeneratorP21CustomAttributesCache
DPi:_Texture__ctor_m1220114221
WHc:__ZN8JSONRead8TransferIbEEvRT_PKc17TransferMetaFlagsb
psf:_Collection_1_RemoveAt_m290627370_gshared
IMd:_PointerEventData_get_lastPress_m3835070463
wYf:_X509KeyUsageExtension_Decode_m3292847033
Bxh:__Z32RuntimeInvoker_Scene_t1684909666PFvvEPK10MethodInfoPvPS4_
hAh:__Z52RuntimeInvoker_RaycastResult_t21186376_RuntimeObjectPFvvEPK10MethodInfoPvPS4_
Teh:_Module_filter_by_type_name_ignore_case_m3574895736
PAg:__ZL57ProxyAttribute_t4031752430_CustomAttributesCacheGeneratorP21CustomAttributesCache
H3a:__ZN26CustomRenderTextureManager19PreAllocateMaterialEP19CustomRenderTexture
GZc:__ZN19ControllerHitReport13onObstacleHitERKN5physx23PxControllerObstacleHitE
v8f:_ObjectReader_ReadObject_m397855326
CUj:_GC_promote_black_lists
PXd:_Image_get_fillAmount_m3354146540
KIc:__Z29Transfer_Blittable_ArrayFieldI8JSONRead8Vector4fEvRT_R9ArrayInfoRK23StaticTransferFieldInfo
Kef:_List_1_Sort_m1518807012_gshared
_n:FUNCTION_TABLE_vf
zo:FUNCTION_TABLE_vd
slg:_Type_GetMethod_m1930231379
Bo:FUNCTION_TABLE_vi
V5:__ZN13RuntimeStaticI37UnityShaderCompilerExtPluginConfigureLb0EE16StaticInitializeEPv
QSh:_Text_CalculateLayoutInputVertical_m1732119136
yrd:__ZN11UnityEngine7Connect17DeviceStatusEvent20SetDeviceAspectRatioEf
twg:__ZL55StreamReader_t2360341767_CustomAttributesCacheGeneratorP21CustomAttributesCache
GKe:_SimpleCollator_GetContraction_m1391584430
f5d:_CultureInfo_get_InvariantCulture_m398972276
H4d:_Boolean_System_IConvertible_ToInt64_m4142756949_AdjustorThunk
pO:__ZNK8Animator17HasBoundPlayablesEv
$Wc:__ZN17Physics2DSettings8TransferI24GenerateTypeTreeTransferEEvRT_
jCc:__ZN5Unity9rapidjson13GenericReaderINS0_4UTF8IcEES3_13JSONAllocatorE10ParseFalseILj0ENS0_19GenericStringStreamIS3_EENS0_15GenericDocumentIS3_S4_S4_EEEEvRT0_RT1_
aJf:_HMAC_initializePad_m3828610671
uQg:__ZL68DrivenTransformProperties_t2488747555_CustomAttributesCacheGeneratorP21CustomAttributesCache
bAd:_RSAParameters_t1462703416_marshal_pinvoke_cleanup
asj:__ZN6il2cpp2vm7Runtime9SetConfigEPKc
OCc:__ZN5Unity9rapidjson12PrettyWriterI16TempBufferWriterNS0_4UTF8IcEES4_13JSONAllocatorE10StartArrayEv
Noi:_ConfigHandler_OnChars_m2004226744
ua:invoke_iiifiii
qHj:__ZN6il2cpp2vm9Exception11FromNameMsgEPK11Il2CppImagePKcS6_S6_
dVe:_NumberFormatInfo_get_NumberDecimalDigits_m3706097953
dlg:_Type_internal_from_name_m1506974323
hn:FUNCTION_TABLE_fiiifii
FN:__ZN10HumanTrait15InitializeClassEv
Jga:__Z14GetTimeManagerv
NKf:_ContentInfo_get_ContentType_m2984320800
acc:__ZneRK20SpriteTilingPropertyS1_
Qud:__ZN19TransportJavaScript7CleanupEv
xMa:__Z12GUIDToStringRK9UnityGUIDPc
myi:_Bounds_get_center_m2113902127_AdjustorThunk
DKi:_PlayableOutputHandle_GetHashCode_m191656281
PWi:_InvokableCall_1_Invoke_m3574781157_gshared
vV:__ZN11AudioSource22UnmuteActiveVideoSinksEv
ESj:__ZN4utf88internal20is_overlong_sequenceIiEEbjT_
oVg:__ZL87AudioSource_t1135106623_CustomAttributesCacheGenerator_AudioSource_get_clip_m2622010175P21CustomAttributesCache
Ui:_glReadBuffer
lOa:__Z9SetLocalR15TransformAccessRKN4math7_float4Ey
L9d:_SynchronizedArrayListWrapper_get_Count_m4104930530
Rwd:_HashAlgorithm_get_HashSize_m2625667696
H_b:__Z30SetupBakedOcclusionForGeometrybRK26SharedLightmapSettingsDataRK15LightmapIndicesR17ShaderPassContext
lCi:_UnityEventBase_UnityEngine_ISerializationCallbackReceiver_OnBeforeSerialize_m3933203561
vFe:_Array_Resize_TisVector4_t2243707581_m1528805937_gshared
cDd:_SecurityPermission_IsSubsetOf_m1087302418
Drc:__Z41Register_UnityEngine_Cursor_get_lockStatev
zTi:_Event_Internal_GetMousePosition_m2992465246
d_b:__Z14SetupLightmapsRK8Vector4fS1_R17ShaderPassContext
jBj:__ZN14dense_hash_mapI10KeyWrapperIPK14Il2CppAssemblyEPK22Il2CppMonoAssemblyNameN6il2cpp5utils11PointerHashIS2_EENS4_14EqualsComparerINSt3__28equal_toIS3_EEEENSD_9allocatorINSD_4pairIKS4_S7_EEEEE13set_empty_keyERSJ_
b2f:_Interval_get_Empty_m3170923997
nYa:__ZL20InitializeGUIShadersv
sec:__Z20DestroyObjectDelayedP6Objectf
z3:__ZN20DynamicHeapAllocatorI17LowLevelAllocatorED0Ev
A_d:_InputField_OnDrag_m726194348
h7i:__ZL25UnresolvedVirtualCall_179P12Il2CppObject19Vector2_t2243707579S1_PK10MethodInfo
DOc:__ZN10ClipperLib11ClipperBase5ResetEv
vmi:_GuidAttribute__ctor_m1099153635
OLe:_PreviousInfo__ctor_m1442166472_AdjustorThunk
AXb:__ZN9DepthPassD2Ev
ele:_DateTime_get_Kind_m1331920314_AdjustorThunk
Q8i:_TextGenerator_get_rectExtents_m954923136
aR:__ZN11AudioFilter6GetDSPEv
idh:_PropertyBuilder_get_Module_m1618339927
E8:__ZN19RuntimeSceneManager14CanUnloadSceneEP10UnityScene
Xrh:__Z50RuntimeInvoker_Single_t2076509932_Int64_t909078037PFvvEPK10MethodInfoPvPS4_
CXb:__Z22ExtractRenderNodeQueueRK11CullResults15ExtractionFlagsR15RenderNodeQueue
uEe:_Array_InternalArray__set_Item_TisContentType_t1028629049_m703420360_gshared
nPj:__ZN6il2cpp2vm6Method7GetNameEPK10MethodInfo
jpf:_List_1_set_Item_m1431784996_gshared
hQ:__ZN24AudioScriptBufferManagerC2Ev
SJc:__ZN11UnityEngine9Analytics18SceneLoadTimeEvent12ToJsonStringER9JSONWrite
K$c:__ZNSt3__26vectorIh13stl_allocatorIhL18MemLabelIdentifier1ELi16EEE8__appendEj
Llh:__Z95RuntimeInvoker_Void_t1841601450_RuntimeObject_Int32_t2071877448_Int32_t2071877448_RuntimeObjectPFvvEPK10MethodInfoPvPS4_
aCc:__ZN8JSONRead32GetValueForKeyWithNameConversionEPKN5Unity9rapidjson12GenericValueINS1_4UTF8IcEE13JSONAllocatorEEPKc
N$c:__ZN20TextRenderingPrivate8FontImpl16ResetPackingDataEv
R6i:__ZL25UnresolvedVirtualCall_161P12Il2CppObject22UICharInfo_t3056636800PK10MethodInfo
Zye:_Array_InternalArray__IndexOf_TisLink_t865133271_m3612939760_gshared
lDi:_Input_get_mousePresent_m1100327283
JDc:__Z18Transfer_BlittableI9JSONWriteLb0EfEvRK29SerializationCommandArgumentsR31RuntimeSerializationCommandInfo
Fra:__Z21GetAsyncUploadManagerv
Lj:_emscripten_glDetachShader
Ksg:__ZL66RuntimeArray_CustomAttributesCacheGenerator_Array_Sort_m3500510484P21CustomAttributesCache
NJe:_SafeHandleZeroOrMinusOneIsInvalid_get_IsInvalid_m2033528032
w7d:_Char_IsUpper_m4083577610
tra:__ZN17GenericDynamicVBO20ReleaseChunkInternalERK21DynamicVBOChunkHandlejj
wcd:__ZL27CleanupModule_TextRenderingv
MJe:_SafeHandleZeroOrMinusOneIsInvalid__ctor_m3340306667
t1j:_fmodl
V9f:_SerializationInfo_AddValue_m902275108
H1j:_fmodf
cyf:_Collection_1_RemoveItem_m2272047354_gshared
oHb:__Z18Transfer_BlittableI18StreamedBinaryReadILb1EELb1E4AABBEvRK29SerializationCommandArgumentsR31RuntimeSerializationCommandInfo
uFa:__ZN12CachedWriter11Align4WriteEv
GYb:__Z20DoDeferredRenderLoopR17RenderLoopContextR13dynamic_arrayI16RenderObjectDataLj4EES4_RK11CullResultsRP13RenderTextureSA_Pb
hJa:__ZNSt3__26vectorIiNS_9allocatorIiEEE21__push_back_slow_pathIKiEEvRT_
KQb:__ZN19RuntimeSceneManager11CreateSceneEv
TRi:_Vector2_op_Implicit_m385881926
U6c:_ps_get_standard_strings
G_b:__Z27SetupBakedOcclusionForLightbRK15SharedLightDataR17ShaderPassContext
ow:__ZN24GenerateTypeTreeTransfer8TransferIN13AnimationClip9PPtrCurveEEEvRT_PKc17TransferMetaFlags
tWf:__ZN21InterfaceFuncInvoker1IP13Uri_t19570940S1_E6InvokeEjP11Il2CppClassP12Il2CppObjectS1_
B7i:__ZL25UnresolvedVirtualCall_199P12Il2CppObject22Navigation_t1571958496PK10MethodInfo
tPh:_ScrollRect_OnScroll_m3346515304
_3j:__ZN10__cxxabiv116__shim_type_infoD2Ev
Ocf:_Enumerator_System_Collections_IEnumerator_get_Current_m3461301268_gshared
qlh:__Z63RuntimeInvoker_Void_t1841601450_Int32_t2071877448_RuntimeObjectPFvvEPK10MethodInfoPvPS4_
