Dc:_glClearStencil
TAe:_Array_InternalArray__ICollection_Add_TisMark_t2724874473_m1613484179_gshared
C0g:__ZL80Graphic_t2426225576_CustomAttributesCacheGenerator_Graphic_OnFillVBO_m1723985607P21CustomAttributesCache
LPj:__ZN6il2cpp2vm5Array13GetByteLengthEP11Il2CppArray
YMh:_Raycast3DCallback_BeginInvoke_m3028685017
wlh:__Z79RuntimeInvoker_RuntimeObject_Int64_t909078037_Int64_t909078037_Int64_t909078037PFvvEPK10MethodInfoPvPS4_
$8i:_TextGenerator_Invalidate_m1993568841
mGf:_Comparison_1_Invoke_m353639462_gshared
bSa:__Z30GetIntermediateRendererManagerv
gK:__ZN10StateRange8TransferI14SafeBinaryReadEEvRT_
Dsa:__Z21SourceMipLevelForBlitiiii
JWa:__ZN31CanvasBatchIntermediateRenderer15AddAsRenderNodeER15RenderNodeQueueRK20DeprecatedSourceData
$de:_Enumerator_get_Key_m2908810861
SK:__ZN15SerializeTraitsIN7mecanim6bitsetILj70EEEE8TransferI14SafeBinaryReadEEvRS2_RT_
red:__ZN18StreamedBinaryReadILb0EE19TransferSTLStyleMapINSt3__23mapIN4math12int3_storageE17TileAnimationData20TilemapPosition_Less13stl_allocatorINS2_4pairIKS5_S6_EEL18MemLabelIdentifier95ELi16EEEEEEvRT_17TransferMetaFlags
VTi:_GUI_DoSetSkin_m2532620610
Ux:__ZN11UnityEngine9Animation28GenericAnimationBindingCacheD2Ev
ms:__ZN15AnimationBinder13SetFloatValueERK20BoundCurveDeprecatedf
cef:_List_1_System_Collections_IList_IndexOf_m39706221_gshared
K$h:_Dictionary_2_Remove_m1849931834_gshared
Rge:_Decimal_op_Implicit_m2971610317
gVi:_GUILayoutGroup_ResetCursor_m3614985691
cTd:_Graphic_UnregisterDirtyVerticesCallback_m1526739224
X4b:__Z18RestoreRenderStateR20CameraRenderOldStateR17ShaderPassContext
J9d:_SynchronizedArrayListWrapper_get_Item_m3309425850
DHb:__Z18Transfer_BlittableI18StreamedBinaryReadILb1EELb1E5RectTIfEEvRK29SerializationCommandArgumentsR31RuntimeSerializationCommandInfo
kCi:_UnityEventBase_RebuildPersistentCallsIfNeeded_m2776978024
vDb:__Z18Transfer_BlittableI24GenerateTypeTreeTransferLb0E11ColorRGBA32EvRK29SerializationCommandArgumentsR31RuntimeSerializationCommandInfo
Caa:__Z25scripting_class_from_name17ScriptingImagePtrPKcS1_
MCj:__ZN14dense_hash_mapI10KeyWrapperINSt3__24pairIPK12PropertyInfoP11Il2CppClassEEEj17ReflectionMapHashIS8_ENS9_14EqualsComparerINS1_8equal_toIS8_EEEENS1_9allocatorINS2_IKS9_jEEEEE15set_deleted_keyERSH_
HNb:__Z29scripting_class_enum_basetype17ScriptingClassPtr
Uwh:__Z111RuntimeInvoker_Void_t1841601450_Vector4_t2243707581_Vector4_t2243707581_Vector4_t2243707581_Vector4_t2243707581PFvvEPK10MethodInfoPvPS4_
jRc:__ZN16PhysicsManager2D7RaycastERK3RayfiR12RaycastHit2D
rbh:_GenericTypeParameterBuilder_GetHashCode_m867619899
gkg:_TimeSpan_ToString_m2947282901
_4h:_EqualityComparer_1__cctor_m3397254040_gshared
Yub:__ZNK20LocalFileSystemPosix6ParentERK13FileEntryDataRN4core12basic_stringIcNS3_20StringStorageDefaultIcEEEE
Hfa:__ZN15DirectorManager12CleanupClassEv
gGe:_Array_Sort_TisVector2_t2243707579_m1307634946_gshared
gqa:__ZN7ApiGLES17CopyBufferSubDataEjjlll
_ng:_UInt64_System_IConvertible_ToDecimal_m4205696037
eCc:__ZN5Unity9rapidjson15GenericDocumentINS0_4UTF8IcEE13JSONAllocatorS4_E11ParseStreamILj1ES3_NS0_25GenericInsituStringStreamIS3_EEEERS5_RT1_
O9i:_U3CCreateWhereIteratorU3Ec__Iterator1D_1_Reset_m1773515612_gshared
XYb:__ZN25CameraStackRenderingState20GetOrCreateBuiltinRTE24BuiltinRenderTextureTypeii17DepthBufferFormat19RenderTextureFormatj22RenderTextureReadWrite14VRTextureUsagei
Ecj:_scoring_addscore_m119767124
C$i:_AesManaged_CreateEncryptor_m1729287824
o9a:__ZNK14Texture2DArray26CanReuploadDataToGfxDeviceEv
q1b:__ZN17PrePassRenderLoop14RenderBasePassEP13RenderTextureRK14LightingLayersR13dynamic_arrayI16RenderObjectDataLj4EERbR10MinMaxAABB
GVd:_GraphicRegistry_RegisterGraphicForCanvas_m2284226562
O6d:_Char_System_IConvertible_ToInt16_m2741348777_AdjustorThunk
Uzc:__ZN5IMGUI18RepaintModalWindowER8GUIState
Izf:_ReadOnlyCollection_1_System_Collections_Generic_IListU3CTU3E_set_Item_m1547026160_gshared
TQa:__ZNK15dense_hashtableINSt3__24pairIKN9ShaderLab7Program23ShaderKeywordSetAndHashEPKNS2_10SubProgramEEES4_NS3_24ShaderKeywordHashFunctorEN14dense_hash_mapIS4_S8_SA_NS0_8equal_toIS4_EE13stl_allocatorIS9_L18MemLabelIdentifier67ELi16EEE9SelectKeyESD_SG_E23find_position_with_hashERS5_j
Itg:__ZL61MarshalAsAttribute_t2900773360_CustomAttributesCacheGeneratorP21CustomAttributesCache
X7a:__Z23SetSpriteMeshIndexCountP14SharedMeshDataj
AYa:__ZN7Texture13SetFilterModeEi
oqc:__Z46Register_UnityEngine_Application_get_isPlayingv
KRj:__ZN6il2cpp8metadata13GenericMethod9GetMethodEPK19Il2CppGenericMethod
vq:__ZNSt3__26vectorIN4core12basic_stringIcNS1_20StringStorageDefaultIcEEEENS_9allocatorIS5_EEE7reserveEj
kje:_Convert_ToUInt16_m2130758075
Uyj:__ZN15dense_hashtableINSt3__24pairIK10KeyWrapperINS1_IPK11Il2CppImageP11Il2CppClassEEEjEES9_17ReflectionMapHashIS8_EN14dense_hash_mapIS9_jSD_NS9_14EqualsComparerINS0_8equal_toIS8_EEEENS0_9allocatorISB_EEE9SelectKeyESI_SK_E3endEv
jZf:_X509BasicConstraintsExtension_Encode_m3505127076
pka:__ZN13GfxDeviceGLES11SetViewportERK5RectTIiE
aYd:_Image_get_pixelsPerUnit_m4104195799
uTh:_Toggle_InternalToggle_m2323729210
wne:_Decimal_System_IConvertible_ToInt64_m2504363272
W1d:_Array_GetValue_m3182152438
Ud:_emscripten_glDepthRange
Acg:_DESTransform_CipherFunct_m3559419566
Dyd:_Rijndael_Create_m113171669
e7b:__ZNSt3__26vectorINS_4pairIN4core12basic_stringIcNS2_20StringStorageDefaultIcEEEES6_EE13stl_allocatorIS7_L18MemLabelIdentifier38ELi16EEE12__move_rangeEPS7_SC_SC_
Xnb:__Z14resize_trimmedINSt3__26vectorIN9ShaderLab20SerializedSubProgram12UAVParameterENS0_9allocatorIS4_EEEEEvRT_j
yCc:__ZN5Unity9rapidjson13GenericReaderINS0_4UTF8IcEES3_13JSONAllocatorE11ParseObjectILj1ENS0_25GenericInsituStringStreamIS3_EENS0_15GenericDocumentIS3_S4_S4_EEEEvRT0_RT1_
Q7f:_SerializationInfo_AddValue_m1781549036
kNf:_TlsServerKeyExchange_verifySignature_m3641534563
enc:__ZN13BuildSettings34ConvertScenePathToDisplayScenePathERKN4core12basic_stringIcNS0_20StringStorageDefaultIcEEEE
Ica:__ZNSt3__218__insertion_sort_3IRNS_6__lessI14ObjectLoadDataS2_EEPS2_EEvT0_S6_T_
IRh:_Slider_FindSelectableOnLeft_m3136767885
bsa:__ZN4crndL20crnd_default_reallocEPvjPjbS0_
Oxe:_Array_BinarySearch_TisInt32_t2071877448_m51233948_gshared
y3j:__ZNSt3__212basic_stringIcNS_11char_traitsIcEENS_9allocatorIcEEEC2ERKS5_
l6f:_ProviderData_CopyFrom_m431414335
N8a:__ZN18SpriteAtlasManager19AddRequestingSpriteE4PPtrI6SpriteE
ylc:__ZN16PackedQuatVector9PackQuatsEP11Quaternionfi
Ovc:__Z33Texture_CUSTOM_Internal_GetHeightP12Il2CppObject
r0d:_LayoutGroup_get_preferredHeight_m3901163825
$3b:__ZN23ScriptableRenderContextC2Ev
fw:__ZN7mecanim9animation18ClipMuscleConstant8TransferI24GenerateTypeTreeTransferEEvRT_
uge:_DateTime_AbsoluteDays_m3061694073
cbd:_UNITY_FT_Stream_GetChar
cIb:__Z18Transfer_BlittableI18StreamedBinaryReadILb1EELb1EdEvRK29SerializationCommandArgumentsR31RuntimeSerializationCommandInfo
MVh:_Enumerator_System_Collections_IEnumerator_get_Current_m229223308_gshared
QNb:__Z26BuildSerializationCacheFor17ScriptingClassPtrRb
hya:__ZN7ApiGLES15BlitFramebufferEN2gl6HandleILNS0_10ObjectTypeE9EEENS0_15FramebufferReadES3_S3_iiiiiiiiNS0_15FramebufferTypeE
fFi:_Mesh_CheckCanAccessSubmeshTriangles_m2644388378
Auh:__Z112RuntimeInvoker_RuntimeObject_RuntimeObject_RuntimeObject_RuntimeObject_RuntimeObject_RuntimeObject_RuntimeObjectPFvvEPK10MethodInfoPvPS4_
uRi:_UnitySynchronizationContext__ctor_m1804960286
s9d:_FixedSizeArrayListWrapper_AddRange_m2071800418
pN:__ZN13ProduceHelperI8AnimatorLb0EE7ProduceE18MemLabelIdentifier18ObjectCreationMode
hPb:__Z9InitInputv
crh:__Z85RuntimeInvoker_Boolean_t3825574718_Int64_t909078037_Int64_t909078037_SByte_t454417549PFvvEPK10MethodInfoPvPS4_
Rcf:_Enumerator_VerifyState_m2358705882_AdjustorThunk
tEb:__Z29Transfer_Blittable_ArrayFieldI24GenerateTypeTreeTransfer11ColorRGBA32EvRT_R9ArrayInfoRK23StaticTransferFieldInfo
bwb:__ZN16MemoryFileSystem6DeleteER13FileEntryDatab
Vsa:__ZL21BlitScaleStbImageImplRK14ImageReferenceRS_NS_10ColorSpaceE
xNi:_RectTransform_INTERNAL_set_pivot_m4248720081
RTf:_TlsStream_set_Position_m378064217
bUc:__ZNSt3__26__sortIR31RayHitsByInverseDepthComparitorP12RaycastHit2DEEvT0_S5_T_
nzb:__Z29Transfer_Blittable_ArrayFieldI14SafeBinaryReadyEvRT_R9ArrayInfoRK23StaticTransferFieldInfo
yV:__ZN20SoundChannelInstance15setChannelGroupEPN4FMOD12ChannelGroupE
Ycj:_newGun_Update_m110982466
JDd:_Evidence_Equals_m2325859915
oKi:_PlayableHandle_INTERNAL_CALL_GetPlayableTypeOf_m1683061051
C6g:_Default__ctor_m172834064
rc:invoke_vifffii
nHj:__ZN6il2cpp2vm9Exception27RaiseNullReferenceExceptionEv
Lti:_Regex_IsMatch_m2159202025
$Ka:__ZNK25MultiBlocksMemoryFileData5CloneEv
mXj:_GC_add_ext_descriptor
w3f:_RemotingServices_GetMethodBaseFromName_m3271095947
C5j:dynCall_iiiiiiiiiiii
LId:_ASCIIEncoding_GetBytes_m3617160053
oMf:_CipherSuiteCollection_System_Collections_IList_RemoveAt_m143866082
Fsb:__ZL26KeywordSetToStringDontSortRKNSt3__26vectorIN4core12basic_stringIcNS1_20StringStorageDefaultIcEEEENS_9allocatorIS5_EEEERS5_
pod:__Z54Register_UnityEngine_Analytics_CustomEventData_AddCharv
Nua:__ZN6prcoreL17RemapGenericFloatI16TexFormatRGFloat17TexFormatRGBAHalfEEvPKNS_9InnerInfoE
VP:__ZN12AudioManager22CreateFMODSoundFromWWWEP10IWWWStream15FMOD_SOUND_TYPE17FMOD_SOUND_FORMATjjbbP10SampleClip
Pgc:__ZNK32RendererMaterialAnimationBinding15GenerateBindingERKN4core12basic_stringIcNS0_20StringStorageDefaultIcEEEEbRN11UnityEngine9Animation14GenericBindingE
R9:__ZN8Remapper23GetOrGenerateInstanceIDERK26SerializedObjectIdentifier
wv:__ZN17AnimationCurveTplI8Vector3fEC2ERKS1_
d5e:_StreamWriter_Flush_m3426120024
_a:invoke_iiiiiifffiiifii
J2e:_MemoryStream__ctor_m1489366847
bEd:_SecurityElement_IsValidTag_m64902195
Hhh:_PropertyInfo_SetValue_m2961483868
Mif:_List_1_System_Collections_IList_Contains_m4193366963_gshared
_6g:_ConstructorInfo_Invoke_m2144827141
i8a:__ZN6Sprite8TransferI24GenerateTypeTreeTransferEEvRT_
Wwc:__Z48Register_UnityEngine_Transform_SetAsFirstSiblingv
l8a:__ZN7SubMesh8TransferI24GenerateTypeTreeTransferEEvRT_
Lgh:_MonoProperty_get_CanWrite_m2124922514
Hqj:__ZN6il2cpp6icalls8mscorlib6SystemL16CheckMemberMatchI9FieldInfoNS_5utils10functional6FilterINSt3__212basic_stringIcNS8_11char_traitsIcEENS8_9allocatorIcEEEENS5_13VmStringUtils23CaseInsensitiveComparerEEEEEbPKT_PK11Il2CppClassSN_iRKT0_
z2j:_poll
v2e:_Stream_BeginRead_m1985960185
Iec:__ZN13ProduceHelperI14Texture2DArrayLb0EE7ProduceE18MemLabelIdentifier18ObjectCreationMode
Tw:__ZN7mecanim5human9HumanGoal8TransferI18StreamedBinaryReadILb0EEEEvRT_
EJf:_MD4Managed_GG_m1462438360
tuc:__Z53PlayableHandle_CUSTOM_INTERNAL_CALL_GetPlayableTypeOfR9HPlayable
gZc:__Z55Register_UnityEngine_Rigidbody2D_INTERNAL_CALL_AddForcev
boc:__ZN9Transform23SetSiblingIndexInternalEib
I7j:dynCall_iiiifiii
Eka:__ZN13GfxDeviceGLES17DestroySubProgramEPN9ShaderLab10SubProgramE
Sz:__ZN7mecanim5human12HumanPoseSubERNS0_9HumanPoseERKS1_S4_
sSi:_Vector3_Max_m2076081170
qJf:_MD4_Create_m2582504069
MLj:__ZN6il2cpp8metadata15GenericMetadata15GetGenericClassEiPK17Il2CppGenericInst
z4d:_Boolean_System_IConvertible_ToInt16_m977801621
Oxb:__Z18Transfer_BlittableI14SafeBinaryReadLb0E10Matrix4x4fEvRK29SerializationCommandArgumentsR31RuntimeSerializationCommandInfo
gNb:__Z24GetFixedBehaviourManagerv
iWb:__ZN12FlareManager9UpdateJobEP25FlareManagerUpdateJobData
kqj:__ZN6il2cpp2vm10ThreadPool4WaitEP17Il2CppAsyncResultPPv
wGi:_Plane__ctor_m730644932_AdjustorThunk
vWc:__ZN11Rigidbody2D8TransferI14SafeBinaryReadEEvRT_
K0j:_vfprintf
rAc:__ZN10GUIManager12AddGUIScriptER8ListNodeI13MonoBehaviourE
aWa:__ZN19ShaderPropertySheet20ReservePropertyCountEj
SWb:__ZN20DynamicPropertySheetD0Ev
j7b:__ZN14SafeBinaryRead17RegisterConverterEPKcS1_PFbPvRS_E
x5:__ZN35RegisterRuntimeInitializeAndCleanup8RegisterEPFvPvES2_iS0_
qEj:__ZNSt3__26vectorIN6il2cpp8metadata18GenericArrayMethodENS_9allocatorIS3_EEE7reserveEj
nu:__ZN7mecanim6memory16ChainedAllocator7ReserveEj
NEf:_ReadOnlyCollection_1_System_Collections_IList_Clear_m2600246370_gshared
HOe:_DSAManaged_NormalizeArray_m2287089393
$wc:__Z21Object_CUSTOM_DestroyP12Il2CppObjectf
ohi:_InternalEnumerator_1_System_Collections_IEnumerator_get_Current_m2389982234_AdjustorThunk
jsb:__ZN8Material26ResetAllCachedMaterialDataEP6Shader
mbd:_UNITY_TT_Get_MM_Var
Iej:__ZN6il2cpp6icalls8mscorlib6System7Decimal13decimal2Int64EP19il2cpp_decimal_reprPx
ba:invoke_diddi
gMd:_ExecuteEvents__cctor_m288775360
uhd:__ZNK2UI6Canvas13GetRenderModeEv
Ghe:_Double_TryParseStringConstant_m2585405703
_wb:__Z18Transfer_BlittableI14SafeBinaryReadLb0EiEvRK29SerializationCommandArgumentsR31RuntimeSerializationCommandInfo
Yoj:__ZN6il2cpp2vm13MetadataCache30GetPropertyDefinitionFromIndexEi
Yki:_ResourceEnumerator__ctor_m1679839941
Oyd:_RijndaelTransform_Clear_m1652144089
$0e:_MonoIO_GetException_m2577367044
Rrd:__ZN22BaseUnityConnectClient17InitializeSessionERKN4core12basic_stringIcNS0_20StringStorageDefaultIcEEEES6_N19CloudServiceHandler13InitModeFlagsE
oYh:_Enumerator_MoveNext_m1404007384_gshared
M9e:_NumberFormatter_get_IsZero_m1325357749
mL:__ZN15SerializeTraitsI9OffsetPtrIN7mecanim9animation23BlendDirectDataConstantEEE8TransferI24GenerateTypeTreeTransferEEvRS4_RT_
cFi:_Mesh_PrintErrorCantAccessIndices_m2990602703
Fbk:_emscripten_glDeleteBuffers__wrapper
Czh:__Z121RuntimeInvoker_Void_t1841601450_Single_t2076509932_Single_t2076509932_Single_t2076509932_Single_t2076509932_RuntimeObjectPFvvEPK10MethodInfoPvPS4_
Wqe:_Enum_ToObject_m322320225
Npc:__ZN13MonoBehaviour34StopCoroutineFromEnumeratorManagedE18ScriptingObjectPtr
pCd:_X509Certificate__ctor_m3860837120
eCh:__Z109RuntimeInvoker_RuntimeObject_Ray_t2469606224_Single_t2076509932_Int32_t2071877448_RuntimeObject_RuntimeObjectPFvvEPK10MethodInfoPvPS4_
IEf:_ReadOnlyCollection_1_System_Collections_Generic_IListU3CTU3E_set_Item_m3663361643_gshared
CN:__ZN7mecanim9animation14AvatarConstant15InitializeClassEv
PJc:__ZN11UnityEngine9Analytics18SceneLoadTimeEvent12SetSceneLoadERKN4core12basic_stringIcNS2_20StringStorageDefaultIcEEEEiyyyy
tjb:__ZN30RuntimeInitializeOnLoadManager8TransferI18StreamedBinaryReadILb0EEEEvRT_
B9g:_TypeBuilder_not_supported_m3178173643
E3c:_UNITY_tt_face_load_pclt
gpc:__ZL34GetComponentsImplementationRecurseILb1ELi0ELi2EEbR10GameObjectbRK17CompareParametersRK39GetComponentsImplementation_ReturnValue
OOc:__ZN10ClipperLib7Clipper24InsertLocalMinimaIntoAELEx
TZj:__ZN6il2cpp6icalls8mscorlib6System9Threading5Mutex20CreateMutex_internalEbP12Il2CppStringPb
$8d:_ArrayListWrapper_Remove_m1105489978
mWb:__ZNK6Camera18WorldToScreenPointERK8Vector3fPb
yVi:_GUISkin__ctor_m2824039590
Smd:__ZN14UnityAnalyticsD0Ev
Rce:_HashKeys_CopyTo_m3566668422
Dxa:__Z18IsCompressedFormat14GraphicsFormat
W6d:_Convert_ToSByte_m2665932200
b9:__ZNSt3__227__insertion_sort_incompleteIRPFbRKN18AwakeFromLoadQueue4ItemES4_EPS2_EEbT0_S9_T_
w8g:_ILGenerator_label_fixup_m1325994348
Qbg:_Base64Constants__cctor_m1807522504
anj:__ZN14dense_hash_mapI10KeyWrapperIN6il2cpp5utils13dynamic_arrayIPK10Il2CppTypeLj4EEEEPFvvENS1_8metadata19Il2CppSignatureHashENS8_14EqualsComparerINSB_22Il2CppSignatureCompareEEENSt3__29allocatorINSG_4pairIKS8_SA_EEEEE15set_deleted_keyERSJ_
ULh:_Navigation_Equals_m4214630671_AdjustorThunk
UBf:_ReadOnlyCollection_1_System_Collections_Generic_IListU3CTU3E_set_Item_m257196015_gshared
feh:_FieldInfo_GetPseudoCustomAttributes_m2500972355
n4a:__ZN26EnlightenSystemInformation8TransferI14SafeBinaryReadEEvRT_
kIe:_Array_InternalArray__get_Item_TisLink_t2723257478_m2281261655_gshared
jtd:__ZN11UnityEngine15PlatformWrapper20SetPlayerPrefsUInt64ERKN4core12basic_stringIcNS1_20StringStorageDefaultIcEEEEy
fcb:__ZN12MeshRendererD0Ev
TY:__ZN12AudioManager35GetCurrentSpatializerDefinitionNameEv
Tbe:_Hashtable__ctor_m2702360557
Dh:_utime
QSi:_Vector4_get_sqrMagnitude_m641641704_AdjustorThunk
sH:__Z28SetExposedSkeletonTransformsRKN7mecanim9animation14AvatarConstantERKN11UnityEngine9Animation30AnimatorGenericBindingConstantERKNS_8skeleton13SkeletonPoseTIN4math4trsXEEERKNSA_INSB_7affineXEEERNS5_21AvatarBindingConstantEy
ewe:_PlayableHandle_IsPlayableOfType_TisAnimationLayerMixerPlayable_t3057952312_m2522157783_AdjustorThunk
cIf:_PrimalityTest_Invoke_m4058801829
wn:FUNCTION_TABLE_viiiiif
V6f:_RemotingConfiguration_SetCustomErrorsMode_m1844153208
Bn:FUNCTION_TABLE_viiiiii
pte:_CultureInfo_GetFormat_m3560116485
RI:__ZN7mecanim9animation22DestroyAvatarWorkspaceEPNS0_15AvatarWorkspaceERNS_6memory9AllocatorE
lui:_AnchorInfo_get_IsPosition_m3791659233
w1b:__ZN15LightmapSTCacheC2ER13BatchRendererR15RenderLoopStats
Pzc:__ZNSt3__210__list_impIN10GUIManager12SortedScriptE11memory_poolIS2_EE5clearEv
V0a:__ZN14PlayableOutput17SetSourcePlayableEP8Playable
ljb:__ZNSt3__26vectorIN4core12basic_stringIcNS1_20StringStorageDefaultIcEEEE13stl_allocatorIS5_L18MemLabelIdentifier13ELi16EEE8__appendEj
k7f:_TrackingServices__cctor_m3639412334
hI:__ZN7mecanim9animation29MotionOutputGetDeltaTransformEPKNS0_12MotionOutputE
Fcc:__Z13RegisterClassI16GraphicsSettingsEvv
OJc:__ZN27PerformanceReportingManager21OnSceneTimingCallbackERK15SceneLoadTimingRKN4core12basic_stringIcNS3_20StringStorageDefaultIcEEEE
ZN:__ZN8Animator14OnAddComponentEPN5Unity9ComponentE
Rof:_List_1_CheckMatch_m1184924052_gshared
pwc:__Z43Transform_CUSTOM_INTERNAL_get_localRotationP12Il2CppObjectP11Quaternionf
M9j:_glGetShaderInfoLog__wrapper
gi:_emscripten_glGetTexParameteriv
S$j:__ZN6il2cpp8metadata21Il2CppGenericInstHash4HashEPK17Il2CppGenericInst
zKf:_RSAManaged_ImportParameters_m3060955884
dRc:__ZN9Polygon2D8TransferI18StreamedBinaryReadILb0EEEEvRT_
yni:_ChannelData_CopyFrom_m4049054607
Mcc:__Z13RegisterClassI4MeshEvv
s0a:__ZN8PlayableD0Ev
wR:__ZN12AudioManager8TransferI19StreamedBinaryWriteILb0EEEEvRT_
a3e:_WriteDelegate_Invoke_m2103848735
Hra:__ZN18AsyncUploadManager19AsyncResourceUploadER9GfxDeviceii9TextureID
R_i:_Locale_GetText_m512920887
D6f:_RemotingConfiguration_get_ProcessId_m3870172209
zQc:__ZN16CircleCollider2D10SmartResetEv
_Ve:_SortKey_ToString_m2406913228
Gub:__ZN22LocalFileSystemHandler9MakeLocalER13FileEntryDatab
rTj:__ZN6il2cpp2vm8Profiler10AllocationEP12Il2CppObjectP11Il2CppClass
Mge:_Convert_ToDateTime_m1020507389
e1c:__ZNSt3__23mapIN20TextRenderingPrivate7FontRefENS1_6OSFontENS_4lessIS2_EENS_9allocatorINS_4pairIKS2_S3_EEEEEixERS8_
eEi:_Material_SetInt_m2847439171
pia:__Z13FormatOrderedPKcz
Z0e:_Path_IsPathRooted_m1347207448
y8f:_ObjectManager_RegisterObjectInternal_m879109503
Mte:_Array_get_swapper_TisVector4_t2243707581_m97441823_gshared
t_c:__ZN14SafeBinaryRead21TransferSTLStyleArrayI10vector_mapINSt3__24pairIttEEfN20TextRenderingPrivate8FontImpl14KerningCompareENS2_9allocatorINS3_IS4_fEEEEEEEvRT_17TransferMetaFlags
hdc:__Z13RegisterClassI15QualitySettingsEvv
$Rj:__ZN6il2cpp2vm6String21InitializeEmptyStringEP11Il2CppClass
f1b:__ZN25DeferredRenderLoopScratchD0Ev
nC:__ZN27AnimationLayerMixerPlayable14SetInputWeightEif
Oz:__ZN7mecanim9animation17EvaluateHumanPoseERKNS0_18ClipMuscleConstantERKNS0_15ClipMuscleInputEPKfRKNS0_12MotionOutputERNS_5human9HumanPoseE
GCi:_GameObject_AddComponent_m540062519
Enb:__ZN15dense_hashtableINSt3__24pairIKiN4core17string_with_labelILi1EEEEEi18SInt32HashFunctionN14dense_hash_mapIiS5_S7_NS0_8equal_toIiEE13stl_allocatorIS6_L18MemLabelIdentifier1ELi16EEE9SelectKeyESA_SD_E9copy_fromERKSG_j
gSa:__ZN6Camera11ResetAspectEv
Llg:_Type_get_IsGenericType_m3396841573
Vhb:__ZN15ResourceManagerD0Ev
lZf:_X509BasicConstraintsExtension_get_HasPathLengthConstraint_m3788532759
$Va:__ZNK17InstancedPropInfo22FillInstancePropertiesER19ShaderPropertySheetjPK17BatchInstanceDatajRK15RenderNodeQueue
dRa:__ZN22CreateGpuProgramOutputD2Ev
AY:__ZN13ProduceHelperI13AudioListenerLb0EE7ProduceE18MemLabelIdentifier18ObjectCreationMode
MK:__ZN7mecanim9animation23BlendDirectDataConstant8TransferI14SafeBinaryReadEEvRT_
tbj:_WillRenderCanvases_Invoke_m4267547094
Lfe:_DateTimeFormatInfo_GetInstance_m3133223810
wHf:_ModulusRing_BarrettReduction_m2802101099
Rtb:__ZN12HandlerChain4OpenER13FileEntryData14FilePermission16FileAutoBehavior
pyj:__ZN15dense_hashtableINSt3__24pairIK10KeyWrapperINS1_IPK10MethodInfoP11Il2CppClassEEEjEES9_17ReflectionMapHashIS8_EN14dense_hash_mapIS9_jSD_NS9_14EqualsComparerINS0_8equal_toIS8_EEEENS0_9allocatorISB_EEE9SelectKeyESI_SK_E6insertERKSB_
_Jc:__ZN27PerformanceReportingManager29OnSceneLoadedAfterAwakeStaticEPS_iR18AwakeFromLoadQueueN19RuntimeSceneManager11LoadingModeE
pZh:_ValueCollection_System_Collections_Generic_ICollectionU3CTValueU3E_Remove_m4188992987_gshared
bca:__ZN14FileCacherReadD2Ev
dlb:__ZN13RendererScene23UpdatePreviousFrameDataEii
kAd:_RSAPKCS1SignatureDeformatter_VerifySignature_m1825067195
zNi:_RectTransform_remove_reapplyDrivenProperties_m52143263
f6i:__ZL25UnresolvedVirtualCall_123P12Il2CppObjectffPK10MethodInfo
Brc:__Z50Register_UnityEngine_CullingGroup_FinalizerFailurev
tbf:_KeyValuePair_2_ToString_m2613351884_gshared
Nlb:__ZN27UnloadUnusedAssetsOperationD0Ev
I$g:__ZL69ColorBlock_t2652774230_CustomAttributesCacheGenerator_m_DisabledColorP21CustomAttributesCache
cNh:_Scrollbar__ctor_m2244981801
Bdj:_AnimationLayerMixerPlayable__ctor_m678972180
OAd:_SHA256Managed_HashCore_m4111458495
ete:_CultureInfo_get_CompareInfo_m3085280862
uug:__ZL55Dictionary_2_t2276497324_CustomAttributesCacheGeneratorP21CustomAttributesCache
z9f:_ObjectManager_RecordDelayedFixup_m1895730844
lP:__ZN9AudioClip23VirtualRedirectTransferER18StreamedBinaryReadILb0EE
QNf:_ClientSessionInfo_CheckDisposed_m1394638186
pbg:_SByte_Parse_m2544167007
RFd:_Single_CompareTo_m2081476257
_cd:__ZN7TilemapD0Ev
WLe:_BigInteger__ctor_m2945783161
APf:_TlsClientHello_Update_m1723542631
XMi:_RectOffset_set_top_m1587840032
dXe:_IndexOutOfRangeException__ctor_m3497760912
Gj:_glCopyTexSubImage2D
v6f:_RealProxy_InternalGetTransparentProxy_m3415358600
Lcf:_Enumerator_System_Collections_IEnumerator_Reset_m2200349770_gshared
pTj:__ZN6il2cpp6icalls8mscorlib6System7Convert24InternalFromBase64StringEP12Il2CppStringb
RBd:_SymmetricAlgorithm_CreateDecryptor_m4240570785
SSh:_Text_get_preferredWidth_m3352156860
skd:__ZN2UI13CanvasManager14GetRenderOrderEPKNS_6CanvasE
Kxb:__Z18Transfer_BlittableI14SafeBinaryReadLb0E5RectTIfEEvRK29SerializationCommandArgumentsR31RuntimeSerializationCommandInfo
Kud:__ZNK20UnityWebRequestProtoI24UnityWebRequestTransport16AtomicRefCounter14RedirectHelper14ResponseHelper15DownloadHandler13UploadHandler12HeaderHelper14AsyncOperationE14GetUploadBytesEv
YCf:_ReadOnlyCollection_1_System_Collections_Generic_IListU3CTU3E_RemoveAt_m878653284_gshared
Ate:_DateTimeFormatInfo_GetFormat_m3676195179
Lqa:__ZN14GfxContextGLES14GetFramebufferEv
Wbk:_emscripten_glGenVertexArrays__wrapper
yta:__ZN6prcoreL21CreateRemapAnyBlitterE13TextureFormatS0_
Jmc:__ZN17AnimationCurveTplIfE16StripInvalidKeysEv
sAe:_Array_InternalArray__ICollection_Add_TisKeyValuePair_2_t3716250094_m2381539361_gshared
ABi:_InvokableCall_add_Delegate_m1994890856
eTe:_X509Extension_WriteLine_m2850991173
ijd:__ZNK2UI6Canvas17GetSortingLayerIDEv
oUc:__ZN14Raycast2DQuery8RunQueryEb
Ecc:__Z13RegisterClassI17GlobalGameManagerEvv
X5a:__ZN8Renderer24SetupNewRendererForSceneEv
lve:_Array_InternalArray__ICollection_Remove_TisInt64_t909078037_m2653583130_gshared
N8i:_TextGenerator_Populate_Internal_m65392018
ehg:_Thread_get_ExecutionContext_m922067206
wHe:_BaseInvokableCall_ThrowOnInvalidArg_TisInt32_t2071877448_m2823200566_gshared
WGc:__Z35Transfer_Blittable_FixedBufferFieldI8JSONReadtEvRK29SerializationCommandArgumentsR31RuntimeSerializationCommandInfo
zjc:__ZN14PlayableOutput6HandleEv
F7a:__ZNK6Sprite22GetTypeVirtualInternalEv
vn:FUNCTION_TABLE_iiiiiiiiiiiiii
Juh:__Z100RuntimeInvoker_Void_t1841601450_SByte_t454417549_SByte_t454417549_Int32_t2071877448_SByte_t454417549PFvvEPK10MethodInfoPvPS4_
v4c:_UNITY_tt_get_cmap_info
vEb:__Z29Transfer_Blittable_ArrayFieldI24GenerateTypeTreeTransfer5RectTIiEEvRT_R9ArrayInfoRK23StaticTransferFieldInfo
pXa:__ZN16ReflectionProbes8ScheduleEN18ReflectionProbeJob7JobTypeEP15ReflectionProbei
Pwf:_Collection_1_IsFixedSize_m3675221982_gshared
Udf:_Enumerator_MoveNext_m3293920409_AdjustorThunk
KIa:__Z18IsDirectoryCreatedRKN4core12basic_stringIcNS_20StringStorageDefaultIcEEEE
did:__ZN2UI13CanvasManagerD2Ev
Mji:_Comparer_1__cctor_m3112251759_gshared
vYf:_X509KeyUsageExtension_ToString_m1992050580
L0c:_UNITY_FT_GlyphLoader_Done
gpg:_ValueType_DefaultEquals_m2245650968
yui:_BalancingGroup__ctor_m2474435406
Tkc:__ZN9Polygon2D16CheckConsistencyEv
hni:_ConstructionCall__ctor_m1143766850
Nji:_Comparer_1_System_Collections_IComparer_Compare_m3203078743_gshared
IUc:__ZN19OverlapPointQuery2D14InitializeAABBER6b2AABB
j5c:_tt_cmap14_char_var_index
YKb:__Z35Transfer_Blittable_FixedBufferFieldI18StreamedBinaryReadILb0EEdEvRK29SerializationCommandArgumentsR31RuntimeSerializationCommandInfo
E6c:_psh_globals_new
Q2e:_FileStream_Seek_m950719389
Yge:_Decimal_stripStyles_m294582157
Bja:__ZN9GfxDevice20SetMaxBufferedFramesEi
qjf:_List_1_RemoveAll_m4125997475_gshared
Qmh:__Z98RuntimeInvoker_Void_t1841601450_Int32_t2071877448_Int32_t2071877448_RuntimeObject_SByte_t454417549PFvvEPK10MethodInfoPvPS4_
zLc:__ZN10Collider2D19WakeAllBodyContactsEv
Q3d:_BitConverter_GetBytes_m252990073
dDi:_Input_GetKey_m2374355427
S5j:dynCall_vdd
Tjd:__ZN2UIL17UnloadAllCanvasesEv
E8b:__Z23ConvertIntegerToTypePtrIsEbPvR14SafeBinaryRead
Czg:__ZL54_MethodBase_t1935530873_CustomAttributesCacheGeneratorP21CustomAttributesCache
YNc:__ZN12b2MouseJoint11ShiftOriginERK6b2Vec2
vph:__Z96RuntimeInvoker_Void_t1841601450_SByte_t454417549_RuntimeObject_SByte_t454417549_SByte_t454417549PFvvEPK10MethodInfoPvPS4_
w9d:_FixedSizeArrayListWrapper_Remove_m1359458911
_yi:_CameraCallback_Invoke_m2640212610
Gta:__ZN6prcoreL29inner_stretch_rgb565_bilinearEPKNS_9InnerInfoE
Uvi:_Uri__ctor_m3927533881
amd:__Z33Canvas_Get_Custom_PropWorldCameraP12Il2CppObject
eSh:_Text_get_mainTexture_m813502234
t$j:__ZN6il2cpp8metadata19Il2CppSignatureHash4HashERKNS_5utils13dynamic_arrayIPK10Il2CppTypeLj4EEE
q0b:__ZNK14RenderSettings19GetFlatAmbientColorEv
_sa:__ZN6prcoreL10inner_flipILj4EEEvPhS1_j
Ggb:__ZN18StreamedBinaryReadILb0EE21TransferSTLStyleArrayI10vector_mapIPKN5Unity4TypeE7Hash128NSt3__24lessIS6_EENS8_9allocatorINS8_4pairIS6_S7_EEEEEEEvRT_17TransferMetaFlags
jE:__ZNK27StateMachineBehaviourPlayer15IsSenderEnabledEv
UTh:_Enumerator_VerifyState_m2118679243_gshared
MYd:_InputField_get_shouldHideMobileInput_m3694613599
Qwc:__Z40Register_UnityEngine_Transform_SetParentv
Cth:__Z56RuntimeInvoker_TimeSpan_t3430258949_TimeSpan_t3430258949PFvvEPK10MethodInfoPvPS4_
w9a:__ZN14Texture2DArray17UploadToGfxDeviceEv
sCf:_ReadOnlyCollection_1_System_Collections_Generic_IListU3CTU3E_Insert_m4216310986_gshared
ezf:_ReadOnlyCollection_1_System_Collections_Generic_IListU3CTU3E_set_Item_m1532495847_gshared
cT:__Z14FMODMemoryFreePvjPKc
GTg:__ZL94Physics2D_t2540166467_CustomAttributesCacheGenerator_Physics2D_Raycast_m298439588____minDepth4P21CustomAttributesCache
qgd:__ZNK7Tilemap24GetTileOrientationMatrixEv
nYd:_Image_AddQuad_m1600600902
V7c:_cf2_glyphpath_moveTo
GKc:__ZNK13BoxCollider2D22GetTypeVirtualInternalEv
_le:_DateTimeOffset__ctor_m1796624924
BKd:_BaseRaycaster_OnDisable_m1716508791
NA:__ZN7mecanim23TransformValueArrayLoopEiiiRKN4math4trsXES3_RNS_10ValueArrayEf
mAc:__ZN5IMGUI14GUIWindowStateD2Ev
uXj:_GC_is_heap_ptr
bQi:_TouchScreenKeyboard_Open_m2033426733
uH:__ZN7mecanim5human10RetargetToEPKNS0_5HumanEPKNS0_9HumanPoseES6_RKN4math4trsXEPS4_PNS_8skeleton13SkeletonPoseTIS8_EESF_
FA:__ZN7mecanim9animation8SeekClipERKNS0_12StreamedClipERNS0_18StreamedClipMemoryEf
mm:_emscripten_glIsTexture
Lv:__ZN24CompressedAnimationCurveaSERKS_
c9d:_ArrayListWrapper_CopyTo_m793444109
Tk:_emscripten_glHint
AXc:__ZZN10Collider2D15InitializeClassEvEN30FunctorImpl_98kDidAddComponent4CallEPviR11MessageData
abd:_ft_var_readpackeddeltas
ile:_DateTime_AddMilliseconds_m1813199744_AdjustorThunk
Obh:_MethodBuilder_GetParameterCount_m467267889
XTj:__ZThn4_N6il2cpp2vm13CachedCCWBaseINS0_13ManagedObjectEE6AddRefEv
zHb:__Z35Transfer_Blittable_FixedBufferFieldI18StreamedBinaryReadILb1EEtEvRK29SerializationCommandArgumentsR31RuntimeSerializationCommandInfo
vNi:_RectTransform_INTERNAL_get_pivot_m4220117653
pKf:_RSAManaged__ctor_m1680944437
pm:_SDL_UpperBlit
lXa:__Z35GetTextureDecodeValuesWithIntensity16TextureUsageMode17TextureColorSpace10ColorSpacef
g6d:_Byte_GetHashCode_m2885528842_AdjustorThunk
FCj:__ZN15dense_hashtableINSt3__24pairIK10KeyWrapperINS1_IPK9EventInfoP11Il2CppClassEEEjEES9_17ReflectionMapHashIS8_EN14dense_hash_mapIS9_jSD_NS9_14EqualsComparerINS0_8equal_toIS8_EEEENS0_9allocatorISB_EEE9SelectKeyESI_SK_E15set_deleted_keyERKSB_
V_h:_Dictionary_2_OnDeserialization_m2092139626_gshared
TNc:__ZNK12b2MouseJoint10GetAnchorAEv
MBi:_PersistentCall__ctor_m3653852388
oNb:__ZN14SafeBinaryRead20OverrideRootTypeNameEPKc
fca:__ZN14FileCacherRead16UnlockCacheBlockEj
jSe:_X509Certificate_GetUnsignedBigInteger_m3491353542
Pc:_emscripten_glUniform1f
Xbc:__ZN13dynamic_arrayIS_I8Vector2fLj4EELj4EE18resize_initializedEjRKS1_12ResizePolicy
PSf:_SslStreamBase_get_MightNeedHandshake_m3432170694
cdj:_Player_CheckGrounded_m2103820802
k1c:__Z20ParseImageParametersR11UTF16StringRiRN20TextRenderingPrivate16TextFormatChangeE
Uc:_emscripten_glUniform1i
TCb:__Z18Transfer_BlittableI24GenerateTypeTreeTransferLb1EN4math12int3_storageEEvRK29SerializationCommandArgumentsR31RuntimeSerializationCommandInfo
h6:__Z33UnregisterDeviceEventCallbackImplPFv23UnityGfxDeviceEventTypeE
kNh:__Z14bankers_roundff
hpb:__ZN9ShaderLab16SerializedTagMapaSERKS0_
m$:__ZN11UnityEngine15CloudWebService16SessionContainer20RestoreSessionHeaderERKN4core12basic_stringIcNS2_20StringStorageDefaultIcEEEES8_RNS0_13SessionHeaderE
Ole:_DateTime_ToString_m1117481977
jbh:_GenericTypeParameterBuilder_GetGenericArguments_m277381309
FI:__ZN11UnityEngine9Animation27CreateAvatarBindingConstantER9TransformPKN7mecanim9animation14AvatarConstantERNS3_6memory9AllocatorE
Yng:_UInt64_System_IConvertible_ToDateTime_m2412118561
aqc:__ZN9BlobWriteC2ER13dynamic_arrayIhLj16EE24TransferInstructionFlags19BuildTargetPlatform
paa:__ZN14MessageHandler3GetEv
nra:__ZN10DynamicVBO9DrawChunkERK21DynamicVBOChunkHandle17ShaderChannelMaskS3_P17VertexDeclarationPKNS_10DrawParamsEi
gd:_emscripten_glAttachShader
J9b:__Z16tesedgeIntersectP10TESSvertexS0_S0_S0_S0_
jBf:_ReadOnlyCollection_1__ctor_m1539890895_gshared
Aja:__ZN9GfxDevice13SetActiveTierE12GraphicsTier
Ecf:_Enumerator_System_Collections_IEnumerator_get_Current_m3079057684_AdjustorThunk
Leb:__ZNSt3__26vectorIN4core12basic_stringIcNS1_20StringStorageDefaultIcEEEENS_9allocatorIS5_EEE6assignIPS5_EENS_9enable_ifIXaasr21__is_forward_iteratorIT_EE5valuesr16is_constructibleIS5_NS_15iterator_traitsISC_E9referenceEEE5valueEvE4typeESC_SC_
$Oe:_KeyPairPersistence_get_UserPath_m3433052783
_qg:__ZL58Decimal_t724701077_CustomAttributesCacheGenerator_MinusOneP21CustomAttributesCache
rxb:__Z18Transfer_BlittableI14SafeBinaryReadLb0E11QuaternionfEvRK29SerializationCommandArgumentsR31RuntimeSerializationCommandInfo
DKc:__ZN13BoxCollider2D16CheckConsistencyEv
GKb:__Z18Transfer_BlittableI18StreamedBinaryReadILb0EELb1E12PropertyNameEvRK29SerializationCommandArgumentsR31RuntimeSerializationCommandInfo
J3:_tlsf_walk_heap
JRe:_PKCS12_Decode_m731190390
pei:_InternalEnumerator_1_get_Current_m1550231132_gshared
mpg:_Version_CheckedSet_m76493673
mb:invoke_vif
nb:invoke_vid
P3j:__ZNSt3__212basic_stringIcNS_11char_traitsIcEENS_9allocatorIcEEE6insertEjPKc
ODg:__ZL67UnverifiableCodeAttribute_t765455733_CustomAttributesCacheGeneratorP21CustomAttributesCache
pb:invoke_vii
NVb:__ZNK12ImageFilters8DoRenderER17ShaderPassContextP13RenderTextureS3_RKNSt3__26vectorI11ImageFilterNS4_9allocatorIS6_EEEE
vHa:__ZN12TLSAllocatorI14StackAllocatorE16ThreadInitializeEP13BaseAllocator
A8d:_ArrayList_Sort_m2778059513
$ja:__ZN9GfxDevice32UpdateStereoViewProjectionMatrixE21MonoOrStereoscopicEye
xSb:__ZN15dense_hashtableINSt3__24pairIKN4core12basic_stringIcNS2_20StringStorageDefaultIcEEEEP20ArchiveStorageReaderEES6_20StringHash32FunctionIS6_EN14dense_hash_mapIS6_S9_SC_NS0_8equal_toIS6_EE13stl_allocatorISA_L18MemLabelIdentifier55ELi16EEE9SelectKeyESF_SI_E12resize_deltaEjj
eXd:_LayoutGroup_SetChildAlongAxis_m2732017156
hld:__Z41CanvasRenderer_CUSTOM_DisableRectClippingP12Il2CppObject
gJf:_MD2_Create_m539024737
Lvh:__Z112RuntimeInvoker_Void_t1841601450_RuntimeObject_Int32_t2071877448_Int32_t2071877448_RuntimeObject_SByte_t454417549PFvvEPK10MethodInfoPvPS4_
wyc:__Z13RegisterClassI4GridEvv
MLa:__ZN25SingleBlockMemoryFileDataD0Ev
FHa:__ZNSt3__26vectorI14ConstantStringNS_9allocatorIS1_EEE6assignINS_11__wrap_iterIPS1_EEEENS_9enable_ifIXaasr21__is_forward_iteratorIT_EE5valuesr16is_constructibleIS1_NS_15iterator_traitsISA_E9referenceEEE5valueEvE4typeESA_SA_
h$:__ZN11UnityEngine15CloudWebService16SessionContainer21ConvertFromFolderTimeERKN4core12basic_stringIcNS2_20StringStorageDefaultIcEEEEPjPt
czb:__ZNSt3__26vectorI8GUIStyle13stl_allocatorIS1_L18MemLabelIdentifier1ELi16EEE7reserveEj
HGj:__ZN6il2cpp6icalls8mscorlib6System9Threading6Thread27GetSerializedCurrentCultureEP12Il2CppThread
Fze:_Array_InternalArray__IndexOf_TisUInt32_t2149682021_m3231515987_gshared
Eec:__Z31CalculateHierarchyTransformType23TransformAccessReadOnly
adc:__Z13RegisterClassI11TimeManagerEvv
VS:__ZN4FMOD8ChannelI11setPositionEjj
noh:__Z136RuntimeInvoker_IntPtr_t_RuntimeObject_Int32_t2071877448_Int32_t2071877448_Int32_t2071877448_Int32_t2071877448_MonoIOErrorU26_t1029615899PFvvEPK10MethodInfoPvPS4_
cka:__ZN9GfxDevice17SetStereoViewportE15StereoscopicEyeRK5RectTIiE
pha:__ZN17BaseObjectManager13StaticDestroyEPv
Ime:_DBNull_System_IConvertible_ToChar_m3344298044
Wzh:__Z65RuntimeInvoker_Boolean_t3825574718_RuntimeObject_Int64_t909078037PFvvEPK10MethodInfoPvPS4_
Yqi:_LinkStack_Push_m2660199875
OR:__ZN4FMOD6Reverb13setPropertiesEPK22FMOD_REVERB_PROPERTIES
zXb:__ZN9DepthPass13PrepareSubsetEjRK10RenderNodeifRK17ShaderReplaceData
Wfg:_UTF32Encoding_GetPreamble_m767706727
zHi:_X509CertificateCollection_Add_m4008705157
bmc:__Z35SetMeshComponentFromArrayFromScriptR4Mesh30InternalScriptingShaderChannel34InternalScriptingVertexChannelTypei17ScriptingArrayPtri
cDf:_ReadOnlyCollection_1_System_Collections_IList_Add_m3806843030_gshared
Xtf:_Collection_1_IsFixedSize_m1816795498_gshared
oq:__ZN4core20StringStorageDefaultIcE6assignEPKcj
MMj:__ZN15dense_hashtableINSt3__24pairIK10KeyWrapperIP12Il2CppObjectEN6il2cpp2gc9CachedCCWEEES5_NS7_5utils11PointerHashIS3_EEN14dense_hash_mapIS5_S9_SD_NS5_14EqualsComparerINS0_8equal_toIS4_EEEENS0_9allocatorISA_EEE9SelectKeyESI_SK_E3endEv
NNd:_MouseButtonEventData_ReleasedThisFrame_m482758300
vOi:_SceneManager_Internal_SceneLoaded_m1729738062
xDj:__ZN15dense_hashtableINSt3__24pairIK10KeyWrapperINS1_IP11Il2CppClassjEEES4_EES6_N6il2cpp8metadata14ArrayClassHashEN14dense_hash_mapIS6_S4_SB_NS6_14EqualsComparerINSA_17ArrayClassCompareEEENS0_9allocatorIS8_EEE9SelectKeyESF_SH_E9copy_fromERKSK_j
B9d:_ReadOnlyArrayListWrapper_set_Item_m2199017141
I4b:__ZN6Camera6SetFarEf
uHi:_DeriveBytes_DeriveIV_m3343375195
U1c:_UNITY_FT_Init_Class_ft_bitmap_glyph_class
Smc:__ZNK17AnimationCurveTplI11QuaternionfE13EvaluateClampEfPNS1_5CacheE
Ezd:_RNGCryptoServiceProvider_GetBytes_m167497991
oua:__ZN6prcoreL12RemapGenericI17TexFormatABGR888817TexFormatARGB8888EEvPKNS_9InnerInfoE
XMa:__ZN11GameManager17MainThreadCleanupEv
Omd:__Z50Register_UnityEngine_UISystemProfilerApi_EndSamplev
j9g:_TypeBuilder_get_Assembly_m492491492
Lb:invoke_vffff
OKc:__ZN10Collider2D12AddToManagerEv
S9c:_UNITY_tt_slot_init
qTb:__ZZ23InitPlayerLoopCallbacksvEN41PostLateUpdateUpdateResolutionRegistrator7ForwardEv
Cye:_Array_FindLastIndex_TisRuntimeObject_m986818300_gshared
mMb:__Z25scripting_array_class_get17ScriptingClassPtrj
YEc:__ZL22Transfer_ManagedObjectI9JSONWriteLb1EEvRK29SerializationCommandArgumentsR31RuntimeSerializationCommandInfo
VO:__ZNK10SampleClip22GetTypeVirtualInternalEv
hla:__ZN9GfxDevice20DestroyRenderSurfaceER12ObjectHandleI17RenderSurface_TagP17RenderSurfaceBaseE
fia:__ZN18SpriteAtlasManagerC2Ev
qbc:__ZL24PrepareSpriteRenderNodesILb1EEvR35RenderNodeQueuePrepareThreadContext
TDa:__ZN9GfxDevice22UpdateComputeResourcesEjPK9TextureIDPK16TextureDimensionPKijPKjjPK15ComputeBufferIDS7_PK20ComputeBufferCounterjSC_S2_S5_S9_SF_
eQa:__ZN12_GLOBAL__N_15qAsinEff
RGe:_Dictionary_2_Do_ICollectionCopyTo_TisKeyValuePair_2_t3749587448_m2536766696_gshared
wHa:__ZN12TLSAllocatorI14StackAllocatorE13ThreadCleanupEv
Nyh:__Z154RuntimeInvoker_RaycastHit2D_t4063908774_Vector2_t2243707579_Vector2_t2243707579_Single_t2076509932_Int32_t2071877448_Single_t2076509932_Single_t2076509932PFvvEPK10MethodInfoPvPS4_
Gye:_Array_IndexOf_TisRuntimeObject_m1815604637_gshared
$Sj:__ZThn4_N6il2cpp2vm13ComObjectBase16MarshalInterfaceEP13Il2CppIStreamRK10Il2CppGuidPvjS7_j
Jab:__ZN4Mesh27SwizzleVertexColorsIfNeededEb
ZOb:__Z27FindActiveTransformWithPathPKc
PKi:_PropertyName_op_Inequality_m2830582941
nTe:_SecurityParser_OnEndElement_m2909940377
IPa:__ZNK6Camera7GetNearEv
wxa:__ZN7ApiGLES11UnmapBufferEjN2gl12BufferTargetE
jTj:__ZN6il2cpp5utilsL24Utf32CharToSurrogatePairEjRA2_Ds
Z2a:__Z25GetNextAllowedTextureSizeib13TextureFormat
ROb:__ZN20LocalFileSystemWebGL4CopyER13FileEntryDataS1_
jkf:_List_1_CheckIndex_m4231572822_gshared
I1:__ZN19CloudServiceHandler6RetainEv
iEd:_StrongName_Equals_m67226644
XAc:__Z36Event_CUSTOM_Internal_SetNativeEventPv
hQa:__ZN12BaseRenderer20FlattenToRenderQueueER15RenderNodeQueueRK20DeprecatedSourceData
A6e:_UnmanagedMemoryStream_get_Length_m587008850
dmb:__Z34scripting_liveness_calculation_endPv
vyc:__ZNK19RectangleCellLayout13GetCellCenterEv
LQj:__ZN6il2cpp2os6ThreadC2Ev
XEd:_SecurityFrame_InitFromRuntimeFrame_m45195821
z_f:_X509Chain_IsSignedWith_m292245392
$z:__ZN21AnimationClipPlayable22ProcessAnimationNoClipEPK35AnimationPlayableEvaluationConstantPK32AnimationPlayableEvaluationInputP33AnimationPlayableEvaluationOutput
gve:_Array_InternalArray__ICollection_Remove_TisDateTime_t693205669_m1275668216_gshared
nBf:_ReadOnlyCollection_1_System_Collections_Generic_ICollectionU3CTU3E_Remove_m3751131234_gshared
yGc:__Z18Transfer_BlittableI8JSONReadLb0E8Vector3fEvRK29SerializationCommandArgumentsR31RuntimeSerializationCommandInfo
ov:__ZN13AnimationClip12Vector3Curve8TransferI14SafeBinaryReadEEvRT_
Cni:_ChannelServices__cctor_m3534779830
_Ej:__ZN6il2cpp2vm6Thread6DetachEP12Il2CppThread
aNi:_RectOffset_Finalize_m816260249
LQi:_Transform_set_localRotation_m3053695533
S5c:_Render_Single_Pass
Qhe:_Convert_ToInt16_m416789348
Xcg:_EncoderExceptionFallback_Equals_m762170768
I0i:_EqualityComparer_1__cctor_m2666196678_gshared
kZc:__GLOBAL__sub_I_runtime_dynamics_2_cpp
KUh:_Enumerator_get_CurrentValue_m3147984131_AdjustorThunk
LI:__ZN7mecanim8skeleton30SkeletonBuildReverseIndexArrayEPiPKiPKNS0_8SkeletonES6_
azc:__Z19GetGUIBlendMaterialv
gzh:__Z69RuntimeInvoker_Boolean_t3825574718_TextGenerationSettings_t2543476768PFvvEPK10MethodInfoPvPS4_
ePj:__ZN6il2cpp2os10ThreadImpl5SleepEjb
gFc:__ZN9JSONWrite8TransferI13GUIStyleStateEEvRT_PKc17TransferMetaFlags
HJ:__ZN18AnimatorController23VirtualRedirectTransferER24GenerateTypeTreeTransfer
EUf:_ListDictionary_FindEntry_m432748847
wbk:_glBindSampler__wrapper
NMa:__ZNSt3__26vectorIN20ArchiveStorageHeader12StorageBlockE13stl_allocatorIS2_L18MemLabelIdentifier55ELi16EEE8__appendEj
Mf:_emscripten_set_mouseup_callback
zHe:_BaseInvokableCall_ThrowOnInvalidArg_TisColor_t2020392075_m3638385415_gshared
F6b:__ZNK18ScreenManagerWebGL8GetWidthEv
t3i:_AudioExtensionManager_GetListenerSpatializerExtensionEditorType_m165088149
NWd:_GridLayoutGroup_set_startAxis_m1635162426
SO:__ZN10SampleClipD2Ev
hqi:_SynchronizationAttribute_EnterContext_m2984912761
rte:_CultureInfo_construct_internal_locale_from_name_m971766383
wlb:__Z13GetGISettingsv
Rac:__ZN19SpriteMeshGenerator7contourERNSt3__26vectorINS_6vertexENS0_9allocatorIS2_EEEERiRf
iBe:_Array_InternalArray__ICollection_Add_TisUIVertex_t1204258818_m3869382594_gshared
s1:__ZN11UnityEngine15CloudWebService20WebRequestRestClientC2Ev
m9c:_cff_cmap_unicode_init
Lqe:_Enum_ToObject_m2460371738
TMe:_PrimalityTests_Test_m1088386156
VSi:_Vector4_SqrMagnitude_m1060560279
n2j:_readlink
hAj:__ZN15dense_hashtableINSt3__24pairIK10KeyWrapperINS1_IPK9EventInfoP11Il2CppClassEEEjEES9_17ReflectionMapHashIS8_EN14dense_hash_mapIS9_jSD_NS9_14EqualsComparerINS0_8equal_toIS8_EEEENS0_9allocatorISB_EEE9SelectKeyESI_SK_E12resize_deltaEjj
uFe:_Array_Resize_TisVector3_t2243707580_m893658391_gshared
mai:_InternalEnumerator_1_System_Collections_IEnumerator_get_Current_m4259662004_AdjustorThunk
SIe:_Array_InternalArray__get_Item_TisKeyframe_t1449471340_m1003508933_gshared
lZj:__ZN6il2cpp8metadata14Il2CppTypeHash4HashEPK10Il2CppType
z_j:__ZN6il2cpp2os13SemaphoreImplC2Eii
Brh:__Z50RuntimeInvoker_Double_t4078015681_Int64_t909078037PFvvEPK10MethodInfoPvPS4_
DRe:_StrongName_get_PublicKeyToken_m1968460885
mdb:__ZNK6Sprite9GetBoundsE8Vector2fbb
eTa:__ZNK19RenderEventsContext21CleanupCommandBuffersEv
Xxc:__ZNK4Grid23LocalToCellInterpolatedERKN4math7_float3E
CK:__ZN7mecanim12statemachine13StateConstant8TransferI14SafeBinaryReadEEvRT_
Uoa:__ZN11ContextGLES6CreateEi
h0e:_BinaryReader_Dispose_m4249456877
Vge:_Double_ToString_m1085043609
uLb:__Z19TransferField_ArrayI18StreamedBinaryReadILb0EE27Converter_SimpleNativeClassI17AnimationCurveTplIfEEEvRK23StaticTransferFieldInfoR31RuntimeSerializationCommandInfoRT0_
KLf:_CipherSuite_createEncryptionCipher_m1926075645
vGi:_Plane__ctor_m730644932
$Ga:__ZN14StackAllocator16FrameMaintenanceEb
gWd:_Graphic_Raycast_m3582517890
BXc:__ZZN10Collider2D15InitializeClassEvEN33FunctorImpl_99kDidRemoveComponent4CallEPviR11MessageData
Rca:__ZNK10GameObject20QueryComponentByTypeEPKN5Unity4TypeE
XTi:_GUISkin_MakeCurrent_m1547433985
Jdf:_Enumerator_MoveNext_m1367380970_AdjustorThunk
Cch:_OpCode_GetHashCode_m2974727122
LLf:_CipherSuite_createDecryptionCipher_m1118350455
bsi:_PatternCompiler_EmitReference_m1381860071
Bpe:_Double_System_IConvertible_ToInt16_m4200640326
Wyh:__Z84RuntimeInvoker_RuntimeObject_RayU26_t3651946800_Single_t2076509932_Int32_t2071877448PFvvEPK10MethodInfoPvPS4_
i2a:__ZN11TextureData5ResetEv
jsc:__Z53Register_UnityEngine_GameObject_get_activeInHierarchyv
Iia:__ZN15dense_hashtableINSt3__24pairIKN4core12basic_stringIcNS2_20StringStorageDefaultIcEEEE13dynamic_arrayI4PPtrI6SpriteELj4EEEES6_20StringHash32FunctionIS6_EN14dense_hash_mapIS6_SC_SF_NS0_8equal_toIS6_EE13stl_allocatorISD_L18MemLabelIdentifier81ELi16EEE9SelectKeyESI_SL_EC2ERKSO_j
b8:__ZL30InitializeCoreScriptingClassesv
Nwf:_Collection_1_CheckWritable_m3938993573_gshared
Ig:_glBlitFramebuffer
$Me:_BigInteger_GeneratePseudoPrime_m2606361440
QAb:__Z35Transfer_Blittable_SingleValueFieldI14SafeBinaryReadhEvRT_R17GeneralMonoObjectRK23StaticTransferFieldInfo
qkc:__ZN12CachedWriter15CompleteWritingEv
Qcj:_newBullet__ctor_m4069009721
e5f:_RemotingServices_GetRealProxy_m620317996
NXb:__ZN13dynamic_arrayI11CulledLightLj4EE6insertEPS0_PKS0_S4_
m1a:__ZNK12CubemapArray22GetTypeVirtualInternalEv
paj:_Predicate_1_Invoke_m2060780095_gshared
Poj:__ZN6il2cpp2vm13MetadataCache23GetInterfaceOffsetIndexEi
Tn:FUNCTION_TABLE_vif
Un:FUNCTION_TABLE_vid
Wn:FUNCTION_TABLE_vii
omb:__Z40scripting_liveness_calculation_from_root18ScriptingObjectPtrPv
UZa:__ZN7Texture23VirtualRedirectTransferER24GenerateTypeTreeTransfer
Q$c:_UNITY_FT_Set_Transform
_Lj:__ZN6il2cpp8metadata15GenericMetadata20RegisterGenericClassEP18Il2CppGenericClass
jvh:__Z101RuntimeInvoker_OpFlags_t378191910_SByte_t454417549_SByte_t454417549_SByte_t454417549_SByte_t454417549PFvvEPK10MethodInfoPvPS4_
bbk:_glDeleteFramebuffers__wrapper
FXd:_Image_get_overrideSprite_m706080347
jHf:_BigInteger_ModInverse_m1881894572
fsj:__ZN6il2cpp2vm7Runtime17GetDelegateInvokeEP11Il2CppClass
lhc:__ZZN12MeshRenderer15InitializeClassEvEN29FunctorImpl_134kDidDeleteMesh4CallEPviR11MessageData
dcc:__Z22GenerateBoxTilingShapeP22GenerateTilingAreaInfo
o4a:__ZN28EnlightenRendererInformation8TransferI14SafeBinaryReadEEvRT_
Pth:__Z88RuntimeInvoker_RuntimeObject_RuntimeObject_Int32_t2071877448_RuntimeObject_RuntimeObjectPFvvEPK10MethodInfoPvPS4_
Fyg:__ZL69DefaultDependencyAttribute_t3858269114_CustomAttributesCacheGeneratorP21CustomAttributesCache
aMa:__ZNK15Lz4Decompressor16DecompressMemoryEPKvPjPvS2_
l4c:_UNITY_tt_face_build_cmaps
AWc:__ZN11Rigidbody2D8TransferI24GenerateTypeTreeTransferEEvRT_
H$a:__Z35UnityPropertySheet_MakeSortedColorsRKNSt3__23mapIN9ShaderLab16FastPropertyNameE10ColorRGBAfNS_4lessIS2_EENS_9allocatorINS_4pairIKS2_S3_EEEEEER10vector_mapIS2_S3_S5_NS6_INS7_IS2_S3_EEEEE
gne:_Decimal_System_IConvertible_ToType_m3828527724_AdjustorThunk
y3c:_UNITY_tt_face_load_os2
aWc:__ZN17PolygonCollider2D8TransferI24GenerateTypeTreeTransferEEvRT_
_If:_HMAC_get_Key_m2528863640
zxf:_Collection_1_IsSynchronized_m1366278230_gshared
gAb:__Z29Transfer_Blittable_ArrayFieldI14SafeBinaryRead8Vector4fEvRT_R9ArrayInfoRK23StaticTransferFieldInfo
Bte:_Array_get_swapper_TisInt32_t2071877448_m2837069166_gshared
YNh:_Selectable_Navigate_m915280351
loi:_ConfigHandler_CheckPath_m2296459741
fNd:_PointerEventData_IsScrolling_m1971908975
hTb:__ZZ23InitPlayerLoopCallbacksvEN51PostLateUpdateUpdateCustomRenderTexturesRegistrator7ForwardEv
sne:_Decimal_System_IConvertible_ToInt16_m3159038792
xA:__ZN7mecanim9animation12EvaluateClipEPKNS0_4ClipEPKNS0_9ClipInputEPNS0_10ClipMemoryEPNS0_10ClipOutputE
uib:__ZNSt3__26vectorIN15ResourceManager10DependencyE13stl_allocatorIS2_L18MemLabelIdentifier52ELi16EEEC2INS_11__wrap_iterIPS2_EEEET_SB_RKS5_PNS_9enable_ifIXaasr21__is_forward_iteratorISB_EE5valuesr16is_constructibleIS2_NS_15iterator_traitsISB_E9referenceEEE5valueEvE4typeE
cgh:_MonoMethodInfo_GetReturnType_m2864247130
y3b:__ZN13RenderManager29SetCurrentCameraAndStackStateEP6CameraP25CameraStackRenderingState
GQi:_Transform_INTERNAL_get_rotation_m1873681960
WOa:__ZNSt3__26__treeINS_12__value_typeIjN4core12basic_stringIcNS2_20StringStorageDefaultIcEEEEEENS_19__map_value_compareIjS7_NS_4lessIjEELb1EEE13stl_allocatorIS7_L18MemLabelIdentifier7ELi16EEE7destroyEPNS_11__tree_nodeIS7_PvEE
MEj:__ZN15dense_hashtableINSt3__24pairIK10KeyWrapperINS1_IP11Il2CppClassjEEES4_EES6_N6il2cpp8metadata14ArrayClassHashEN14dense_hash_mapIS6_S4_SB_NS6_14EqualsComparerINSA_17ArrayClassCompareEEENS0_9allocatorIS8_EEE9SelectKeyESF_SH_E12resize_deltaEjj
Xh:_JS_WebRequest_Release
u1e:_DirectoryNotFoundException__ctor_m2242202556
H$:__ZN11UnityEngine15CloudWebService14DataErrorEventD0Ev
dIj:__ZN6il2cpp6icalls8mscorlib6System4Type20internal_from_handleEi
rId:_String_CreateString_m2448464375
e0f:_X509SubjectKeyIdentifierExtension__ctor_m2959112706
LUh:_Enumerator_Reset_m1147555085_AdjustorThunk
aeh:_FieldInfo_get_IsNotSerialized_m2322769148
WLj:__ZN6il2cpp8metadata15GenericMetadata7InflateEPK19Il2CppGenericMethodPK20Il2CppGenericContext
L3a:__ZN19ShaderPropertySheet16SetArrayPropertyEN9ShaderLab16FastPropertyNameENS_12PropertyTypeEPKvj
Xfh:_MonoGenericCMethod_get_ReflectedType_m2689239043
Axf:_Collection_1_IsFixedSize_m499196375_gshared
XRd:_ColorTween_set_startColor_m3546206870_AdjustorThunk
Uhd:__ZN2UI11CanvasGroup23VirtualRedirectTransferER19StreamedBinaryWriteILb0EE
tdi:_InternalEnumerator_1_get_Current_m4083613828_gshared
iuj:__ZN6il2cpp2os4File11GetStdErrorEv
O8i:_TextGenerator_INTERNAL_CALL_Populate_Internal_cpp_m106350432
Wed:__ZN17TilemapCollider2D21PrepareCompositePathsERNSt3__26vectorINS1_IN10ClipperLib8IntPointENS0_9allocatorIS3_EEEENS4_IS6_EEEERK10Matrix4x4f
uAc:__ZN8GUIState8EndOnGUIEv
Efg:_UnicodeEncoding_GetString_m542738941
Z9c:_UNITY_TT_Get_VMetrics
V0e:_Path_InsecureGetFullPath_m2635272425
Pke:_DateTime_System_IConvertible_ToUInt32_m1363211018
jLi:_Quaternion_ToString_m1042358501
nwe:_SetPropertyUtility_SetStruct_TisSingle_t2076509932_m3849235084_gshared
Nra:__ZN7Texture21GetMasterTextureLimitEv
o5b:__Z12CanAddScriptR10GameObject17ScriptingClassPtrPS1_S2_
gDj:__ZN6il2cpp2vm10Reflection12HasAttributeEP12Il2CppObjectP11Il2CppClass
zCd:_X509Certificate_GetExpirationDateString_m2351894475
Z6:__ZN9ShaderLabL25StaticInitializeShaderLabEPv
U:Math_max
Tsj:_il2cpp_class_get_methods
Y0e:_Path_CanonicalizePath_m383914732
STh:_Enumerator_System_Collections_IEnumerator_get_Current_m1631145297_gshared
WCb:__Z18Transfer_BlittableI24GenerateTypeTreeTransferLb0EN4math12int2_storageEEvRK29SerializationCommandArgumentsR31RuntimeSerializationCommandInfo
F8d:_ArrayList_Synchronized_m2395071980
RQj:__ZN6il2cpp2os6Thread16GetCurrentThreadEv
Lic:__ZN10GameObject13ComponentPair15SetComponentPtrEPN5Unity9ComponentE
u6e:_UnexceptionalStreamWriter_Write_m3206913035
Ncc:__Z13RegisterClassI10MeshFilterEvv
cPa:__ZN10TagManager8TransferI19StreamedBinaryWriteILb0EEEEvRT_
Glb:__ZN11PreloadData23VirtualRedirectTransferER18StreamedBinaryReadILb0EE
LF:__Z17dynamic_pptr_castIP10MonoScript6ObjectET_RK4PPtrIT0_E
MSj:__ZN6il2cpp6icalls8mscorlib6System10ReflectionL40il2cpp_class_get_generic_type_definitionEP11Il2CppClass
Dcg:_DESTransform_ProcessBlock_m2826669227
KXe:_Int16_CompareTo_m3493496879
D7a:__ZN6Sprite17MainThreadCleanupEv
wU:__ZN10AudioMixer14UpdateMuteSoloEv
gOa:__ZN9Transform35SetLocalPositionWithoutNotificationERKN4math7_float3Ey
vLh:_MaskableGraphic_UnityEngine_UI_IClippable_get_gameObject_m954171032
Xi:_JS_Eval_ClearTimeout
Aqa:__ZN7ApiGLES16SetPatchVerticesEi
S3e:_MonoIOStat_t1621921065_marshal_pinvoke
wLa:__ZN10MemoryFileC2E18MemLabelIdentifierP14MemoryFileData14FilePermission
b6f:_TrackingServices_NotifyUnmarshaledObject_m1794048369
Qhj:__ZN6il2cpp2vm5Class20FromGenericParameterEPK22Il2CppGenericParameter
f2:__ZN19CloudServiceHandler11FlushEventsEv
Sga:__ZN15GlobalCallbacksC2Ev
XDe:_Array_InternalArray__set_Item_TisLabelFixup_t4090909514_m565370771_gshared
kWj:_GC_print_static_roots
JWc:__ZN7b2World10CreateBodyEPK9b2BodyDef
p1c:_UNITY_FT_New_Memory_Face
h$c:__ZN20TextRenderingPrivate21TextMeshGeneratorImpl5FlushEv
ZDd:__Z15CastclassSealedP12Il2CppObjectP11Il2CppClass
g4b:__ZN16ReflectionProbes40UpdateRealtimeReflectionProbesTimeslicedEv
Vxc:__ZNK4Grid11LocalToCellERKN4math7_float3E
Jib:__ZNK30RuntimeInitializeOnLoadManager22GetTypeVirtualInternalEv
vmj:__ZN15dense_hashtableINSt3__24pairIK10KeyWrapperIN6il2cpp5utils13dynamic_arrayIPK10Il2CppTypeLj4EEEEPFvvEEESA_NS3_8metadata19Il2CppSignatureHashEN14dense_hash_mapISA_SD_SG_NSA_14EqualsComparerINSF_22Il2CppSignatureCompareEEENS0_9allocatorISE_EEE9SelectKeyESK_SM_E12resize_deltaEjj
sgc:__ZN16ReflectionProbes15InitializeClassEv
zYj:__ZN6il2cpp5utils5MatchENSt3__212basic_stringIcNS1_11char_traitsIcEENS1_9allocatorIcEEEEjRKS7_j
m2c:_UNITY_FT_Destroy_Class_psnames_module_class
Fri:_MRUList_Evict_m2430323183
RBf:_ReadOnlyCollection_1_System_Collections_Generic_ICollectionU3CTU3E_Remove_m1060547576_gshared
jyh:__Z68RuntimeInvoker_Boolean_t3825574718_Rect_t3681755626_SByte_t454417549PFvvEPK10MethodInfoPvPS4_
uIe:_Array_InternalArray__get_Item_TisRuntimeObject_m371871810_gshared
RF:__ZN8Animator13BatchedFKPassERK13dynamic_arrayIP14PlayableOutputLj4EE
TQf:_RecordProtocol_ProcessChangeCipherSpec_m3233959862
nGe:_Array_Sort_TisVector4_t2243707581_m474199742_gshared
Gda:__ZN13RuntimeStaticINSt3__23mapIN4core12basic_stringIcNS2_20StringStorageDefaultIcEEEES6_NS0_4lessIS6_EE13stl_allocatorINS0_4pairIKS6_S6_EEL18MemLabelIdentifier13ELi16EEEELb0EE13StaticDestroyEPv
Kfj:_Rigidbody2D_AddForce_m1687473487
c6e:_TextWriter_Write_m576684782
Vj:_glIsVertexArray
KLa:__ZN25SingleBlockMemoryFileDataC2E18MemLabelIdentifierPvjb
fa:invoke_fff
wSh:_Text_get_fontSize_m3105730761
g8j:b14
iQf:_TlsServerHello_Update_m1740270635
chd:__ZN2UI6Canvas17MainThreadCleanupEv
Geb:__ZNSt3__26vectorI14SubstanceInputNS_9allocatorIS1_EEE6assignINS_11__wrap_iterIPS1_EEEENS_9enable_ifIXaasr21__is_forward_iteratorIT_EE5valuesr16is_constructibleIS1_NS_15iterator_traitsISA_E9referenceEEE5valueEvE4typeESA_SA_
Yta:__ZN6prcoreL12RemapGenericI17TexFormatARGB155517TexFormatRGBA8888EEvPKNS_9InnerInfoE
cPh:_ScrollRect_Rebuild_m3423824761
Wmf:_List_1_Find_m3862454845_gshared
uri:_MatchCollection_get_Item_m2609281578
WBa:__ZN7ApiGLES13CreateProgramEv
JUa:__ZN11HaloManager7AddHaloEv
ygg:_UTF8Encoding__ctor_m100325490
asa:__ZN4crnd12crn_unpackerD2Ev
$Rh:_StencilMaterial_ClearAll_m1372779118
gk:_emscripten_glTexImage2D
G4f:_ObjRefSurrogate_SetObjectData_m1873902916
K9c:_tt_driver_class_pic_init
S7:__ZN18ScriptingArguments9AddStringEPKc
yWj:_setup_header
Q4j:runPostSets
eta:__ZL23stbir__resize_arbitraryPvPKviiiS_iiiffffPfiij14stbir_datatype12stbir_filterS4_10stbir_edgeS5_16stbir_colorspace
Oif:_List_1_System_Collections_IList_Insert_m848656350_gshared
Qac:__ZN19SpriteMeshGenerator4maskC2EP11ColorRGBA32iihj
oDb:__Z18Transfer_BlittableI24GenerateTypeTreeTransferLb1E8Vector4fEvRK29SerializationCommandArgumentsR31RuntimeSerializationCommandInfo
pZe:_Int16_ToString_m3971652088_AdjustorThunk
rk:_pthread_detach
wpj:__ZN6il2cpp2vm19SocketPollingThread7RunLoopEv
_3f:_MethodDictionary_AllocInternalProperties_m3261295876
ijc:__ZN15DirectorManager20ScheduleGraphDestroyERK14HPlayableGraph
gMb:__ZNSt3__213__stable_sortIRN10vector_mapI17ScriptingClassPtrPKN5Unity4TypeENS_4lessIS2_EENS_9allocatorINS_4pairIS2_S6_EEEEE13value_compareENS_11__wrap_iterIPSB_EEEEvT0_SJ_T_NS_15iterator_traitsISJ_E15difference_typeEPNSM_10value_typeEi
Vpb:__ZN9ShaderLab25SerializedTextureProperty8TransferI24GenerateTypeTreeTransferEEvRT_
iGf:_Comparison_1_Invoke_m2645957248_gshared
Ofk:_emscripten_glIsShader__wrapper
_Aj:__ZN6il2cpp2gc19AppendOnlyGCHashMapINSt3__24pairIPK14Il2CppAssemblyP11Il2CppClassEEP24Il2CppReflectionAssembly17ReflectionMapHashIS9_ENS2_8equal_toIS9_EEEC2Ev
E9f:_DelegatePInvokeWrapper_CallbackHandler_t362827733
wHc:__Z18Transfer_BlittableI8JSONReadLb1EyEvRK29SerializationCommandArgumentsR31RuntimeSerializationCommandInfo
Ok:_emscripten_glMatrixMode
jy:__ZN8Animator23VirtualRedirectTransferER18StreamedBinaryReadILb0EE
g2e:_NotSupportedException__ctor_m836173213
q4f:_MethodReturnDictionary__ctor_m756139344
b$:__ZN11UnityEngine15CloudWebService14DataDispatcher16PrepareDataBlockERNS0_16SessionContainerE
xCa:__ZN18GfxFramebufferGLES5ClearE13GfxClearFlagsRK10ColorRGBAffib
Urh:__Z52RuntimeInvoker_Single_t2076509932_Double_t4078015681PFvvEPK10MethodInfoPvPS4_
LKb:__ZL26Transfer_SimpleNativeClassI18StreamedBinaryReadILb0EE10RectOffsetLb0EEvRK29SerializationCommandArgumentsR31RuntimeSerializationCommandInfo
j2c:_UNITY_ft_destroy_default_module_classes
qgf:_List_1_CheckMatch_m1772343151_gshared
iXb:__ZL12DepthPassJobPN21GfxDeviceAsyncCommand10ArgScratchEPKNS_3ArgE
uob:__ZNSt3__26vectorIN9ShaderLab20SerializedSubProgram16TextureParameterENS_9allocatorIS3_EEE6assignINS_11__wrap_iterIPS3_EEEENS_9enable_ifIXaasr21__is_forward_iteratorIT_EE5valuesr16is_constructibleIS3_NS_15iterator_traitsISC_E9referenceEEE5valueEvE4typeESC_SC_
TCc:__ZN5Unity9rapidjson6WriterI16TempBufferWriterNS0_4UTF8IcEES4_13JSONAllocatorE11WriteDoubleEd
G$e:_IntPtr_Equals_m1214967011_AdjustorThunk
Olf:_List_1_Add_m3591975577_gshared
Exa:__ZN14GfxDeviceStats16CopyAllDrawStatsERKS_
ndc:__Z13RegisterClassI19LowerResBlitTextureEvv
Sm:FUNCTION_TABLE_iiiiiiiiiiii
qUi:_GUIUtility_Internal_GetPixelsPerPoint_m1075452981
UTa:__ZN16GraphicsSettingsD0Ev
Bed:__ZN17TileAnimationData8TransferI19StreamedBinaryWriteILb0EEEEvRT_
n:cttz_i8
T1c:_UNITY_FT_GlyphLoader_Add
_Ai:_Display_FireDisplaysUpdated_m2197288612
Age:_DateTimeFormatInfo_get_FullDateTimePattern_m2607507656
IQf:_HttpsClientStream_RaiseServerCertificateValidation_m3356770426
hNi:_RectTransform_INTERNAL_set_anchorMin_m3893342226
Keb:__ZN14SubstanceInput22CopyFromSubstanceInputERKS_
FGe:_Array_swap_TisUIVertex_t1204258818_TisUIVertex_t1204258818_m1163375424_gshared
Ll:_emscripten_glViewport
Rbc:__Z21GenerateTilingAreaJobP22GenerateTilingAreaInfoj
OSj:__ZN6il2cpp6icalls8mscorlib6System15MonoCustomAttrs17IsDefinedInternalEP12Il2CppObjectP20Il2CppReflectionType
FWa:__ZN4Mesh21UnswizzleVertexColorsEb
oAi:_StateChanged_BeginInvoke_m3311323480
Rle:_DateTime_ToString_m2276663647_AdjustorThunk
H9c:_cff_parse_font_bbox
bhb:__ZN14PlayerSettings23VirtualRedirectTransferER18StreamedBinaryReadILb0EE
Mfd:__ZN15TilemapRenderer8TransferI19StreamedBinaryWriteILb0EEEEvRT_
Ete:_Array_get_swapper_TisCustomAttributeTypedArgument_t1498197914_m2780757375_gshared
D$j:__ZN6il2cpp2os5Event5ResetEv
A0b:__Z26CombineDepthNormalsTextureRK17RenderLoopContextR13dynamic_arrayI16RenderObjectDataLj4EE
w$i:_AesManaged__ctor_m2322442838
ILj:__ZN6il2cpp8metadata15GenericMetadata17InflateParametersEPK13ParameterInfohPK20Il2CppGenericContextb
V_e:_Int64_System_IConvertible_ToUInt32_m850395426_AdjustorThunk
SRa:__ZN6Camera13AwakeFromLoadE17AwakeFromLoadMode
Bxd:_HMACSHA512__ctor_m2390736870
cE:__ZNK17AnimationPlayable27GetNextCompatibleDescendantEi
V9g:_TypeBuilder_GetInterfaces_m1818658502
EPb:__Z25SetNeedToPerformRenderingb
qgh:_MonoMethod_GetPseudoCustomAttributes_m466965107
oNa:__ZN10GameObjectD2Ev
xXb:__ZN14qsort_internal30FindAndMovePivotToLastPositionIP15RODataDepthPassi17ROSorterDepthPassEEvT_S4_T0_T1_
zVh:_Enumerator_System_Collections_IDictionaryEnumerator_get_Value_m3005608231_gshared
MKh:_MaskUtilities_NotifyStencilStateChanged_m1527407683
n3b:__ZN12CullingGroup10SendEventsEPK17CullingGroupEventj
BOe:_DSAManaged_GenerateKeyPair_m2711647034
i5a:__ZThn32_NK8Renderer8GetLayerEv
NAe:_Array_InternalArray__ICollection_Add_TisResourceCacheItem_t333236149_m1151081240_gshared
o7f:_SoapServices_GetXmlTypeForInteropType_m3821579913
Ndk:_emscripten_glTexParameterfv__wrapper
yxb:__Z18Transfer_BlittableI14SafeBinaryReadLb1E9BoundsIntEvRK29SerializationCommandArgumentsR31RuntimeSerializationCommandInfo
Ktj:_il2cpp_method_get_param_count
Fnc:__ZN10systeminfo19ISOToSystemLanguageERN4core12basic_stringIcNS0_20StringStorageDefaultIcEEEE
Tzj:__ZNK15dense_hashtableINSt3__24pairIK10KeyWrapperINS1_IPK12PropertyInfoP11Il2CppClassEEEjEES9_17ReflectionMapHashIS8_EN14dense_hash_mapIS9_jSD_NS9_14EqualsComparerINS0_8equal_toIS8_EEEENS0_9allocatorISB_EEE9SelectKeyESI_SK_E3endEv
CWc:__ZN11Rigidbody2D8TransferI19StreamedBinaryWriteILb0EEEEvRT_
g6c:_ps_dimension_done
BPd:_LayoutRebuilder_MarkLayoutForRebuild_m640589351
Pcd:__Z46Register_UnityEngine_TextGenerator_Dispose_cppv
hNd:_PointerEventData_get_pressEventCamera_m724559964
Ieb:__ZN14SubstanceInputD2Ev
pDd:_String_IndexOfUnchecked_m3356721554
_3a:__ZN16LightmapSettings8TransferI14SafeBinaryReadEEvRT_
sja:__ZN17BufferManagerGLES13ReleaseBufferEP14DataBufferGLES
tHc:__Z18Transfer_BlittableI8JSONReadLb1EjEvRK29SerializationCommandArgumentsR31RuntimeSerializationCommandInfo
oHi:_PKCS12_Decrypt_m1557069392
OSh:_VertexHelper_AddUIVertexQuad_m280792808
IXf:_WebHeaderCollection_ToString_m1246460752
_ai:_InternalEnumerator_1_System_Collections_IEnumerator_get_Current_m2842514953_AdjustorThunk
jp:stackSave
urd:__ZN5Unity9rapidjson15GenericDocumentINS0_4UTF8IcEE13JSONAllocatorNS0_12CrtAllocatorEE6StringEPKcjb
z6c:_ps_dimension_end
fuc:__Z41Register_UnityEngine_Mesh_Internal_Createv
Ncb:__ZN14SpriteRenderer23VirtualRedirectTransferER24GenerateTypeTreeTransfer
GLj:__ZNK15dense_hashtableI10KeyWrapperIP18Il2CppGenericClassES3_N6il2cpp8metadata22Il2CppGenericClassHashEN14dense_hash_setIS3_S6_NS3_14EqualsComparerINS5_25Il2CppGenericClassCompareEEENSt3__29allocatorIS3_EEE8IdentityESA_SD_E12test_deletedERK30dense_hashtable_const_iteratorIS3_S3_S6_SF_SA_SD_E
zUc:__ZNSt3__27__sort3IRN18Overlap2DQueryBase29ColliderHitsByDepthComparitorEPP10Collider2DEEjT0_S7_S7_T_
Sij:__ZN6il2cpp2vm5Class14GetNestedTypesEP11Il2CppClassPPv
Rxd:_MACTripleDES_Initialize_m1318099802
MJf:_MD5SHA1_VerifySignature_m507888141
v5d:_Byte_System_IConvertible_ToChar_m4188836679
kZe:_NumberFormatter_InitDecHexDigits_m2036076025
cWh:_Enumerator_get_CurrentKey_m3839846791_AdjustorThunk
P4b:__ZN6Camera9SetAspectEf
wa:invoke_viiffiii
b$g:__ZL79TouchInputModule_t2561058385_CustomAttributesCacheGenerator_m_ForceModuleActiveP21CustomAttributesCache
cfk:_emscripten_glBindVertexArray__wrapper
c1h:_Dictionary_2_InitArrays_m435313205_gshared
oOa:__ZN9Transform37InitializeTransformHierarchyRecursiveER18TransformHierarchyRii
Dec:__Z34DefaultPrepareDispatchBoundsUpdateR13RendererScene18MemLabelIdentifier
sVd:_Graphic_get_useLegacyMeshGeneration_m1366444625
oCa:__ZN26SinglePassStereoSupportExt23SetupStereoMatrixParamsE21MonoOrStereoscopicEye24BuiltinShaderMatrixParamRK10Matrix4x4f
_0g:__ZL65InputField_t1631627530_CustomAttributesCacheGenerator_m_InputTypeP21CustomAttributesCache
QMe:_ModulusRing_Pow_m1137250399
eZ:__Z46AudioListener_CUSTOM_GetNumExtensionPropertiesP12Il2CppObject
NZf:_X509Chain_Build_m2341271288
KVa:__ZN17MeshRenderingData4InitEP4MeshS1_iP15SharedGfxBufferS3_
ace:_Hashtable__cctor_m2952659675
O$f:_X509ChainStatus__ctor_m3628359961_AdjustorThunk
IAb:__ZN15SerializeTraitsI13dynamic_arrayIN4math12int3_storageELj4EEE19ResizeSTLStyleArrayERS3_i
GDd:_Evidence_get_HostEvidenceList_m2095478124
Hwc:__Z57Register_UnityEngine_Transform_INTERNAL_set_localPositionv
RMf:_Context_Clear_m4000337070
nna:__ZN13GfxDeviceGLES26SetRandomWriteTargetBufferEi15ComputeBufferID
y2f:_IntervalCollection_Normalize_m538796191
WSb:__ZZ23InitPlayerLoopCallbacksvEN49EarlyUpdateResetFrameStatsAfterPresentRegistrator7ForwardEv
Aee:_Console_SetEncodings_m342145566
jVd:_FontUpdateTracker_UntrackText_m3827316510
ORi:_Vector2_get_sqrMagnitude_m593717298_AdjustorThunk
IIe:_Array_InternalArray__get_Item_TisSingle_t2076509932_m1495809753_gshared
s8i:_Font_get_fontSize_m3125470578
onc:__ZNK11ICallString6ToUTF8Ev
Hui:_CaptureAssertion_get_Alternate_m2729005740
DUj:_GC_number_stack_black_listed
yXb:__ZNSt3__211__sift_downIR17ROSorterDepthPassP15RODataDepthPassEEvT0_S5_T_NS_15iterator_traitsIS5_E15difference_typeES5_
J6g:_Default_SelectMethod_m3081239996
V_a:__ZN18UnityPropertySheet11UnityTexEnvC2Ev
jG:__ZN8Animator17ApplyOnAnimatorIKEiRNS_11AnimatorJobE
qca:__ZN12FileAccessor4ReadEyyPvPy
b_a:__ZN13dynamic_arrayI16ShaderKeywordSetLj4EE6insertEPS0_PKS0_S4_
$3f:_MethodDictionary_IsOverridenKey_m3922224650
nde:_SyncHashtable_Contains_m3042906549
iKc:__ZN11UnityEngine9Analytics18RenderingInfoEvent13SetFrameStatsERK13dynamic_arrayIjLj4EEjjj
Eof:_List_1_System_Collections_IList_set_Item_m4016273526_gshared
d0f:_X509KeyUsageExtension_CopyFrom_m931530012
p4b:__ZN13RenderTexture9SetHeightEi
Kz:__ZN7mecanim9animation17ClearMotionOutputEPNS0_18AnimationNodeStateE
AKh:_LayoutUtility_U3CGetMinHeightU3Em__4_m1769295917
wTf:_SslStreamBase_Read_m1036897444
AMh:_RectMask2D_PerformClipping_m1232012832
UGj:__ZN6il2cpp6icalls8mscorlib6System2IO6MonoIO17GetFileAttributesEP12Il2CppStringPi
SWh:_Transform_1_Invoke_m4020530914_gshared
P4c:_tt_cmap8_char_index
M9b:__Z14tessMeshDeleteP8TESSmeshP12TESShalfEdge
q8:__Z24scripting_class_get_name17ScriptingClassPtr
_da:__ZN13RuntimeStaticI15GUIEventManagerLb0EE13StaticDestroyEPv
$Qj:__ZN6il2cpp2os6Thread15CurrentThreadIdEv
pzb:__Z29Transfer_Blittable_ArrayFieldI14SafeBinaryReadjEvRT_R9ArrayInfoRK23StaticTransferFieldInfo
HQc:__ZN16CircleCollider2D13PrepareShapesER13dynamic_arrayIP7b2ShapeLj4EERK10Matrix4x4f
je:_emscripten_set_keydown_callback
Lce:_Enumerator_get_Value_m3684748062
dPa:__ZN19StreamedBinaryWriteILb0EE21TransferSTLStyleArrayINSt3__26vectorI17SortingLayerEntryNS2_9allocatorIS4_EEEEEEvRT_17TransferMetaFlags
Mmg:_UInt32_Parse_m3371984903
yca:__ZN12FileAccessorC2Ev
xsi:_PatternLinkStack_GetCurrent_m2994645935
sSa:__ZN6Camera8TransferI19StreamedBinaryWriteILb0EEEEvRT_
rXc:__ZN23ColliderTilingExtensionC2Ev
csj:__ZN6il2cpp2vm7Runtime12GetConfigDirEv
b4f:_MethodDictionary_set_Item_m3475146889
cTh:_Toggle_PlayEffect_m3950629415
Fye:_Array_IndexOf_TisRuntimeObject_m214763038_gshared
SNb:__Z39WriteQueueForTransferSignatureIntoCacheRK31TransferFunctionScriptingTraitsRK24TransferRequestSignature17ScriptingClassPtrR23CachedSerializationDataRb
Ekb:__ZN13RenderManager18UpdateAllRenderersEv
rL:__ZN18AnimatorController19TransferRuntimeDataI18StreamedBinaryReadILb0EEEEvRT_
BFi:_Mesh_Clear_m239607636
Rod:__ZN22BaseUnityConnectClient30OnEnteringStatePausedOrStoppedEv
gPc:__ZN10ClipperLib7Clipper18SwapPositionsInAELEPNS_5TEdgeES2_
Czj:__ZN15dense_hashtableINSt3__24pairIK10KeyWrapperINS1_IPK12PropertyInfoP11Il2CppClassEEEjEES9_17ReflectionMapHashIS8_EN14dense_hash_mapIS9_jSD_NS9_14EqualsComparerINS0_8equal_toIS8_EEEENS0_9allocatorISB_EEE9SelectKeyESI_SK_E12resize_deltaEjj
Xz:__ZN7mecanim5human12HumanPoseAddERNS0_9HumanPoseERKS1_S4_
svf:_Collection_1_IsFixedSize_m218241296_gshared
UNa:__Z24MergeTransformComponentsR9TransformS0_b
I3i:_DelegatePInvokeWrapper_AudioConfigurationChangeHandler_t3743753033
Q3e:_MonoIO_get_PathSeparator_m2635828107
Z8e:_MonoType_get_Name_m865859211
Sse:_CultureInfo__cctor_m2290268677
aHd:_String_Trim_m3982520224
B6f:_RemotingConfiguration__cctor_m2129988840
Jtf:_Collection_1_Insert_m44548038_gshared
QSj:__ZN6il2cpp2vm13ComObjectBase19GetRuntimeClassNameEPP15Il2CppHString__
Tj:_emscripten_glVertexAttribPointer
HVa:__ZNK20IntermediateRenderer12GetSceneMaskEv
Fjb:__ZN14PreloadManager26UpdatePreloadingSingleStepENS_21UpdatePreloadingFlagsEi
lBd:_SHA512Managed_Initialize_m891287980
_Dd:_SecurityException__ctor_m1484114982
xJi:_X509Crl_GetHashName_m183504634
i2d:_Array_GetValue_m1507415734
Juc:__Z57Register_UnityEngine_RectTransform_INTERNAL_set_anchorMinv
uVe:_Object_MemberwiseClone_m2655589444
Fta:__ZN6prcoreL25inner_stretch_i8_bilinearEPKNS_9InnerInfoE
Xlb:__ZL30RegisterFilteredObjectCallbackPP12Il2CppObjectiPv
ygh:_MonoMethod_get_IsGenericMethod_m4276550811
pXh:_Transform_1_BeginInvoke_m3826027984_gshared
x$:__ZN11UnityEngine15CloudWebService16SessionContainer24GetSessionHeaderJsonDataERKN4core12basic_stringIcNS2_20StringStorageDefaultIcEEEERNS2_13StringBuilderE
ghe:_Decimal_op_Implicit_m2149927308
Nda:__ZN13RuntimeStaticI21AssetReferenceStorageLb0EE13StaticDestroyEPv
zmg:_UInt16_System_IConvertible_ToUInt32_m1864968312
COj:__ZN6il2cpp6icalls8mscorlib6System9AppDomain22InternalGetProcessGuidEP12Il2CppString
ZOe:_KeyPairPersistence_get_UseMachineKeyStore_m560802076
_Th:_Enumerator_System_Collections_IDictionaryEnumerator_get_Entry_m345330700_AdjustorThunk
ZJa:__ZNK17FileSystemHandler10IsReadOnlyERK13FileEntryData
LDb:__Z18Transfer_BlittableI24GenerateTypeTreeTransferLb1EjEvRK29SerializationCommandArgumentsR31RuntimeSerializationCommandInfo
jJf:_MD2Managed_Padding_m410163267
gec:__ZNK28RectTransformPropertyBinding9BindValueER6ObjectRKN11UnityEngine9Animation14GenericBindingERNS3_10BoundCurveE
AVa:__ZN11ColorRGBA328TransferI14SafeBinaryReadEEvRT_
jof:_List_1_set_Capacity_m1734764639_gshared
Of:_emscripten_glClearDepth
Shc:__ZNK8GUILayer22GetTypeVirtualInternalEv
w6a:__ZN14SafeBinaryRead21TransferSTLStyleArrayINSt3__26vectorIN15QualitySettings14QualitySettingENS1_9allocatorIS4_EEEEEEvRT_17TransferMetaFlags
I1e:_File_OpenText_m4058508963
Cgb:__ZNSt3__26vectorINS_4pairIPKN5Unity4TypeE7Hash128EENS_9allocatorIS7_EEE8__appendEj
A7f:_WellKnownClientTypeEntry__ctor_m670594074
VDj:__ZN15dense_hashtableINSt3__24pairIK10KeyWrapperIP11Il2CppClassES4_EES5_N6il2cpp8metadata16SZArrayClassHashEN14dense_hash_mapIS5_S4_SA_NS5_14EqualsComparerINS9_19SZArrayClassCompareEEENS0_9allocatorIS7_EEE9SelectKeyESE_SG_EC2ERKSJ_j
yke:_DateTime_System_IConvertible_ToSingle_m3927769066_AdjustorThunk
V8c:_cff_font_load
QQf:_RecordProtocol_SendRecord_m2977889250
toc:__Z13IsPathCreatedRKN4core12basic_stringIcNS_20StringStorageDefaultIcEEEE
gN:__ZN13ProduceHelperI13AnimationClipLb0EE7ProduceE18MemLabelIdentifier18ObjectCreationMode
kta:__ZL22stbir__encode_scanlineP11stbir__infoiPvPfiii
Pph:__Z136RuntimeInvoker_Void_t1841601450_Byte_t3683104436_RuntimeObject_Int64U26_t763825331_ObjectU26_t597476745_SerializationInfoU26_t4051840202PFvvEPK10MethodInfoPvPS4_
YZc:__ZN20QuadTreeNodeRenderer13StaticDestroyEPv
t0:__ZN11UnityEngine15CloudWebService20WebRequestRestClient5AbortEv
OWi:_InvokableCall_1_Invoke_m2228071798_gshared
rec:__ZN9Transform12CleanupClassEv
ukh:__Z50RuntimeInvoker_Void_t1841601450_Double_t4078015681PFvvEPK10MethodInfoPvPS4_
hVi:_GUILayoutGroup_CalcWidth_m877887811
PMf:_ClientContext_set_ClientHelloProtocol_m2246603449
FPi:_Texture_Internal_GetHeight_m3235768354
Kqa:__ZNSt3__26vectorIN9GfxDevice14SubPassActionsENS_9allocatorIS2_EEE26__swap_out_circular_bufferERNS_14__split_bufferIS2_RS4_EE
E$d:_U3CMouseDragOutsideRectU3Ec__Iterator1_MoveNext_m2845491958
jpb:__ZNSt3__26vectorIN9ShaderLab19SerializedSubShaderENS_9allocatorIS2_EEE26__swap_out_circular_bufferERNS_14__split_bufferIS2_RS4_EE
QF:__ZN11UnityEngine9Animation33SetGenericTransformPropertyValuesERKNS0_30AnimatorGenericBindingConstantERKN7mecanim10ValueArrayEP9Transformy
bw:__ZN11UnityEngine9Animation28AnimationClipBindingConstant8TransferI24GenerateTypeTreeTransferEEvRT_
Pgj:_AnalyticsTracker_TriggerEvent_m1494303835
sOd:_StandaloneInputModule_IsModuleSupported_m623598506
ZEj:__ZN6il2cpp2vmL24thread_cleanup_on_cancelEPv
ubg:_SByte_ToString_m4105923225_AdjustorThunk
Wse:_CultureInfo_ConstructCurrentUICulture_m3363349599
yog:_UInt64_CompareTo_m2422461804_AdjustorThunk
A3g:__ZL75CanvasScaler_t2574720772_CustomAttributesCacheGenerator_m_FallbackScreenDPIP21CustomAttributesCache
w8e:_MonoType_GetEvent_m4160342003
kMh:_RawImage_set_texture_m2400157626
W1i:_PrimeHelper_ToPrime_m1606935350_gshared
XVa:__Z30ProcessDynamicBatchGeometryJobP25DynamicVBOGeometryJobDataj
dEh:__Z59RuntimeInvoker_Boolean_t3825574718_RaycastHit2D_t4063908774PFvvEPK10MethodInfoPvPS4_
UXb:__ZNSt3__27__sort4IRNS_6__lessI11CulledLightS2_EEPS2_EEjT0_S6_S6_S6_T_
cvj:__ZN6il2cpp2vm14TypeNameParser26ParseArrayModifierOptionalEv
kKe:_MSCompatUnicodeTable_Level3_m260824928
H9:__Z26scripting_object_get_class18ScriptingObjectPtr
jjb:__ZNSt3__26vectorIN4core12basic_stringIcNS1_20StringStorageDefaultIcEEEE13stl_allocatorIS5_L18MemLabelIdentifier13ELi16EEE7reserveEj
qcj:_RectTransformUtility_GetTransposed_m1233793627
Rdc:__ZNK28MonoBehaviourPropertyBinding15GenerateBindingERKN4core12basic_stringIcNS0_20StringStorageDefaultIcEEEEbRN11UnityEngine9Animation14GenericBindingE
cYe:_Int32_FindExponent_m3187554672
jPe:_KeyPairPersistence_Load_m1355205585
m_e:_Int32_ToString_m2960866144_AdjustorThunk
$eb:__ZN14SubstanceValue8TransferI18StreamedBinaryReadILb0EEEEvRT_
VFd:_Single_CompareTo_m2081476257_AdjustorThunk
f3i:_AudioExtensionManager_AddSpatializerExtension_m1881494443
_Pj:__ZN6il2cpp6icalls8mscorlib6System11Environment15internalGetHomeEv
s7j:dynCall_iiiiiiffiiiiiiiiiffffiiii
tEa:__ZNK5Unity9Component7GetNameEv
n9f:__ZN21InterfaceFuncInvoker4IP12Il2CppObjectS1_P28SerializationInfo_t22898743028StreamingContext_t1417235061S1_E6InvokeEjP11Il2CppClassS1_S1_S3_S4_S1_
O_i:_ObjectPool_1_Get_m3724675538_gshared
tMc:__ZNK11b2RopeJoint16GetReactionForceEf
cH:__ZN7mecanim8skeleton26SkeletonPoseComputeGlobalQEPKNS0_8SkeletonEPKNS0_13SkeletonPoseTIN4math4trsXEEEPS7_ii
Qrd:__ZN18UnityConnectClient19RegisterVRCallbacksEv
jjf:_List_1_GetEnumerator_m2672519407_gshared
x9b:__ZN10BootConfig4Data3SetEPKcjS2_j
EG:__ZN9BlobWrite8TransferI22OffsetPtrArrayTransferIiEEEvRT_PKc17TransferMetaFlags
cqh:__Z82RuntimeInvoker_Boolean_t3825574718_SByte_t454417549_RuntimeObject_SByte_t454417549PFvvEPK10MethodInfoPvPS4_
WJe:_ContractionComparer_Compare_m314873025
E_e:_Int64_System_IConvertible_ToDouble_m638786774
sT:__ZN4FMOD6System7releaseEv
Vba:__Z18PathToAbsolutePathRKN4core12basic_stringIcNS_20StringStorageDefaultIcEEEE
Fbf:_Enumerator_MoveNext_m3078170540_AdjustorThunk
Ct:__ZN13AnimationClip23VirtualRedirectTransferER17RemapPPtrTransfer
vnd:__ZN21UnityAnalyticsManager15ThreadedCleanupEv
UXj:__ZN6il2cpp6icalls8mscorlib6System10Reflection16MonoPropertyInfo16GetTypeModifiersEPvb
TVc:__ZThn160_N17PolygonCollider2D5ResetEv
o$i:_Action_Invoke_m3801112262
Gkh:__Z79RuntimeInvoker_Decimal_t724701077_RuntimeObject_Int32_t2071877448_RuntimeObjectPFvvEPK10MethodInfoPvPS4_
Osa:__ZL13BlitImageImplR14ImageReferenceiiRKS_NS_10ColorSpaceENS_8BlitModeEb
kjc:__ZN15DirectorManager17AcquireOutputNodeEv
Wjh:__Z64RuntimeInvoker_RuntimeObject_Int16_t4041245914_Int16_t4041245914PFvvEPK10MethodInfoPvPS4_
nBa:__ZN16GeometryJobTasks20ScheduleGeometryJobsER9GfxDevicePFvP15GeometryJobDataEPK22GeometryJobInstructionjb
yR:__ZN12AudioManager29ShutdownReinitializeAndReloadEv
_Gi:_NetscapeCertTypeExtension_Decode_m2210025005
J7f:_BaseFixupRecord_DoFixup_m1821597450
Thj:__ZN15dense_hashtableINSt3__24pairIK10KeyWrapperIPK22Il2CppGenericParameterEP11Il2CppClassEES6_N6il2cpp5utils11PointerHashIS4_EEN14dense_hash_mapIS6_S9_SE_NS6_14EqualsComparerINS0_8equal_toIS5_EEEENS0_9allocatorISA_EEE9SelectKeyESJ_SL_E6insertERKSA_
M1e:_FileLoadException__ctor_m1356374414
yXi:_InvokableCall_4_Invoke_m1140294390_gshared
fqa:__ZN14DataBufferGLES16RecreateWithDataEjPKv
QEa:__Z29GetGlobalAllowNameConversionsv
Y5b:__ZN8Material8SetColorEN9ShaderLab16FastPropertyNameERK10ColorRGBAf
Neh:_Module_GetCustomAttributes_m3581287913
hV:__ZN11AudioSource23VirtualRedirectTransferER18StreamedBinaryReadILb0EE
Qda:__ZN21AssetReferenceStorageC2Ev
u8:__ZL41AssemblyNameMatchesWithOrWithoutExtensionPKcS0_
aLc:__ZN23ColliderTilingExtension5ResetEv
jya:__ZN14GfxContextGLES43AddRenderSurfaceToDeferredFBOInvalidateListEPK17RenderSurfaceGLES
xGj:__ZN6il2cpp6icalls8mscorlib6System9Threading6Thread15Thread_internalEP12Il2CppThreadP14Il2CppDelegate
TGa:__ZN11NamedObject23VirtualRedirectTransferER14SafeBinaryRead
l3i:_AudioListener_GetNumExtensionProperties_m2652400521
h1c:__ZNSt3__26vectorIN20TextRenderingPrivate8FontImpl13CharacterInfoE13stl_allocatorIS3_L18MemLabelIdentifier1ELi16EEE6insertENS_11__wrap_iterIPKS3_EERS9_
NHa:__ZN23PreloadManagerOperation6IsDoneEv
lsj:__ZN6il2cpp2vm7Runtime15InvokeWithThrowEPK10MethodInfoPvPS5_
QSe:_X509Certificate_get_RawData_m3000055075
bkc:__Z33GetHasChangedDeprecatedSystemMaskv
ERc:__ZN10Effector2D10EndContactEP9b2Contact
qSj:__ZN6il2cpp5utils11StringUtils11Utf16ToUtf8ERKNSt3__212basic_stringIDsNS2_11char_traitsIDsEENS2_9allocatorIDsEEEE
jVh:_Enumerator_VerifyState_m1165543189_AdjustorThunk
kle:_DateTime_AddSeconds_m722082155_AdjustorThunk
cae:_SynchronizedArrayListWrapper_CopyTo_m956887031
clb:__ZN21LightProbeProxyVolume18HasHardwareSupportEv
Obj:_CanvasRenderer_set_materialCount_m1703953120
MTc:__ZNK20b2SeparationFunction17FindMinSeparationEPiS0_f
Ata:__ZN6prcoreL31inner_stretch_argb8888_bilinearEPKNS_9InnerInfoE
LHb:__Z18Transfer_BlittableI18StreamedBinaryReadILb1EELb1E8BitFieldEvRK29SerializationCommandArgumentsR31RuntimeSerializationCommandInfo
c3c:_UNITY_FT_Outline_Decompose
$Of:_TlsClientCertificate_get_ClientCertificate_m3062440489
wDd:_StrongNamePublicKeyBlob_ToString_m3721281223
PWj:_GC_init_size_map
qai:_InternalEnumerator_1_get_Current_m198513457_AdjustorThunk
_Sa:__Z20scripting_object_new17ScriptingClassPtr
$Ve:_TextInfo__ctor_m2782608694
Gpf:_Queue_1_System_Collections_ICollection_CopyTo_m772787461_gshared
iWe:_TextInfo_ToUpper_m299550697
yVd:_Graphic_OnRectTransformDimensionsChange_m1610753363
dje:_Convert_ToUInt16_m3265369225
P:Math_exp
b8e:_MonoEnumInfo_get_Cache_m3551569711
Lo:FUNCTION_TABLE_iiifi
qOj:__ZN6il2cpp2os5posix13PosixAutoLockD2Ev
Rue:_Array_InternalArray__ICollection_Contains_TisVector3_t2243707580_m3625701788_gshared
oXc:__ZN13BoxCollider2D15InitializeClassEv
AVc:__GLOBAL__sub_I_modules_physics2d_public_0_cpp
nNb:__ZN13MonoBehaviour9SetScriptERK4PPtrI10MonoScriptE18ScriptingObjectPtr
Hue:_Array_InternalArray__ICollection_Contains_TisPlayableBinding_t2498078091_m4267109606_gshared
nXc:__ZN13ProduceHelperI13BoxCollider2DLb0EE7ProduceE18MemLabelIdentifier18ObjectCreationMode
K2c:_UNITY_FT_Create_Class_sfnt_module_class
Tne:_Decimal_IsZero_m3557909184_AdjustorThunk
J7d:_Char_ToString_m1401375624
Zxd:_MD5CryptoServiceProvider__cctor_m3309191799
zMa:__ZNK10FileSystem16LastErrorMessageEv
nyh:__Z74RuntimeInvoker_Vector2_t2243707579_Vector2_t2243707579_Vector2_t2243707579PFvvEPK10MethodInfoPvPS4_
fdf:_Enumerator_System_Collections_IEnumerator_Reset_m3052395060_gshared
sHf:_Kernel_DwordDivMod_m3728402123
EMb:__ZN13MonoBehaviour13AwakeFromLoadE17AwakeFromLoadMode
SBb:__ZL26Transfer_SimpleNativeClassI17RemapPPtrTransfer8GradientLb1EEvRK29SerializationCommandArgumentsR31RuntimeSerializationCommandInfo
pkc:__ZN12CachedWriter9InitWriteER15CacheWriterBase
ejc:__Z21UnsignedInt64ToStringy
rgg:_UTF7Decoder__ctor_m549434986
_gi:_InternalEnumerator_1_get_Current_m1025321669_AdjustorThunk
Uwc:__Z66Register_UnityEngine_Transform_INTERNAL_CALL_InverseTransformPointv
lga:__ZZN15DirectorManager15InitializeClassEvEN41FixedUpdateDirectorFixedUpdateRegistrator7ForwardEv
GJi:_X509Crl_VerifySignature_m1390212587
Q0f:_Group__ctor_m4103922028
Nek:_glLinkProgram__wrapper
Otb:__ZN18ScriptingArguments8AddInt64Ex
iua:__ZN6prcoreL12RemapGenericI17TexFormatARGB888815TexFormatBGR888EEvPKNS_9InnerInfoE
tub:__ZN12HandlerChain4LockER13FileEntryData12FileLockMode
dyd:_MD5CryptoServiceProvider_ProcessFinalBlock_m1052610785
sae:_BitArray_Set_m2878881714
Tsd:__ZN28UnityConnectScriptingClasses23CallSessionStateChangedEixxbP21ScriptingExceptionPtr
MWe:_Guid_CompareTo_m2203922782_AdjustorThunk
fQh:_Selectable_get_colors_m3501193396
UJj:__ZN6il2cpp6icalls8mscorlib6System13Globalization11CultureInfo35construct_internal_locale_from_nameEP17Il2CppCultureInfoP12Il2CppString
_Db:__ZL22Transfer_ManagedObjectI24GenerateTypeTreeTransferLb1EEvRK29SerializationCommandArgumentsR31RuntimeSerializationCommandInfo
Mpi:_ContextAttribute_Equals_m53324298
ak:_emscripten_set_main_loop_timing
Syi:_Camera_ScreenToViewportPoint_m3458250415
Ipg:_WeakReference_AllocateHandle_m1783929473
aqa:__ZN14DataBufferGLES12RecordRenderEv
GFe:_Array_Sort_TisRuntimeObject_m3674422195_gshared
D5b:__ZN14ImageReference10FlipImageYEv
yAc:__Z14GetDefaultSkini
MO:__ZN4FMOD3DSP9setBypassEb
$8b:__Z19NormalizeWheelInputf
Zue:_Array_InternalArray__ICollection_Remove_TisLink_t865133271_m1984184141_gshared
uJc:__Z29Transfer_Blittable_ArrayFieldI8JSONReadhEvRT_R9ArrayInfoRK23StaticTransferFieldInfo
O0d:_LayoutRebuilder_IsDestroyed_m3442208294
MUh:_Enumerator_VerifyState_m1547102902_AdjustorThunk
l$j:__ZN6il2cpp2os20ThreadLocalValueImpl8SetValueEPv
BTa:__ZN22RenderingCommandBuffer20CleanupCommandBufferEv
pqh:__Z165RuntimeInvoker_Void_t1841601450_UInt32U26_t2197289955_Int32_t2071877448_UInt32U26_t2197289955_Int32_t2071877448_Int32_t2071877448_Int32_t2071877448_Int32_t2071877448PFvvEPK10MethodInfoPvPS4_
jEc:__Z18Transfer_BlittableI9JSONWriteLb1EtEvRK29SerializationCommandArgumentsR31RuntimeSerializationCommandInfo
N1e:_FileLoadException__ctor_m918124939
tk:___syscall85
Nia:__ZN15dense_hashtableINSt3__24pairIKN4core12basic_stringIcNS2_20StringStorageDefaultIcEEEE13dynamic_arrayI4PPtrI6SpriteELj4EEEES6_20StringHash32FunctionIS6_EN14dense_hash_mapIS6_SC_SF_NS0_8equal_toIS6_EE13stl_allocatorISD_L18MemLabelIdentifier81ELi16EEE9SelectKeyESI_SL_E5clearEv
DVb:__ZNSt3__26__sortIRPFbP10GUIElementS2_EPS2_EEvT0_S7_T_
$Hf:_SequentialSearchPrimeGeneratorBase_GenerateSearchBase_m2930465198
Yhc:__ZN16GraphicsSettings12CleanupClassEv
aRj:__ZN6il2cpp2os6Thread19DetachCurrentThreadEv
mij:__ZN6il2cpp2vmL21SetupInterfacesLockedEP11Il2CppClassRKNS_2os12FastAutoLockE
Ewb:__ZN11MonoManager23VirtualRedirectTransferER24GenerateTypeTreeTransfer
NE:__ZN23AnimationPlayableOutput17SetSourcePlayableEP8Playable
q0f:_Capture__ctor_m885749277
FYd:_SubmitEvent__ctor_m222860306
t$:__ZN11UnityEngine15CloudWebService14DataDispatcher15SetupWebRequestEv
V5e:_TextWriter__cctor_m4047845042
Ypd:__ZN11UnityEngine15PlatformWrapper13GetShaderCapsEv
nGi:_Object_ToString_m2938729670
k1b:__ZNSt3__211__sift_downIR26RenderDeferredObjectSorterP16RenderObjectDataEEvT0_S5_T_NS_15iterator_traitsIS5_E15difference_typeES5_
ZYd:_InputField_CaretBlink_m3960486606
dk:_emscripten_glGetProgramiv
JPe:_SmallXmlParser_ReadCharacters_m1966365555
WSf:_InternalAsyncResult_get_CompletedWithError_m3993955322
Gic:__ZN21FixedBehaviourManager6UpdateEv
coc:__ZN9Transform9SetParentEPS_NS_15SetParentOptionE
LWd:_GridLayoutGroup_set_startCorner_m1660251450
nRa:__ZN19ShaderPropertySheet8SetFloatEN9ShaderLab16FastPropertyNameEfNS_8SetFlagsE
$0g:__ZL68InputField_t1631627530_CustomAttributesCacheGenerator_m_AsteriskCharP21CustomAttributesCache
Tjb:__ZN19RuntimeSceneManager24BeginIntegrateMainThreadEP10UnityScene
EPj:__ZNSt3__2plIcNS_11char_traitsIcEENS_9allocatorIcEEEENS_12basic_stringIT_T0_T1_EERKS9_S6_
M6e:_LocalDataStoreSlot__cctor_m1192669356
Oob:__ZN9ShaderLab20SerializedSubProgramaSERKS0_
j5j:_roundf
tId:_String_CreateString_m2556700934
bPa:__ZN18StreamedBinaryReadILb0EE21TransferSTLStyleArrayINSt3__26vectorI17SortingLayerEntryNS2_9allocatorIS4_EEEEEEvRT_17TransferMetaFlags
ry:__ZN8Animator15SetPrepareStageEv
ARh:_Slider_get_axis_m162140813
nij:__ZN6il2cpp2vmL24SetupTypeHierarchyLockedEP11Il2CppClassRKNS_2os12FastAutoLockE
h9b:__ZL11TextHandleriPK23EmscriptenKeyboardEventPv
D_b:__Z20CalculateLightMatrixRK15SharedLightDataP10Matrix4x4f
YPh:_ScrollRect_SetLayoutHorizontal_m3486408020
H0c:_destroy_face
$Di:_Material_SetIntImpl_m1039479734
tUh:_Enumerator_VerifyState_m1547102902_gshared
jYj:__ZN6il2cpp6icalls8mscorlib6System8Security12Cryptography24RNGCryptoServiceProvider13RngInitializeEP11Il2CppArray
Zsh:__Z99RuntimeInvoker_Void_t1841601450_Int32_t2071877448_Int16_t4041245914_Int16_t4041245914_RuntimeObjectPFvvEPK10MethodInfoPvPS4_
AWf:_IPAddress__cctor_m3624830012
qV:__ZN20SoundChannelInstance7setMuteEb
kYf:_AsnEncodedData_EnhancedKeyUsageExtension_m1452131166
KIb:__Z19TransferField_ArrayI18StreamedBinaryReadILb1EE27Converter_SimpleNativeClassI17AnimationCurveTplIfEEEvRK23StaticTransferFieldInfoR31RuntimeSerializationCommandInfoRT0_
ROi:_SendMouseEvents__cctor_m1448404407
Ced:__ZN4Tile8TransferI19StreamedBinaryWriteILb0EEEEvRT_
WXc:__ZN7b2World18SetContactListenerEP17b2ContactListener
$Tc:__ZN14PhysicsQuery2D11LinecastAllERK8Vector2fS2_RKN10Collider2D13ContactFilterEPKS3_bP13dynamic_arrayI12RaycastHit2DLj4EE
Qqa:__ZN18GfxFramebufferGLES22MakeCurrentFramebufferENS_7BuiltinE
w1f:_Interpreter_Close_m1500459069
xk:_JS_SystemInfo_GetWidth
UMa:__ZN12CachedReader4ReadEPvj
C7c:_cf2_blues_init
uai:_InternalEnumerator_1_System_Collections_IEnumerator_get_Current_m3600601141_gshared
BAd:_SHA1Internal_HashFinal_m3188468925
_eb:__ZN14SubstanceInput8TransferI18StreamedBinaryReadILb0EEEEvRT_
UZb:__Z24CalculateLightShadowFadeRK6CamerafffR8Vector4f
A8:__ZN19RuntimeSceneManagerD2Ev
xni:_ChannelData_get_CustomProperties_m1470957369
SGe:_Dictionary_2_Do_ICollectionCopyTo_TisRuntimeObject_m545661084_gshared
J0:__ZN11UnityEngine15CloudWebService25WebRequestDownloadHandler17OnCompleteContentEv
zta:__ZN6prcore17GetIntegerBlitterE13TextureFormatS0_N14ImageReference8BlitModeE
BKc:__ZN13BoxCollider2DD0Ev
Ryj:__ZN6il2cpp2gc19AppendOnlyGCHashMapINSt3__24pairIPK11Il2CppImageP11Il2CppClassEEP22Il2CppReflectionModule17ReflectionMapHashIS9_ENS2_8equal_toIS9_EEE11TryGetValueERKS9_PSB_
IVh:_Enumerator_VerifyState_m3173176371_AdjustorThunk
IVf:_TypeConverterAttribute__cctor_m506796812
iqc:__ZN9BlobWrite14ReduceCopyImplERK14ReduceCopyDataj
e6:__ZNSt3__26__treeI19RepeatingLogMessageNS_4lessIS1_EE13stl_allocatorIS1_L18MemLabelIdentifier73ELi16EEE12__find_equalIS1_EERPNS_16__tree_node_baseIPvEESD_RKT_
VY:__ZN11AudioSource18IsPlayingScriptingEv
xji:_Comparer_1_System_Collections_IComparer_Compare_m1790257529_gshared
_Mc:__ZNK12b2WheelJoint10GetAnchorAEv
Q9j:_glShaderSource__wrapper
aLa:__ZN25MultiBlocksMemoryFileData17AdjustBlocksCountEj
hGj:__ZNSt3__214__split_bufferIN6il2cpp2vm22EmbeddedResourceRecordERNS_9allocatorIS3_EEED2Ev
WMf:_TlsClientHello__ctor_m1699671541
N_c:__ZN13TextRendering4Font8TransferI24GenerateTypeTreeTransferEEvRT_
fpi:_Context_NotifyGlobalDynamicSinks_m2916447645
yrc:__Z27CullingGroup_CUSTOM_DisposeP12Il2CppObject
vtd:__ZNSt3__26vectorIP19BaseConnectSettings13stl_allocatorIS2_L18MemLabelIdentifier6ELi16EEE21__push_back_slow_pathIKS2_EEvRT_
NUb:__ZN13ComputeShader15SetTextureParamEjRKN9ShaderLab16FastPropertyNameE9TextureID16TextureDimension
RQh:_Shadow_set_effectDistance_m1951993364
k1h:_Dictionary_2_ContainsKey_m416495915_gshared
Dm:_glStencilMask
gPj:__ZN6il2cpp2os10ThreadImpl16GetCurrentThreadEv
INf:_TlsServerHelloDone__ctor_m2125611008
Ybe:_Hashtable__ctor_m2337481811
nVh:_Enumerator_System_Collections_IEnumerator_get_Current_m2010873149_gshared
$2g:__ZL74SpriteState_t1353336012_CustomAttributesCacheGenerator_m_HighlightedSpriteP21CustomAttributesCache
Yv:__ZN24GenerateTypeTreeTransfer21TransferSTLStyleArrayINSt3__26vectorI24CompressedAnimationCurve13stl_allocatorIS3_L18MemLabelIdentifier26ELi16EEEEEEvRT_17TransferMetaFlags
QVj:_GC_push_conditional_with_exclusions
wng:_UInt32_System_IConvertible_ToUInt16_m2798641702_AdjustorThunk
g8f:_BinaryFormatter_get_DefaultSurrogateSelector_m219714691
Iad:_Compute_Point_Displacement
Nmh:__Z136RuntimeInvoker_Void_t1841601450_Int32_t2071877448_RuntimeObject_RuntimeObject_RuntimeObject_RuntimeObject_RuntimeObject_SByte_t454417549PFvvEPK10MethodInfoPvPS4_
xJf:_MD4Managed_Encode_m2097839378
bhh:_MonoProperty_GetOptionalCustomModifiers_m3827844355
SKe:_SimpleCollator_GetSortKey_m2188419329
T3g:__ZL56LayoutElement_t2808691390_CustomAttributesCacheGeneratorP21CustomAttributesCache
YXa:__ZN14RenderSettings27UpdateIndirectSpecularColorEv
Ahb:__ZN14PlayerSettings8TransferI18StreamedBinaryReadILb0EEEEvRT_
Zqj:__ZN6il2cpp6icalls8mscorlib6System8MonoType16GetMethodsByNameEP20Il2CppReflectionTypeP12Il2CppStringibS5_
ODi:_Logger_Log_m302200299
hmi:_GCHandle__ctor_m2952050298
QKh:_Mask_IsRaycastLocationValid_m62488857
oRb:__ZNSt3__27__sort3IRNS_4lessIN22BuiltinResourceManager8ResourceEEEPS3_EEjT0_S7_S7_T_
Nii:_DefaultComparer_Compare_m3472472212_gshared
j2e:_MonoIO_GetLength_m2812344043
o6c:_ps_hints_t2mask
oDj:__ZN14dense_hash_mapI10KeyWrapperINSt3__24pairIP11Il2CppClassjEEES4_N6il2cpp8metadata14ArrayClassHashENS6_14EqualsComparerINS8_17ArrayClassCompareEEENS1_9allocatorINS2_IKS6_S4_EEEEEC2EjRKS9_RKSC_
Fbb:__ZN10BlendShape8TransferI19StreamedBinaryWriteILb0EEEEvRT_
E$e:__Z21il2cpp_codegen_sizeofP11Il2CppClass
Hxa:__Z19GetTimeSinceStartupv
bFd:_SecurityFrame_get_Assembly_m2816566490
Mbj:_CanvasRenderer_set_hasPopInstruction_m3302400555
sbd:_TT_Load_Composite_Glyph
Ara:__ZN10DynamicVBOD2Ev
J2d:_Array_Sort_m2994254654
oof:_List_1__ctor_m593058937_gshared
lYb:__ZN29RenderNodeQueuePrepareContextC2Ev
UX:__ZN10SampleClipC2E18MemLabelIdentifier18ObjectCreationMode
Qpb:__ZN9ShaderLab20SerializedSubProgram16TextureParameter8TransferI24GenerateTypeTreeTransferEEvRT_
gka:__ZN9GfxDevice19SaveStereoConstantsEv
IYj:__ZN6il2cpp2os11MutexHandle4WaitEj
Yoc:__ZL34GetComponentsImplementationRecurseILb1ELi1ELi1EEbR10GameObjectbRK17CompareParametersRK39GetComponentsImplementation_ReturnValue
HYj:__ZN6il2cpp2os11MutexHandle4WaitEv
c8d:_ArrayList_set_Capacity_m592558035
sva:__ZN6prcoreL17RemapGenericFloatI15TexFormatRGHalf18TexFormatARGBFloatEEvPKNS_9InnerInfoE
TPb:__Z18SimulateMouseInputi
fUb:__ZN13RenderManager23AddRemoveCamerasDelayedEv
oFc:__ZN9JSONWrite8TransferI13dynamic_arrayIdLj8EEEEvRT_PKc17TransferMetaFlags
uzi:_Color_op_Multiply_m2110750533
sve:_Array_InternalArray__ICollection_Remove_TisILTokenInfo_t149559338_m1523907845_gshared
And:__ZN11UnityEngine9Analytics15AnalyticsConfigC2Ev
I1i:_Enumerator_CheckState_m1761755727_gshared
pce:_Hashtable_Rehash_m2877670513
o4b:__ZN13RenderTexture8SetWidthEi
X_d:_InputField_Insert_m1593238693
S1c:_UNITY_FT_GlyphLoader_CheckSubGlyphs
Hpj:__ZN6il2cpp2vm21ThreadPoolCompartment20SpawnNewWorkerThreadEv
GAe:_Array_InternalArray__ICollection_Add_TisCustomAttributeTypedArgument_t1498197914_m3260005285_gshared
x_b:__Z25SetupObjectBakedOcclusionbRK15SharedLightDataRK26SharedLightmapSettingsDataRK15LightmapIndicesR17ShaderPassContext
PWe:_Guid_GetHashCode_m1401300871
p6:__ZN9ShaderLab16FastPropertyName4InitEPKc
jdc:__Z13RegisterClassIN2UI13RectTransformEEvv
oKe:_MSCompatUnicodeTable_ToWidthCompat_m2299599532
L9e:_NumberFormatter_get_IsFloatingSource_m2830957202
phc:__ZL31MeshRendererTransformChangedJobP13BoundsJobDatajPK23TransformAccessReadOnlyPKyj
Epd:__ZN11UnityEngine15PlatformWrapper19GetPhysicalMemoryMBEv
IYa:__ZN13RenderTexture9SetMipMapEb
YOh:_ScrollRect_set_verticalScrollbarSpacing_m2356851539
Vfa:__Z18GetDirectorManagerv
nwc:__Z38Transform_CUSTOM_INTERNAL_get_rotationP12Il2CppObjectP11Quaternionf
Mvj:__ZNSt3__26vectorIN6il2cpp2vm17TypeNameParseInfoENS_9allocatorIS3_EEE8allocateEj
Gyj:__ZNK15dense_hashtableINSt3__24pairIK10KeyWrapperINS1_IPK10MethodInfoP11Il2CppClassEEEjEES9_17ReflectionMapHashIS8_EN14dense_hash_mapIS9_jSD_NS9_14EqualsComparerINS0_8equal_toIS8_EEEENS0_9allocatorISB_EEE9SelectKeyESI_SK_E5beginEv
xwa:__ZN7ApiGLES19UploadBufferSubDataEjN2gl12BufferTargetEllPKv
zia:__ZNSt3__216__rotate_forwardINS_11__wrap_iterIPN4core12basic_stringIcNS2_20StringStorageDefaultIcEEEEEEEET_S9_S9_S9_
AGd:_String_System_IConvertible_ToInt32_m1927223638
rK:__ZN7mecanim12statemachine20StateMachineConstant8TransferI14SafeBinaryReadEEvRT_
HId:_ASCIIEncoding__ctor_m4127831672
Lzi:_GameObject_GetComponent_m724360550
zbj:_CanvasGroup_get_alpha_m4171392097
Vyb:__Z19TransferField_ArrayI14SafeBinaryRead27Converter_SimpleNativeClassI8GUIStyleEEvRK23StaticTransferFieldInfoR31RuntimeSerializationCommandInfoRT0_
cth:__Z63RuntimeInvoker_Void_t1841601450_RuntimeObject_Int16_t4041245914PFvvEPK10MethodInfoPvPS4_
reg:_UTF8Encoding__ctor_m3336862259
wYj:__ZN6il2cpp5utils10MemoryPoolC2Ej
F_f:_X509Chain_GetAuthorityKeyIdentifier_m2607407678
sYj:__ZN6il2cpp5utils10MemoryPoolC2Ev
uXa:__ZN14RenderSettings5ResetEv
Kbc:__ZN6Sprite9BindAtlasERK4PPtrI11SpriteAtlasE
$Bc:__ZN5Unity9rapidjson12GenericValueINS0_4UTF8IcEE13JSONAllocatorE10FindMemberIS4_EENS0_21GenericMemberIteratorILb0ES3_S4_EERKNS1_IS3_T_EE
uHj:__ZNSt3__212basic_stringIDsNS_11char_traitsIDsEENS_9allocatorIDsEEE6appendEPKDsj
ACc:__ZN5Unity9rapidjson13GenericReaderINS0_4UTF8IcEES3_13JSONAllocatorE11ParseNumberILj1ENS0_25GenericInsituStringStreamIS3_EENS0_15GenericDocumentIS3_S4_S4_EEEEvRT0_RT1_
Rcb:__ZN14SpriteRenderer14OnChangeSpriteEv
jHe:_Dictionary_2_Do_ICollectionCopyTo_TisKeyValuePair_2_t3716250094_m1740410536_gshared
SOj:__ZN6il2cpp2os10ThreadImplD2Ev
PQe:_RSAManaged_Dispose_m3018788098
_Nc:__ZN12b2MouseJoint23InitVelocityConstraintsERK12b2SolverData
rDc:__ZN8Gradient8TransferI9JSONWriteEEvRT_
sHa:__ZNK12TLSAllocatorI14StackAllocatorE22GetAllocatedMemorySizeEv
Nx:__ZN7mecanim6memory16ChainedAllocator8AllocateEjj
qje:_Convert_ToUInt32_m3394039268
iFa:__ZN17RemapPPtrTransfer12PushMetaFlagE17TransferMetaFlags
eub:__ZN12HandlerChain4NameEv
GAb:__Z29Transfer_Blittable_ArrayFieldI14SafeBinaryReadN4math12int3_storageEEvRT_R9ArrayInfoRK23StaticTransferFieldInfo
Ofb:__ZNSt3__26vectorI9InputAxisNS_9allocatorIS1_EEE10deallocateEv
NXe:_Int16_Equals_m3925135434_AdjustorThunk
Qld:__Z44Register_UnityEngine_CanvasRenderer_get_cullv
evg:__ZL60IHashCodeProvider_t1980576455_CustomAttributesCacheGeneratorP21CustomAttributesCache
Gdc:__ZN13ProduceHelperI13MonoBehaviourLb0EE7ProduceE18MemLabelIdentifier18ObjectCreationMode
vcf:_Enumerator_VerifyState_m1677639504_AdjustorThunk
eMf:_CipherSuiteCollection_get_Item_m280627160
Ywb:__Z44InitializeTransferFunctionScriptingTraitsForI17RemapPPtrTransferEvR31TransferFunctionScriptingTraits
o3f:_SerializationInfoEnumerator_MoveNext_m1876990879
Sjg:_TimeSpan_Duration_m4205681645
k6b:__ZN14UnityWebStream24UpdateAllUnityWebStreamsEv
Vdc:__ZNSt3__26vectorI16MessageForwarder13stl_allocatorIS1_L18MemLabelIdentifier7ELi8EEE6resizeEj
Gtg:__ZL60ObsoleteAttribute_t3878847927_CustomAttributesCacheGeneratorP21CustomAttributesCache
fwi:_Uri_ParseAsWindowsAbsoluteFilePath_m1108586962
iCe:_Array_InternalArray__ICollection_CopyTo_TisRaycastHit2D_t4063908774_m3837098618_gshared
RPb:__Z11StringToKeyRKN4core12basic_stringIcNS_20StringStorageDefaultIcEEEE
Rjb:__ZN18LoadSceneOperation21MustCompleteNextFrameEv
mPi:_DataUtility_GetInnerUV_m593541260
rV:__ZNK12AudioManager16GetAudioListenerEv
pLd:_EventTrigger_OnScroll_m626934407
KLg:__ZL48Camera_t189460977_CustomAttributesCacheGeneratorP21CustomAttributesCache
W3b:__ZNSt3__26vectorI11CameraStackNS_9allocatorIS1_EEE8__appendEj
eSc:__ZNK11Rigidbody2D20GetAttachedCollidersER13dynamic_arrayIP10Collider2DLj4EE
e_d:_InputField_OnDisable_m1865339380
tng:_UInt32_System_IConvertible_ToType_m747769316
Qz:__ZN7mecanim9animation12GetHumanPoseERKNS0_18ClipMuscleConstantEPKNS0_10ValueDeltaERNS_5human9HumanPoseE
knd:__ZN11UnityEngine9Analytics15UserCustomEvent12CustomParams6InsertEPKcRNS1_11CustomValueE
qIe:_Array_InternalArray__get_Item_TisInt16_t4041245914_m2533263979_gshared
FB:__ZN22AnimationMixerPlayable17ProcessRootMotionEP35AnimationPlayableEvaluationConstantP32AnimationPlayableEvaluationInputP33AnimationPlayableEvaluationOutput
$ba:__Z13GetFileSystemv
sda:__ZNK5Unity4Type21FindAllDerivedClassesER13dynamic_arrayIPKS0_Lj4EENS0_17TypeFilterOptionsE
Zda:__ZN13RuntimeStaticI15GUIEventManagerLb0EE16StaticInitializeEPv
Odb:__ZN14SafeBinaryRead8TransferIfEEvRT_PKc17TransferMetaFlags
DUe:_DaylightTime_get_Delta_m2316831491
lUc:__ZNSt3__27__sort5IR24RayHitsByDepthComparitorP12RaycastHit2DEEjT0_S5_S5_S5_S5_T_
Nue:_Array_InternalArray__ICollection_Contains_TisUILineInfo_t3621277874_m1175659630_gshared
hjg:_WaitHandle_WaitOne_m370363697
L0f:_FactoryCache_Lookup_m1681894361
Nle:_DateTime_Subtract_m698282245_AdjustorThunk
Vcb:__ZThn32_N14SpriteRenderer15AddAsRenderNodeER15RenderNodeQueueRK20DeprecatedSourceData
wze:_Array_InternalArray__IndexOf_TisResourceCacheItem_t333236149_m761772858_gshared
aJb:__Z29Transfer_Blittable_ArrayFieldI18StreamedBinaryReadILb1EE5RectTIfEEvRT_R9ArrayInfoRK23StaticTransferFieldInfo
_Ub:__ZN19ShaderPropertySheet9SetMatrixEN9ShaderLab16FastPropertyNameERK10Matrix4x4fNS_8SetFlagsE
azd:_RIPEMD160Managed_Initialize_m3365407578
c3a:__Z29GetTextureSizeAllowedMultiple13TextureFormat
zWf:_IPAddress_HostToNetworkOrder_m1092199707
Cwe:_SetPropertyUtility_SetStruct_TisSpriteState_t1353336012_m2898060836_gshared
iDd:_SecurityAttribute__ctor_m3425755778
Yic:__ZN21IntermediateRenderers3AddEP20IntermediateRenderer
Hsj:_il2cpp_array_element_size
$f:_glCheckFramebufferStatus
Uxe:_Array_compare_TisInt32_t2071877448_m840310202_gshared
PVh:_Enumerator_System_Collections_IEnumerator_get_Current_m229223308_AdjustorThunk
rKj:__ZN15dense_hashtableINSt3__24pairIK10KeyWrapperINS1_IPKcS4_EEEiEES6_24NamespaceAndNamePairHashN14dense_hash_mapIS6_iS9_NS6_14EqualsComparerI26NamespaceAndNamePairEqualsEENS0_9allocatorIS8_EEE9SelectKeyESD_SF_E12resize_deltaEjj
kii:_InternalEnumerator_1_System_Collections_IEnumerator_get_Current_m442726479_AdjustorThunk
T1:__ZN19CloudServiceHandler20StartEventDispatcherERKN11UnityEngine15CloudWebService18CloudServiceConfigERNS1_23WebRequestRestHeaderMapE
sgi:_InternalEnumerator_1_System_Collections_IEnumerator_get_Current_m790514740_AdjustorThunk
cKe:__Z37il2cpp_codegen_get_executing_assemblyPK10MethodInfo
THi:_PKCS12_get_Keys_m1312614820
$K:__ZN15SerializeTraitsINSt3__24pairI8StateKey10StateRangeEEE8TransferI24GenerateTypeTreeTransferEEvRS4_RT_
FL:__ZN15SerializeTraitsI9OffsetPtrIN7mecanim12statemachine21SelectorStateConstantEEE8TransferI18StreamedBinaryReadILb0EEEEvRS4_RT_
Wye:_Array_InternalArray__IndexOf_TisByte_t3683104436_m3605266236_gshared
rYc:__ZN15dense_hashtableINSt3__24pairIKNS1_IPK10Collider2DS4_EE11Collision2DEES5_NS2_23ColliderPairHashFunctorEN14dense_hash_mapIS5_S7_S9_NS0_8equal_toIS5_EE13stl_allocatorIS8_L18MemLabelIdentifier67ELi16EEE9SelectKeyESC_SF_E13set_empty_keyERKS8_
$Mh:_RaycastAllCallback_Invoke_m981876639
deg:_UnicodeEncoding__ctor_m72484327
KPi:_Texture_INTERNAL_get_texelSize_m3335010007
VIj:__ZN14dense_hash_mapI10KeyWrapperIP14Il2CppIUnknownEjN6il2cpp5utils11PointerHashIS1_EENS3_14EqualsComparerINSt3__28equal_toIS2_EEEENS9_9allocatorINS9_4pairIKS3_jEEEEE15set_deleted_keyERSF_
Hda:__ZN22BuiltinResourceManager16StaticInitializeEPv
dbc:__ZN19SpriteMeshGenerator12path_segment12max_distanceENSt3__26vectorINS_6vertexENS1_9allocatorIS3_EEEEii
xx:__ZN7mecanim4hand8HandPose8TransferI19StreamedBinaryWriteILb0EEEEvRT_
YYe:_NumberFormatter_ScaleOrder_m1915154678
ZSc:__ZN24b2ChainAndCapsuleContact8EvaluateEP10b2ManifoldRK11b2TransformS4_
hBj:__ZN13Il2CppHashMapIPK14Il2CppAssemblyPK22Il2CppMonoAssemblyNameN6il2cpp5utils11PointerHashIS1_EENSt3__28equal_toIS2_EENSA_9allocatorINSA_4pairIK10KeyWrapperIS2_ES5_EEEEEC2EjRKS9_RKSC_
$Nf:_ClientSessionInfo_SetContext_m2649357891
LZe:_Int32_System_IConvertible_ToInt64_m3790029067_AdjustorThunk
UKc:__ZN13BoxCollider2D13PrepareShapesER13dynamic_arrayIP7b2ShapeLj4EERK10Matrix4x4f
au:__ZN14AnimationEvent8TransferI14SafeBinaryReadEEvRT_
TKd:_RaycasterManager_GetRaycasters_m1154876874
mTf:_SslStreamBase_InternalReadCallback_m2524917586
eba:__ZN8Remapper6RemoveEi
uhf:_List_1_CheckCollection_m2608305187_gshared
wpc:__ZN9Scripting27CreateArgumentNullExceptionEPKc
o1c:__ZL36CleanupTextRenderingScriptingClassesv
l4b:__ZN15ReflectionProbe17UseRendererResultEP13ProbeRenderer
p2d:_Array_BinarySearch_m3270245097
$tc:__Z34Mesh_CUSTOM_SetArrayForChannelImplP12Il2CppObject30InternalScriptingShaderChannel34InternalScriptingVertexChannelTypeiP11Il2CppArrayi
z1e:_MonoIO_DeleteFile_m3273821223
_Le:_BigInteger_GenerateRandom_m2507308768
oke:_DateTime_System_IConvertible_ToDouble_m1431748426_AdjustorThunk
zue:_Array_InternalArray__ICollection_Contains_TisUInt16_t986882611_m510319131_gshared
nDe:_Array_InternalArray__Insert_TisRaycastHit2D_t4063908774_m3174907903_gshared
hoe:_Decimal_ToString_m541380585
Zsj:_il2cpp_class_is_valuetype
MM:__ZN11UnityEngine9Animation28GenericAnimationBindingCache25RegisterIAnimationBindingEPKN5Unity4TypeEiP17IAnimationBinding
Uld:__Z70RectTransformUtility_CUSTOM_INTERNAL_CALL_RectangleContainsScreenPointP12Il2CppObjectRK13Vector2fIcallS0_
Xqe:_Enum_ToObject_m2601523252
M5j:dynCall_viiffiii
Umd:__ZN14UnityAnalytics25UnregisterGlobalCallbacksEv
N2b:__Z40ProcessCameraIndexListIsNodeVisibleInOutRK22SceneCullingParametersPK9SceneNodePK4AABBR9IndexList
jEi:_Mathf_Sqrt_m3274009347
jVa:__ZN16GraphicsSettings8TransferI17RemapPPtrTransferEEvRT_
E4e:_StreamReader__ctor_m2654332332
wjd:__ZN2UI6Canvas13UpdateBatchesEb
GGi:_Playable__cctor_m3745623656
KE:__ZNK23AnimationPlayableOutput11DerivesFromE17ScriptingClassPtr
SQc:__ZN17PolygonCollider2D15TransformPointsERK13dynamic_arrayI8Vector2fLj4EERK10Matrix4x4fRKS1_fP6b2Vec2
qzi:_Color_op_Implicit_m3487763211
Aff:_List_1_CheckCollection_m3968030679_gshared
Zeg:_StringBuilder_ToString_m617673931
yqd:__ZN11UnityEngine7Connect13ConfigHandler12GetListenersERKN4core12basic_stringIcNS2_20StringStorageDefaultIcEEEE
yla:__ZN9GfxDevice18AllocRenderSurfaceEb
QMh:_GetRayIntersectionAllNonAllocCallback_BeginInvoke_m273046189
Ebc:__ZN10TagManager32GetSortingLayerUniqueIDFromValueEi
gui:_AnchorInfo_get_IsComplete_m1247624133
$Td:_Dropdown_Show_m324374589
c8:__ZL27CleanupCoreScriptingClassesv
cnh:__Z68RuntimeInvoker_RuntimeObject_RuntimeObject_DSAParameters_t1872138834PFvvEPK10MethodInfoPvPS4_
YBh:__Z101RuntimeInvoker_Void_t1841601450_RuntimeObject_Int32_t2071877448_Single_t2076509932_Single_t2076509932PFvvEPK10MethodInfoPvPS4_
mNd:_RaycastResult_get_isValid_m2482925612
Vtc:__Z26AnimationCurve_CUSTOM_InitP12Il2CppObjectP11Il2CppArray
tdk:_glUniform1uiv__wrapper
hLc:__ZNK14b2PolygonShape5CloneEP16b2BlockAllocator
UAj:__ZN6il2cpp2vm10Reflection7IsEventEP12Il2CppObject
l9:__ZN17PersistentManager26GetStreamNameSpaceInternalEi
PLi:_Rect_set_y_m3273335367
zP:__ZN4FMOD6System11createSoundEPKcjP22FMOD_CREATESOUNDEXINFOPPNS_5SoundE
eo:FUNCTION_TABLE_iiifiiii
lwj:__ZN6il2cpp2vm4Type14IsSystemDBNullEPK10Il2CppType
j7:__ZN9ShaderLab19CommonPropertyNames13StaticCleanupEPv
waa:__Z31scripting_method_get_returntype18ScriptingMethodPtr
ePh:_ScrollRect_UpdateBounds_m3266596336
r4a:__ZN15SerializeTraitsI12LightmapDataE8TransferI24GenerateTypeTreeTransferEEvRS0_RT_
QQi:_Transform_INTERNAL_set_localScale_m1610244689
ERd:_ColorBlock_GetHashCode_m649325222
S9j:_glStencilOpSeparate__wrapper
Qlc:__ZN4Mesh5SetUvEiPKfjj
P6a:__ZN7Texture13SetAnisoLimitENS_20AnisotropicFilteringE
Pkb:__ZN28LightProbeProxyVolumeManager25UpdateSHCoeffsTextureDataER21LightProbeProxyVolume
YLa:__Z18CreateDecompressor15CompressionType18MemLabelIdentifier
jX:__ZN11AudioModule16SetListenerPauseEb
Uh:_emscripten_glCompressedTexSubImage2D
_xa:__ZN13GfxDeviceGLES22MemoryBarrierImmediateEyN2gl17MemoryBarrierTypeE
kia:__ZZN18SpriteAtlasManagerC1EvEN46EarlyUpdateSpriteAtlasManagerUpdateRegistrator7ForwardEv
eIj:__ZN6il2cpp6icalls8mscorlib6System4Type18internal_from_nameEP12Il2CppStringbb
Gva:__ZN6prcoreL26RemapGenericFloatToIntegerI18TexFormatARGBFloat17TexFormatARGB8888EEvPKNS_9InnerInfoE
Soc:__Z46GetShaderModelNumericValueFromRequirementsMask18ShaderRequirements
F9c:_cff_ps_has_glyph_names
Wri:_PatternCompiler_EmitPosition_m3013268572
h0f:_X509SubjectKeyIdentifierExtension__ctor_m1109455121
rac:__Z13tessTesselateP14TESStesselatoriiiiPKf
lWd:_Graphic_CreateColorFromAlpha_m2614574534
NBc:__Z44Register_UnityEngine_GUIStyle_SetDefaultFontv
Jac:__ZN19SpriteMeshGenerator9MakeShapeEP11ColorRGBA32iifhbjfi
TGb:__Z18Transfer_BlittableI18StreamedBinaryReadILb1EELb1EiEvRK29SerializationCommandArgumentsR31RuntimeSerializationCommandInfo
CG:__ZN9BlobWrite8TransferI22OffsetPtrArrayTransferIKN4math7_float3EEEEvRT_PKc17TransferMetaFlags
eCd:_TripleDES_IsWeakKey_m483013953
wZf:_X509Certificate2_get_PrivateKey_m2662162956
Jzj:__ZN15dense_hashtableINSt3__24pairIK10KeyWrapperINS1_IPK12PropertyInfoP11Il2CppClassEEEjEES9_17ReflectionMapHashIS8_EN14dense_hash_mapIS9_jSD_NS9_14EqualsComparerINS0_8equal_toIS8_EEEENS0_9allocatorISB_EEE9SelectKeyESI_SK_E12maybe_shrinkEv
sth:__Z75RuntimeInvoker_RuntimeObject_RuntimeObject_Single_t2076509932_RuntimeObjectPFvvEPK10MethodInfoPvPS4_
sHb:__Z18Transfer_BlittableI18StreamedBinaryReadILb1EELb1EsEvRK29SerializationCommandArgumentsR31RuntimeSerializationCommandInfo
wBh:__Z54RuntimeInvoker_Void_t1841601450_ColorBlock_t2652774230PFvvEPK10MethodInfoPvPS4_
FFd:_Single_System_IConvertible_ToSByte_m3757385387
FQi:_Vector3_get_forward_m1316319684
x2e:_StreamAsyncResult_SetComplete_m2141125667
T6a:__ZL21SetAnisoLimitEnumImplN7Texture20AnisotropicFilteringEb
Ood:__ZN22BaseUnityConnectClient17OnEnterStateReadyEv
fgd:__ZN7Tilemap15QueueCameraViewERK13TilemapBounds
zTa:__ZN14GrowableBufferD2Ev
YUi:_GUIStyle_get_stretchWidth_m813991504
gtc:__Z29Input_CUSTOM_GetMouseButtonUpi
xrj:__ZN6il2cpp6icalls8mscorlib6System8MonoType16InternalGetEventEP20Il2CppReflectionTypeP12Il2CppStringi
xhg:_Interlocked_CompareExchange_m3339239614
x3c:_UNITY_tt_face_load_maxp
utc:__Z46Input_CUSTOM_INTERNAL_set_compositionCursorPosRK13Vector2fIcall
Ty:__ZN7mecanim5human12FullBodyMaskEv
xQi:_Transform_set_position_m2942701431
wdb:__ZN19ShaderPropertySheet11ComputeHashEv
Qlj:__ZN30dense_hashtable_const_iteratorI10KeyWrapperIPK19Il2CppGenericMethodES4_N6il2cpp8metadata23Il2CppGenericMethodHashEN14dense_hash_setIS4_S7_NS4_14EqualsComparerINS6_26Il2CppGenericMethodCompareEEENSt3__29allocatorIS4_EEE8IdentityESB_SE_EppEv
uTc:__ZN12b2EPCollider24ComputePolygonSeparationEv
s0:__ZN11UnityEngine15CloudWebService20WebRequestRestClient6IsDoneEv
qVg:__ZL93AudioSource_t1135106623_CustomAttributesCacheGenerator_AudioSource_Play_m1385529671____delay0P21CustomAttributesCache
Qi:_llvm_fabs_f32
IQd:_CanvasScaler_HandleScaleWithScreenSize_m80056230
X$:__ZN11UnityEngine15CloudWebService16SessionContainer16GetJsonDataBlockEjRKN4core12basic_stringIcNS2_20StringStorageDefaultIcEEEERS6_PjSA_
fbg:_SByte_System_IConvertible_ToUInt64_m2174352876_AdjustorThunk
ou:__ZN7mecanim9animation18ClipMuscleConstant8TransferI14SafeBinaryReadEEvRT_
igg:_UTF7Encoding_InternalGetBytes_m2772055844
jph:__Z76RuntimeInvoker_Void_t1841601450_Int64_t909078037_ResourceInfoU26_t3126209420PFvvEPK10MethodInfoPvPS4_
AKe:_SimpleCollator__cctor_m2693747668
aoe:_Decimal_CompareTo_m2454501434_AdjustorThunk
B9:__ZN14SafeBinaryReadD2Ev
emg:_UInt16_System_IConvertible_ToChar_m4055364664
cdc:__Z13RegisterClassI7TextureEvv
IIb:__ZN8Gradient8TransferI18StreamedBinaryReadILb1EEEEvRT_
Lng:_UInt32_ToString_m554020223_AdjustorThunk
OCi:_GameObject_SendMessage_m3423113156
hIj:__ZN6il2cpp6icalls8mscorlib6System4Type15MakeGenericTypeEP20Il2CppReflectionTypeP11Il2CppArray
pj:_SDL_PauseAudio
ctj:_il2cpp_class_from_type
X2d:_Array_Sort_m2323017822
i7:__ZN9ShaderLab19CommonPropertyNames16StaticInitializeEPv
i7e:_MissingMemberException__ctor_m3710131950
EI:__ZN7mecanim9animation18CreateAvatarOutputEPKNS0_14AvatarConstantEbbRNS_6memory9AllocatorE
iuh:__Z91RuntimeInvoker_Void_t1841601450_RuntimeObject_Int32_t2071877448_RuntimeObject_RuntimeObjectPFvvEPK10MethodInfoPvPS4_
ecg:_CspParameters__ctor_m2546931874
jV:__ZN11AudioSource23VirtualRedirectTransferER24GenerateTypeTreeTransfer
vs:__ZN15AnimationBinder10BindCurvesERK14dense_hash_mapI7CurveIDj10hash_curveNSt3__28equal_toIS1_EE13stl_allocatorINS3_4pairIKS1_jEEL18MemLabelIdentifier1ELi16EEER9TransformR13dynamic_arrayI20BoundCurveDeprecatedLj4EERNS3_6vectorIPSF_S6_ISM_LSA_26ELi16EEEERi
Lnd:__ZN14UnityAnalytics15SendCustomEventERN11UnityEngine9Analytics15UserCustomEventE
n9a:__ZN14Texture2DArray23VirtualRedirectTransferER14SafeBinaryRead
PZb:__ZNK6Camera21CalculateCanDoShadowsEv
pWd:_Graphic__cctor_m1643894470
VQj:__ZN6il2cpp2os6Thread12SetStackSizeEj
SZf:_X509ChainElementEnumerator_get_Current_m2232618221
MAi:_DebugLogHandler_LogFormat_m2866699703
eQd:_U3COnFinishSubmitU3Ec__Iterator0_Reset_m2080388334
hlc:__ZNK8Renderer16IsVisibleInSceneEv
_Oh:_ScrollRect_set_onValueChanged_m3957749575
m5:__Z13VFormatBufferPciPKcz
PJb:__Z18Transfer_BlittableI18StreamedBinaryReadILb0EELb1EhEvRK29SerializationCommandArgumentsR31RuntimeSerializationCommandInfo
N9i:_U3CCreateWhereIteratorU3Ec__Iterator1D_1_Dispose_m1879652802_gshared
Sbc:__ZL24GenerateTilingJobCombineP22GenerateTilingAreaInfo
iYd:_Image_GenerateSimpleSprite_m4275440988
Vmg:_UInt16_ToString_m3280699191
Kva:__ZN6prcoreL27StretchGenericFloatBilinearI15TexFormatRFloatEEvPKNS_9InnerInfoE
IB:__Z24ProcessAnimationMixBeginP35AnimationPlayableEvaluationConstantP32AnimationPlayableEvaluationInputP33AnimationPlayableEvaluationOutput
Hye:_Array_IndexOf_TisCustomAttributeNamedArgument_t94157543_m745056346_gshared
Nsa:__Z14PadImageBorderR14ImageReferenceii
myj:__ZN15dense_hashtableINSt3__24pairIK10KeyWrapperINS1_IPK10MethodInfoP11Il2CppClassEEEjEES9_17ReflectionMapHashIS8_EN14dense_hash_mapIS9_jSD_NS9_14EqualsComparerINS0_8equal_toIS8_EEEENS0_9allocatorISB_EEE9SelectKeyESI_SK_E4findERSA_
Uoj:__ZN6il2cpp2vm13MetadataCache28GetFieldDefaultValueForFieldEPK9FieldInfo
g7h:_ArrayReadOnlyList_1_ReadOnlyError_m2289309720_gshared
kC:__ZN27AnimationLayerMixerPlayableD2Ev
Trj:__ZN6il2cpp2vm8basepathEPKc
XJf:_PKCS1_Verify_v15_m478274703
ER:__ZN12AudioManager39HandlePendingAudioConfigurationCallbackEv
Dmh:__Z119RuntimeInvoker_Int32_t2071877448_RuntimeObject_RuntimeObject_Int32_t2071877448_Int32_t2071877448_BooleanU26_t3168250738PFvvEPK10MethodInfoPvPS4_
mk:_emscripten_glIsFramebuffer
dQa:__ZN12_GLOBAL__N_16qAtan2Eff
Aie:_Convert_ToInt64_m954367741
qk:_JS_Sound_SetLoopPoints
W7d:_ArrayList__ctor_m1467563650
vW:__ZN12AudioManager17ShouldSourcePauseEb
OYj:__ZN6il2cpp2vm26MetadataAllocGenericMethodEv
oBa:__ZN19ConstantBuffersGLES12RecordRenderEv
hFc:__ZN9JSONWrite8TransferI10RectOffsetEEvRT_PKc17TransferMetaFlags
ssa:__ZN4crnd12symbol_codec11decode_bitsEj
HTc:__ZN15b2CircleContact8EvaluateEP10b2ManifoldRK11b2TransformS4_
TFe:_Array_Sort_TisRaycastResult_t21186376_TisRaycastResult_t21186376_m38820193_gshared
eIi:_PKCS12_EncryptedContentInfo_m938119256
J1e:_StreamReader__ctor_m3454466728
IR:__ZN4FMOD6System12createReverbEPPNS_6ReverbE
eNi:_RectTransform_get_anchorMin_m3466802567
bC:__ZN7mecanim19ValueArrayBlendNodeILb1EEEvRKNS_10ValueArrayERKNS_14ValueArrayMaskERS1_RS4_RNS_16ValueArrayWeightEf
bmb:__Z16MarkDependenciesR27GarbageCollectorThreadStatej
K$f:_X509ChainElementEnumerator_Reset_m3832280427
o9e:_MulticastDelegate_RemoveImpl_m2024746777
SQd:_CanvasUpdateRegistry_ParentCount_m2367607495
i9e:_MulticastDelegate_Equals_m3064081489
JTe:_Activator_CreateInstance_m1465989661
gja:__ZNK9Transform11GetPositionEv
Hvi:_PositionAssertion_GetWidth_m2294218483
lWa:__ZN23SharedMeshRenderingData18UnloadVertexStreamEi
Xic:__ZN31CanvasBatchIntermediateRenderer11AddSubBatchERK16DrawBuffersRangePK19ShaderPropertySheet
Alh:__Z99RuntimeInvoker_Void_t1841601450_RuntimeObject_Int32_t2071877448_Int32_t2071877448_Int32_t2071877448PFvvEPK10MethodInfoPvPS4_
Dhc:__ZN19RenderEventsContextC2Ei
j_:__Z6simd4fRKf
cCe:_Array_InternalArray__ICollection_CopyTo_TisColor32_t874517518_m379086718_gshared
yRh:_Slider_ClampValue_m2851810895
Uk:_emscripten_glEnable
KMj:__ZN6il2cpp2gc16GarbageCollector29RegisterFinalizerForNewObjectEP12Il2CppObject
GOa:__ZN10TagManager23VirtualRedirectTransferER14SafeBinaryRead
T2c:_UNITY_FT_Init_Class_ft_grays_raster
Xfa:__ZN14PlayableOutput26ClearInvalidSourcePlayableEv
C0b:__Z15InitLightMeshesv
fFg:__ZL97WaitHandle_t677569169_CustomAttributesCacheGenerator_WaitHandle_t677569169____Handle_PropertyInfoP21CustomAttributesCache
Iaf:_KeyValuePair_2_ToString_m1391611625_AdjustorThunk
Gn:FUNCTION_TABLE_iifiii
Ehe:_Double_Parse_m1617409931
avh:__Z70RuntimeInvoker_Boolean_t3825574718_Int32_t2071877448_Int16_t4041245914PFvvEPK10MethodInfoPvPS4_
K6a:__ZN15QualitySettings8TransferI19StreamedBinaryWriteILb0EEEEvRT_
J7c:_cf2_arrstack_init
Qyg:__ZL65ClassInterfaceAttribute_t910653559_CustomAttributesCacheGeneratorP21CustomAttributesCache
Awj:__ZN15dense_hashtableINSt3__24pairIK10KeyWrapperINS1_IPK14Il2CppAssemblyP11Il2CppClassEEEjEES9_17ReflectionMapHashIS8_EN14dense_hash_mapIS9_jSD_NS9_14EqualsComparerINS0_8equal_toIS8_EEEENS0_9allocatorISB_EEE9SelectKeyESI_SK_E15insert_noresizeERKSB_
d4:__Z15CleanLogHandler7LogTypePKcz
sqb:__ZN9ShaderLab19SerializedSubShader8TransferI19StreamedBinaryWriteILb0EEEEvRT_
Pfg:_UTF32Encoding_GetBytes_m2290150495
_Mb:__ZN6Camera17RemoveImageFilterERK11ImageFilter
mxa:__ZNSt3__218__insertion_sort_3IR25ValueParameterArraySorterPN20GpuProgramParameters14ValueParameterEEEvT0_S6_T_
ROc:__ZN10ClipperLib7Clipper27ProcessEdgesAtTopOfScanbeamEx
nKh:_LayoutUtility_GetLayoutProperty_m4052007472
gAa:__ZNSt3__214__split_bufferI20ComputeShaderVariantRNS_9allocatorIS1_EEED2Ev
jKb:__Z18Transfer_BlittableI18StreamedBinaryReadILb0EELb1E9BoundsIntEvRK29SerializationCommandArgumentsR31RuntimeSerializationCommandInfo
xOf:_Context_set_WriteSequenceNumber_m3356252710
UTj:__ZN6il2cpp2vm13ManagedObject7GetIidsEPjPP10Il2CppGuid
bkd:__ZN2UI26InitializeDeviceForOverlayEi
NWe:_Guid_Equals_m2389236871
c6:__Z27LogRepeatingStringWithFlagsRKN4core12basic_stringIcNS_20StringStorageDefaultIcEEEE15LogMessageFlagsi
xdf:_Enumerator_MoveNext_m3483405135_gshared
tz:__ZN17AnimationPlayable28ComputeNeedsBindingRebuildedEv
zy:__ZN17AnimationPlayable23RequestAllocateBindingsEv
KAe:_Array_InternalArray__ICollection_Add_TisMonoResource_t3127387157_m2070096275_gshared
Cef:_List_1_CheckIndex_m3609163576_gshared
sZf:_X509ExtensionCollection__ctor_m1324282194
Ird:__ZN18UnityConnectClient33OnPlayerSessionStateChangedStaticEPS_jyy
Kug:__ZL74CaseInsensitiveHashCodeProvider_t2307530285_CustomAttributesCacheGeneratorP21CustomAttributesCache
a1:__ZNK11UnityEngine15CloudWebService23WebRequestUploadHandler11GetProgressEv
qpa:__ZN7ApiGLES4LoadE16GfxDeviceLevelGL
F4a:__ZN18StreamedBinaryReadILb0EE21TransferSTLStyleArrayI13dynamic_arrayI31EnlightenSystemAtlasInformationLj8EEEEvRT_17TransferMetaFlags
lsa:__ZN4crnd12crn_unpacker22decode_color_endpointsEv
RLj:__ZN15dense_hashtableI10KeyWrapperIP18Il2CppGenericClassES3_N6il2cpp8metadata22Il2CppGenericClassHashEN14dense_hash_setIS3_S6_NS3_14EqualsComparerINS5_25Il2CppGenericClassCompareEEENSt3__29allocatorIS3_EEE8IdentityESA_SD_E15insert_noresizeERKS3_
TAf:_ReadOnlyCollection_1_System_Collections_IList_Clear_m3006875897_gshared
Jgc:__ZZL31RegisterOtherRendererPropertiesR22GenericPropertyBindingEN30Wrapper_RendererReceiveShadows13GetFloatValueEPv
Pdf:_Enumerator_System_Collections_IEnumerator_get_Current_m3866069145_gshared
kQb:__ZN8Material11SetPassFastEPN9ShaderLab4PassER17ShaderPassContextP6Shaderib
Grd:__ZN11UnityEngine7Connect20BasePersistentValues10SaveValuesER9JSONWrite
xeb:__ZN14SafeBinaryRead21TransferSTLStyleArrayINSt3__26vectorI17SubstanceEnumItemNS1_9allocatorIS3_EEEEEEvRT_17TransferMetaFlags
g3i:_AudioListener_AddExtension_m2954727157
TLd:_ExecuteEvents_get_pointerDownHandler_m1172742772
kUc:__ZNSt3__27__sort4IR24RayHitsByDepthComparitorP12RaycastHit2DEEjT0_S5_S5_S5_T_
Gmc:__Z14ScaleCurveTimeR17AnimationCurveTplIfEf
dea:__ZN22VirtualJoystickManagerC2Ev
LWb:__Z12SetupLODFadeR9GfxDeviceR17ShaderPassContextf
T0a:__ZNK14PlayableOutput7GetTypeEv
TSc:__ZN26b2PolygonAndCapsuleContact6CreateEP9b2FixtureiS1_iP16b2BlockAllocator
Jmh:__Z203RuntimeInvoker_Boolean_t3825574718_RuntimeObject_Int32U26_t455636984_Int32_t2071877448_Int32_t2071877448_RuntimeObject_SByte_t454417549_Int32_t2071877448_ContractionU26_t2019974048_ContextU26_t3131521781PFvvEPK10MethodInfoPvPS4_
kIi:_X501_ToString_m3328169518
p0b:__ZL24CollectForwardObjectsJobP27CollectForwardObjectsHeader
ZTh:_Enumerator_System_Collections_IDictionaryEnumerator_get_Entry_m345330700_gshared
O3b:__ZNK25CameraStackRenderingState24ResolveTempToEyeTexturesEv
m2b:__Z13IsNodeVisibleRK9SceneNodeRK4AABBRK22SceneCullingParameters
$ed:__ZN13dynamic_arrayIS_I8Vector2fLj4EELj4EE6insertEPS1_PKS1_S5_
Wld:__Z57RectTransformUtility_CUSTOM_INTERNAL_CALL_PixelAdjustRectP12Il2CppObjectS0_R5RectTIfE
k3b:__Z24ScheduleCullingAllGroupsR8JobFenceRK22SceneCullingParametersiRK13CullingOutputRK13dynamic_arrayIP12CullingGroupLj4EERKS_
O7f:_DelayedFixupRecord_FixupImpl_m4249966635
pfk:_emscripten_glStencilMask__wrapper
Glj:__ZN15dense_hashtableI10KeyWrapperIPK19Il2CppGenericMethodES4_N6il2cpp8metadata23Il2CppGenericMethodHashEN14dense_hash_setIS4_S7_NS4_14EqualsComparerINS6_26Il2CppGenericMethodCompareEEENSt3__29allocatorIS4_EEE8IdentityESB_SE_EC2ERKSH_j
kMe:_BigInteger_ToString_m3837784224
_ne:_Decimal_decimalCompare_m26009298
tZc:__ZN16NovodexAllocator8allocateEjPKcS1_i
Q$b:__Z17PrepareShadowMapsRK11CullResultsRK11ActiveLightRK10MinMaxAABB
khg:_NativeEventCalls_CreateEvent_internal_m1605829321
kRg:__ZL73RuntimePlatform_t1869584967_CustomAttributesCacheGenerator_MetroPlayerX64P21CustomAttributesCache
Sci:_InternalEnumerator_1_System_Collections_IEnumerator_get_Current_m3239681450_AdjustorThunk
m0b:__ZN9ShaderLab10GrabPassesD2Ev
y9a:__ZN14Texture2DArray13UploadTextureEv
g5c:_tt_cmap14_done
Ujb:__ZN18AwakeFromLoadQueue25RegisterObjectInstanceIDsEv
n5d:_Buffer_BlockCopy_m1586717258
SBg:__ZL93X509Certificate_t283079845_CustomAttributesCacheGenerator_X509Certificate_GetName_m2354987368P21CustomAttributesCache
pC:__ZNK27AnimationLayerMixerPlayable11DerivesFromE17ScriptingClassPtr
x$c:__ZN20TextRenderingPrivate19NativeTextGenerator15InsertCharacterEiPj
Dse:_CompareInfo_GetSortKey_m3691382873
yMc:__ZN11b2RopeJoint24SolveVelocityConstraintsERK12b2SolverData
Wme:_DBNull_ToString_m3228904745
EXf:_WebHeaderCollection_AddWithoutValidate_m1479880592
efj:_Physics2D_Raycast_m608778191
mKf:_RC4_get_IV_m506011366
sJi:_X509Crl__ctor_m2469408229
kUh:_Enumerator_get_CurrentValue_m3562053380_AdjustorThunk
n0f:_X509SubjectKeyIdentifierExtension_CopyFrom_m136762226
Xbf:_Enumerator_System_Collections_IEnumerator_Reset_m610822832_AdjustorThunk
r1c:__ZN20TextRenderingPrivate15DynamicFontData21GetFontMetricsForFaceERK13dynamic_arrayIN4core17string_with_labelILi35EEELj4EEiRKS1_I4PPtrIN13TextRendering4FontEELj4EEPfSF_
r0c:_UNITY_FT_Open_Face
gbk:_glGenRenderbuffers__wrapper
fNe:_BigInteger_op_Division_m1581119694
a9f:_CallbackHandler_Invoke_m1498072969
cwd:_DSACryptoServiceProvider__ctor_m701823690
e7g:_CustomAttributeData_GetCustomAttributes_m2421330738
S8i:_TextGenerator_GetVerticesInternal_m514005870
FKj:__ZN30dense_hashtable_const_iteratorINSt3__24pairIK10KeyWrapperINS1_IPKcS4_EEEiEES6_24NamespaceAndNamePairHashN14dense_hash_mapIS6_iS9_NS6_14EqualsComparerI26NamespaceAndNamePairEqualsEENS0_9allocatorIS8_EEE9SelectKeyESD_SF_EppEv
Okg:_Type_get_IsEnum_m313908919
vrc:__Z44Register_UnityEngine_Component_get_transformv
ntf:_Collection_1_System_Collections_ICollection_CopyTo_m1335644572_gshared
GH:__ZN12_GLOBAL__N_120ProcessPlayableGraphERN8Animator11AnimatorJobER35AnimationPlayableEvaluationConstantR32AnimationPlayableEvaluationInputR33AnimationPlayableEvaluationOutputPFvS4_R17AnimationPlayableEPFvS4_S6_S8_EPFvS8_S4_S6_S8_fESE_MS9_FvPS3_PS5_PS7_E
ekf:_List_1_CheckMatch_m2830747427_gshared
wSb:__ZN17ArchiveFileSystem12MountArchiveEPKcS1_
mEc:__Z18Transfer_BlittableI9JSONWriteLb1E8Vector4fEvRK29SerializationCommandArgumentsR31RuntimeSerializationCommandInfo
Cn:FUNCTION_TABLE_viififiii
xPa:__Z30GetScriptableCullingParametersR6CameraR27ScriptableCullingParameters
UUh:_Enumerator_System_Collections_IEnumerator_Reset_m70453843_gshared
l5a:__ZThn32_NK8Renderer14GetSubsetIndexEi
bHe:_Dictionary_2_Do_CopyTo_TisKeyValuePair_2_t1174980068_TisRuntimeObject_m3279061992_gshared
ufc:__ZN13ProduceHelperI15ResourceManagerLb0EE7ProduceE18MemLabelIdentifier18ObjectCreationMode
rma:__ZN9GfxDevice15ImmediateVertexEfff
Lcc:__Z13RegisterClassI8MaterialEvv
U3a:__ZNK16LightmapSettings22GetTypeVirtualInternalEv
yUi:_WindowFunction_BeginInvoke_m87819360
Kre:_FieldAccessException__ctor_m3893881490
NIc:__ZN8JSONRead21TransferSTLStyleArrayI13dynamic_arrayItLj2EEEEvRT_17TransferMetaFlags
Oja:__ZN13GfxDeviceGLES15SetStencilStateEPK18DeviceStencilStatei
Mwh:__Z107RuntimeInvoker_Void_t1841601450_Single_t2076509932_Single_t2076509932_Single_t2076509932_Single_t2076509932PFvvEPK10MethodInfoPvPS4_
n1j:_cycle
Jd:_emscripten_glUniform1iv
VSh:_Text_get_preferredHeight_m452532789
xSc:__ZN15b2DistanceProxy3SetEPK7b2Shapei
yGd:_String_System_IConvertible_ToDouble_m3860911722
Avb:__ZN16MemoryFileSystemD2Ev
shi:_InternalEnumerator_1_get_Current_m3732458101_AdjustorThunk
GIf:_ARC4Managed__ctor_m2922048522
I$c:__Z17dynamic_pptr_castIP9Texture2D7TextureET_RK4PPtrIT0_E
GBf:_ReadOnlyCollection_1_System_Collections_IList_set_Item_m1272038804_gshared
k8h:_InternalEnumerator_1_System_Collections_IEnumerator_get_Current_m1931522460_AdjustorThunk
eDd:_SecurityPermission_IsEmpty_m1869313067
__f:_X509CertificateCollection__ctor_m3709509050
erc:__Z37Register_UnityEngine_Camera_get_depthv
sQe:_EncryptedPrivateKeyInfo_get_Salt_m2734354394
VM:__ZN13AnimationClip24SetDidModifyClipCallbackEPFvPS_R4ListI8ListNodeI14AnimationStateEEE
Csf:_Collection_1_System_Collections_ICollection_CopyTo_m3896480607_gshared
zMd:_PointerEventData_set_position_m794507622
eCi:_UnityEvent_GetDelegate_m1261032859
F8b:__Z23ConvertIntegerToTypePtrItEbPvR14SafeBinaryRead
iI:__ZN7mecanim5human29HumanGetGoalOrientationOffsetENS0_4GoalE
_d:_emscripten_glStencilFunc
M9d:_SynchronizedArrayListWrapper_get_Capacity_m2541698837
vgh:_MonoMethod_MakeGenericMethod_impl_m2063853616
UEd:__Z46il2cpp_codegen_get_marshal_directive_exceptionPKc
Drb:__ZN9ShaderLab20SerializedSubProgram14AddMatrixParamEPKcii15ShaderParamTypei
ee:_glGetActiveUniformBlockName
Pf:_emscripten_glUniform1fv
VWe:_Guid_AppendByte_m2890893073
z6d:_Char_System_IConvertible_ToType_m3106771703_AdjustorThunk
q2f:_Interval_Intersects_m3480157390_AdjustorThunk
Qtc:__Z39Quaternion_CUSTOM_INTERNAL_CALL_InverseRK11QuaternionfRS_
omi:_GCHandle_Alloc_m1063472408
CS:__ZN4FMOD7Channel20set3DConeOrientationEP11FMOD_VECTOR
tn:FUNCTION_TABLE_iiifii
Tbg:_CryptoConfig_CreateFromName_m391442950
kcj:_RectTransformUtility_INTERNAL_CALL_PixelAdjustRect_m3338747528
VNj:__ZN6il2cpp2vm12GenericClass11SetupEventsEP11Il2CppClass
bbd:_tt_delta_interpolate
$4c:_tt_cmap12_get_info
wJj:__ZN6il2cpp2vm15ReboxIReferenceEP14Il2CppIUnknownP11Il2CppClass
h5e:_StreamWriter_LowLevelWrite_m4205372900
xej:__ZN6il2cpp6icalls8mscorlib6System7Decimal14decimalCompareEP19il2cpp_decimal_reprS5_
YTj:__ZThn4_N6il2cpp2vm13CachedCCWBaseINS0_13ManagedObjectEE7ReleaseEv
cbe:_CollectionBase_System_Collections_IList_get_Item_m2370387510
$M:__ZN29AnimationStateNetworkProvider24GetNetworkAnimationStateER9AnimationP24AnimationStateForNetworki
LFe:_Array_Sort_TisCustomAttributeNamedArgument_t94157543_m3436077809_gshared
sck:_glCopyTexImage2D__wrapper
N$d:_LayoutElement__ctor_m789941073
TXc:__ZN16PhysicsManager2D11CreateWorldERK8Vector2f
F4:__GLOBAL__sub_I_runtime_graphics_billboard_0_cpp
rQb:__Z18ClearByDrawingQuad13GfxClearFlagsRK10ColorRGBAffjR17ShaderPassContext
$oi:_DynamicPropertyCollection_FindProperty_m1233265924
hva:__ZN6prcoreL17RemapGenericFloatI14TexFormatRHalf15TexFormatRFloatEEvPKNS_9InnerInfoE
AWb:__Z16ShouldUseShadowsb
Qfa:__ZN15DirectorManager21RebuildStageCallbacksEv
EQb:__ZN19RuntimeSceneManager9LoadSceneERKN4core12basic_stringIcNS0_20StringStorageDefaultIcEEEES6_S6_RK9UnityGUIDiNS_11LoadingModeE
Zdd:__ZN21TilemapRefCountedDataI10ColorRGBAfE8TransferI14SafeBinaryReadEEvRT_
rwa:__ZN7ApiGLES10DrawArraysE16GfxPrimitiveTypejjj
aQ:__ZN10SampleClip13LoadBaseSoundEv
SMi:_RectOffset_get_left_m1496351507
rZ:__Z57AudioSource_CUSTOM_INTERNAL_CALL_ClearExtensionPropertiesP12Il2CppObjectRK12PropertyName
rx:__ZN7mecanim9animation4Clip8TransferI19StreamedBinaryWriteILb0EEEEvRT_
YMj:__ZN15dense_hashtableINSt3__24pairIK10KeyWrapperIP12Il2CppObjectEN6il2cpp2gc9CachedCCWEEES5_NS7_5utils11PointerHashIS3_EEN14dense_hash_mapIS5_S9_SD_NS5_14EqualsComparerINS0_8equal_toIS4_EEEENS0_9allocatorISA_EEE9SelectKeyESI_SK_E15insert_noresizeERKSA_
xwf:_Collection_1_Contains_m643401393_gshared
n0a:__ZN22DeviceMVPMatricesStateC2ER9GfxDevice
qGd:_String__ctor_m372528291
cn:FUNCTION_TABLE_iifii
S7a:__ZNSt3__26vectorI13dynamic_arrayI8Vector2fLj4EENS_9allocatorIS3_EEE6assignINS_11__wrap_iterIPS3_EEEENS_9enable_ifIXaasr21__is_forward_iteratorIT_EE5valuesr16is_constructibleIS3_NS_15iterator_traitsISC_E9referenceEEE5valueEvE4typeESC_SC_
$3a:__ZN21EnlightenSceneMapping8TransferI14SafeBinaryReadEEvRT_
gCi:_UnityEvent_FindMethod_Impl_m947332673
vIa:__ZNSt3__26__treeIiNS_4lessIiEE13stl_allocatorIiL18MemLabelIdentifier1ELi16EEE7destroyEPNS_11__tree_nodeIiPvEE
nc:invoke_viiifi
f8e:_LongComparer_Compare_m3981323622
KRh:_Slider_FindSelectableOnUp_m15474611
wIa:__ZNK11AssetBundle14GetPreloadDataEiR13dynamic_arrayIiLj4EE
ARe:_EncryptedData_get_EncryptedContent_m2732115576
ZRi:_Vector3__ctor_m2761639014
of:_JS_Sound_SetPosition
kti:_Assertion_set_FalseExpression_m1781616372
j0f:_X509SubjectKeyIdentifierExtension_FromHexChars_m2515150420
wYa:__ZN19RenderBufferManager13GetTempBufferEii17DepthBufferFormat19RenderTextureFormatj22RenderTextureReadWrite14VRTextureUsagei23RenderTextureMemoryless
uoj:__ZL13GetSharedInstPK17Il2CppGenericInst
wtg:__ZL51IReflect_t3412036974_CustomAttributesCacheGeneratorP21CustomAttributesCache
zOd:_StandaloneInputModule_SendSubmitEventToSelectedObject_m3421155293
iLi:_Quaternion_Equals_m798965363_AdjustorThunk
L1b:__Z17PrepareSceneNodesP11CullResults
lbj:_Canvas_get_sortingLayerID_m137448982
Nqi:_CallContextRemotingData_Clone_m2226242476
_8:__Z63ThreadAndSerializationSafeCheckSetMonoBehaviourBeingTransferredP13MonoBehaviour
s0b:__Z24SetupActiveLightsContextR21ActiveLightingContextRK12ActiveLightsRK11CullResultsP14ShadowMapCacheRK10MinMaxAABB
vvc:__Z38Sprite_CUSTOM_INTERNAL_get_textureRectP12Il2CppObjectP5RectTIfE
Tme:_DBNull_System_IConvertible_ToUInt32_m2681284284
Sv:__ZNSt3__26vectorIN13AnimationClip15QuaternionCurveE13stl_allocatorIS2_L18MemLabelIdentifier26ELi16EEE7reserveEj
Poc:__ZN9TextAsset7SetTextERKN4core12basic_stringIcNS0_20StringStorageDefaultIcEEEE
nSa:__ZN6Camera8TransferI24GenerateTypeTreeTransferEEvRT_
x5h:_EqualityComparer_1__cctor_m416314417_gshared
Ja:invoke_iiiiiiif
Fa:invoke_iiiiiiii
C_f:_X509ChainElementCollection_Contains_m3599995067
L3b:__ZN8Renderer17PendingAddToSceneEv
jgk:b123
igk:b122
lgk:b125
kgk:b124
ngk:b127
mgk:b126
pgk:b129
Huc:__Z52Register_UnityEngine_RectTransform_INTERNAL_get_rectv
R7:__Z21PostprocessStacktracePKcRN4core12basic_stringIcNS1_20StringStorageDefaultIcEEEE
Ghb:__ZN18StreamedBinaryReadILb0EE21TransferSTLStyleArrayI13dynamic_arrayI16SplashScreenLogoLj4EEEEvRT_17TransferMetaFlags
Ave:_Array_InternalArray__ICollection_Remove_TisX509ChainStatus_t4278378721_m4127982424_gshared
orc:__Z47Register_UnityEngine_Camera_get_allCamerasCountv
awd:___clang_call_terminate
Zod:__ZN22BaseUnityConnectClient20StartEventDispatcherEv
Ulc:__ZNSt3__26vectorIj13stl_allocatorIjL18MemLabelIdentifier1ELi16EEE6assignIPKtEENS_9enable_ifIXaasr21__is_forward_iteratorIT_EE5valuesr16is_constructibleIjNS_15iterator_traitsIS9_E9referenceEEE5valueEvE4typeES9_S9_
YG:__ZN7mecanim9animation16EvaluateAvatarIKEPKNS0_14AvatarConstantEPKNS0_11AvatarInputEPNS0_12AvatarOutputEPNS0_12AvatarMemoryEPNS0_15AvatarWorkspaceEb
Rwa:__ZL25ProgramUniformMatrix4x3fvPK7ApiGLESjiihPKv
JTb:__ZN12InputManager13InputEndFrameEv
ANc:__ZN15b2RevoluteJointC2EPK18b2RevoluteJointDef
fFj:__ZN6il2cpp2vm6Thread5SetupEP12Il2CppThread
REf:_ReadOnlyCollection_1_System_Collections_IList_Remove_m2200089035_gshared
xsf:_Collection_1_CheckWritable_m2756357359_gshared
s2j:___munmap
gZd:_InputField_get_characterLimit_m2386380888
H$g:__ZL68ColorBlock_t2652774230_CustomAttributesCacheGenerator_m_PressedColorP21CustomAttributesCache
mie:_Convert_ToInt64_m1722087499
fg:_localtime_r
ig:_strftime
hza:__ZN7Texture33SetStoredColorSpaceNoDirtyNoApplyE17TextureColorSpace
zca:__ZN12FileAccessorD2Ev
zWa:__ZN14VertexDataInfoC2Ev
iQj:__ZN6il2cpp2gc16GarbageCollector14CollectALittleEv
Bbi:_InternalEnumerator_1_get_Current_m2415979394_gshared
fIb:__ZL17Transfer_GUIStyleI18StreamedBinaryReadILb1EELb1EEvRK29SerializationCommandArgumentsR31RuntimeSerializationCommandInfo
KOh:_ScrollRect_SetDirtyCaching_m1491302821
nrj:__ZN6il2cpp6icalls8mscorlib6SystemL9IsPrivateEPK12PropertyInfo
g7g:_CustomAttributeData_GetCustomAttributes_m3258419955
HEi:_Matrix4x4_GetColumn_m83396621
f7:__ZN9shadertag10InitializeEv
NWb:__ZN13BatchRenderer20RenderSingleWithPassER17ShaderPassContextPK18SharedMaterialDataP6ShaderPN9ShaderLab4PassEiPKNS7_10GrabPassesEjib15BatchBreakCause
H6a:__ZN15QualitySettings14QualitySetting8TransferI24GenerateTypeTreeTransferEEvRT_
RBe:_Array_InternalArray__ICollection_CopyTo_TisParameterModifier_t1820634920_m4127516211_gshared
Jcg:_DecoderReplacementFallback__ctor_m2344783488
xaf:_OutOfMemoryException__ctor_m239206850
cPi:_Sprite_get_rect_m3985037234
BVd:_GraphicRegistry_UnregisterGraphicForCanvas_m820096873
xcd:__Z28Font_Get_Custom_PropMaterialP12Il2CppObject
lZg:__ZL65EventTrigger_t1967201810_CustomAttributesCacheGenerator_delegatesP21CustomAttributesCache
Mtf:_Collection_1_Remove_m4136193368_gshared
lLd:_EventTrigger_OnPointerUp_m2791622548
TQh:_Shadow_set_useGraphicAlpha_m141905402
xkc:__ZN22BlockMemoryCacheWriter14LockCacheBlockEjPPhS1_
WQj:__ZN6il2cpp2os6Thread10RunWrapperEPv
YHc:__Z22TransferField_NonArrayI8JSONRead27Converter_SimpleNativeClassI8GUIStyleEEvRK23StaticTransferFieldInfoR31RuntimeSerializationCommandInfoRT0_
Og:_llvm_eh_typeid_for
Ccc:__Z13RegisterClassI10GameObjectEvv
Nmj:__ZNK15dense_hashtableINSt3__24pairIK10KeyWrapperIN6il2cpp5utils13dynamic_arrayIPK10Il2CppTypeLj4EEEEPFvvEEESA_NS3_8metadata19Il2CppSignatureHashEN14dense_hash_mapISA_SD_SG_NSA_14EqualsComparerINSF_22Il2CppSignatureCompareEEENS0_9allocatorISE_EEE9SelectKeyESK_SM_E5beginEv
_ug:__ZL53HashValues_t2390200547_CustomAttributesCacheGeneratorP21CustomAttributesCache
mZf:_X509BasicConstraintsExtension_get_PathLengthConstraint_m3004531343
JE:__ZNK23AnimationPlayableOutput7GetTypeEv
_Vi:_GUIUtility_BeginGUI_m2381890998
o7e:_MissingMemberException__ctor_m4277447068
sff:_List_1_Find_m1881447651_gshared
uKb:__Z18Transfer_BlittableI18StreamedBinaryReadILb0EELb1E8Vector4fEvRK29SerializationCommandArgumentsR31RuntimeSerializationCommandInfo
sPj:__ZN6il2cpp2vm6Method8GetParamEPK10MethodInfoj
Y_e:_Int64_CompareTo_m1953686218
Rek:_glBindVertexArray__wrapper
Rvd:_DSA_Create_m3450041777
B_a:__ZN8Material8TransferI14SafeBinaryReadEEvRT_
B1a:__ZN12CubemapArray17UploadToGfxDeviceEv
kPh:_ScrollRect_AdjustBounds_m1033723448
B6b:__ZN18ScreenManagerWebGL13SetShowCursorEb
Mda:__ZN13RuntimeStaticI21AssetReferenceStorageLb0EE16StaticInitializeEPv
Cea:__ZN15dense_hashtableINSt3__24pairIKiiEEi21InstanceIDHashFunctorN14dense_hash_mapIiiS4_NS0_8equal_toIiEE13stl_allocatorIS3_L18MemLabelIdentifier67ELi16EEE9SelectKeyES7_SA_E14squash_deletedEv
_Zf:_X509Chain_CheckRevocationOnChain_m2441901351
RTj:__ZN6il2cpp2vm13ManagedObject14QueryInterfaceERK10Il2CppGuidPPv
Gv:__ZNSt3__26vectorI24CompressedAnimationCurve13stl_allocatorIS1_L18MemLabelIdentifier26ELi16EEE6assignINS_11__wrap_iterIPS1_EEEENS_9enable_ifIXaasr21__is_forward_iteratorIT_EE5valuesr16is_constructibleIS1_NS_15iterator_traitsISB_E9referenceEEE5valueEvE4typeESB_SB_
rlg:_Type_GetMethod_m3650909507
yQ:__ZN11AudioSource4StopEb
V0j:_frexp
$zb:__ZN14SafeBinaryRead21TransferSTLStyleArrayI13dynamic_arrayI10Matrix4x4fLj4EEEEvRT_17TransferMetaFlags
yxf:_Collection_1_CheckWritable_m732350052_gshared
cTa:__ZN15LODGroupManager26CollectAllLODGroupManagersERK16CoreCameraValuesR13dynamic_arrayIPS_Lj4EEb
A5d:_Byte_System_IConvertible_ToDecimal_m1036493607
$Pb:__Z25GetSplashScreenBackgroundRK5RectTIfE
I9h:_InternalEnumerator_1_System_Collections_IEnumerator_get_Current_m1679297177_gshared
cji:_DefaultComparer_Compare_m1247109616_gshared
Hki:_ResourceManager__ctor_m498829021
XBa:__ZN18GlslGpuProgramGLESD2Ev
$5b:__ZN13RenderTexture14SetVolumeDepthEi
qEh:__Z88RuntimeInvoker_Int32_t2071877448_UIVertex_t1204258818_UIVertex_t1204258818_RuntimeObjectPFvvEPK10MethodInfoPvPS4_
b9f:_SerializationCallbacks__ctor_m722356782
CIc:__ZN10Matrix4x4f8TransferI8JSONReadEEvRT_
v_c:__ZN14SafeBinaryRead21TransferSTLStyleArrayI13dynamic_arrayIN4core17string_with_labelILi35EEELj4EEEEvRT_17TransferMetaFlags
CRc:__ZThn4_N16PhysicsManager2D9PostSolveEP9b2ContactPK16b2ContactImpulse
O8:__ZN17PersistentManager18ReadObjectThreadedEi
hoa:__ZN25TransformFeedbackSkinning31CleanupTransformFeedbackShadersEv
TSa:__Z22scripting_object_unbox18ScriptingObjectPtr
z$c:__ZNK20TextRenderingPrivate8FontImpl19GetCharacterAdvanceEjijfPj
YZj:__ZN6il2cpp6icalls8mscorlib4Mono8Security12Cryptography18KeyPairPersistence16_IsUserProtectedEP12Il2CppString
MVf:_DefaultUriParser__ctor_m4218024811
F8g:_DerivedType_GetField_m3960169619
tne:_Decimal_System_IConvertible_ToInt16_m3159038792_AdjustorThunk
v8a:__ZN10VertexData8TransferI18StreamedBinaryReadILb0EEEEvRT_
dSe:_PKCS12_GetExistingParameters_m2413397265
Ejb:__ZN14PreloadManager16UpdatePreloadingEv
nRj:__ZN14dense_hash_mapI10KeyWrapperIPK19Il2CppGenericMethodEP10MethodInfoN6il2cpp8metadata23Il2CppGenericMethodHashENS4_14EqualsComparerINS8_26Il2CppGenericMethodCompareEEENSt3__29allocatorINSD_4pairIKS4_S6_EEEEEC2EjRKS9_RKSC_
Ezi:_Color32_op_Implicit_m3337994915
S2:__ZNK21UnityDefaultAllocatorI17LowLevelAllocatorE8ContainsEPKv
Yh:_emscripten_get_main_loop_timing
p1e:_DirectoryInfo__ctor_m3750996792
QPd:_BaseMeshEffect_ModifyMesh_m2134816219
G6a:__ZN24GenerateTypeTreeTransfer21TransferSTLStyleArrayINSt3__26vectorIN15QualitySettings14QualitySettingENS1_9allocatorIS4_EEEEEEvRT_17TransferMetaFlags
Heb:__ZNSt3__26vectorI14SubstanceInputNS_9allocatorIS1_EEE8__appendEj
Kfb:__ZNSt3__26vectorI9InputAxisNS_9allocatorIS1_EEE6resizeEj
UWb:__ZN13BatchRendererC2ER15RenderLoopStatsRK15RenderNodeQueuebbb
lDd:_SecurityElement_IsValidAttributeValue_m483287146
Tsb:__ZNK2UI13RectTransform22GetTypeVirtualInternalEv
op:getTempRet0
qYd:_Image_AddQuad_m1603575622
hKf:_PrivateKeyInfo_RemoveLeadingZero_m3396807048
CGj:__ZN6il2cpp6icalls8mscorlib6System9ThreadingL21lookup_cached_cultureEP12Il2CppThreadi
l1b:__ZN18DeferredRenderLoopD2Ev
MEa:__ZNK16TypeTreeIterator4NameEv
A2i:_PCMReaderCallback_Invoke_m877950113
Zba:__ZN15FileSystemEntry3SetEPKc
Ntj:_il2cpp_method_has_attribute
Lxd:_MACTripleDES__ctor_m884945242
bOi:_RenderTexture_get_height_m428170183
lVi:_GUILayoutGroup_SetHorizontal_m4089360220
lS:__ZN20SoundChannelInstance15ParameterBuffer5ApplyEPN4FMOD7ChannelE
w$c:__ZN20TextRenderingPrivate19NativeTextGenerator9InsertTabEv
ku:__ZN15SerializeTraitsI13dynamic_arrayIN11UnityEngine9Animation14GenericBindingELj4EEE19ResizeSTLStyleArrayERS4_i
Nab:__ZN14SafeBinaryRead21TransferSTLStyleArrayI13dynamic_arrayI16BlendShapeVertexLj4EEEEvRT_17TransferMetaFlags
ypd:__ZN11UnityEngine15PlatformWrapper24GetRuntimePlatformStringEv
Hi:_glIsEnabled
Ryb:__Z25scripting_class_get_image17ScriptingClassPtr
bKi:_PlayableAsset_Internal_CreatePlayable_m2166162235
mjb:__ZNSt3__26vectorIN4core12basic_stringIcNS1_20StringStorageDefaultIcEEEE13stl_allocatorIS5_L18MemLabelIdentifier13ELi16EEEC2INS_11__wrap_iterIPS5_EEEET_SE_RKS8_PNS_9enable_ifIXaasr21__is_forward_iteratorISE_EE5valuesr16is_constructibleIS5_NS_15iterator_traitsISE_E9referenceEEE5valueEvE4typeE
Li:_emscripten_glDrawElementsInstanced
zD:__ZN26AnimatorControllerPlayable27SetupStateMachineBehavioursEv
JIf:_ARC4Managed_Dispose_m4102232694
bJf:_HMAC_Initialize_m3052649104
GUa:__ZN18JobBatchDispatcherD2Ev
Osb:__ZN9Transform17MainThreadCleanupEv
uWj:_GC_clear_hdr_marks
P9j:_glScissor__wrapper
Nfk:_emscripten_glCreateShader__wrapper
n7c:_cff_fd_select_get
Eyg:__ZL73CompilationRelaxationsAttribute_t238494011_CustomAttributesCacheGeneratorP21CustomAttributesCache
kN:__Z13RegisterClassI18AnimatorControllerEvv
eKe:_MSCompatUnicodeTable_GetTailoringInfo_m2792223347
aVf:_NameObjectCollectionBase_get_Keys_m446053925
Wi:_emscripten_glGetShaderiv
lT:__ZN4FMOD6System10getVersionEPj
zze:_Array_InternalArray__IndexOf_TisSByte_t454417549_m1427585061_gshared
jhd:__ZN2UI6Canvas23VirtualRedirectTransferER24GenerateTypeTreeTransfer
gfe:_Decimal_u64_m3991988111
uaj:_Predicate_1_BeginInvoke_m2959352225_gshared
BHi:_X509Certificate_Parse_m1764345628
eGc:__ZN9JSONWrite8TransferIN4math12int2_storageEEEvRT_PKc17TransferMetaFlags
h_c:__ZN13TextRendering4Font13AwakeFromLoadE17AwakeFromLoadMode
pEi:_Mathf_Pow_m1117712374
Cyh:__Z70RuntimeInvoker_Void_t1841601450_Guid_t_RuntimeObject_Int32_t2071877448PFvvEPK10MethodInfoPvPS4_
Yka:__ZN9GfxDevice21ReleaseSharedMeshDataEP14SharedMeshData
zgb:__ZNSt3__27__sort5IRNS_6__lessINS_4pairIPKN5Unity4TypeE7Hash128EES8_EEPS8_EEjT0_SC_SC_SC_SC_T_
Ade:_Enumerator_Reset_m466659019
BVj:_GC_unreachable_finalize_mark_proc
dTi:_WaitForSecondsRealtime_get_keepWaiting_m4138104467
WBh:__Z70RuntimeInvoker_Single_t2076509932_Int32_t2071877448_Single_t2076509932PFvvEPK10MethodInfoPvPS4_
zuc:__Z43RectTransform_CUSTOM_INTERNAL_get_anchorMaxP12Il2CppObjectP13Vector2fIcall
tkh:__Z50RuntimeInvoker_Void_t1841601450_Single_t2076509932PFvvEPK10MethodInfoPvPS4_
sme:_DateTimeOffset_get_DateTime_m229084964_AdjustorThunk
M3a:__ZN8Material28UpdateHashesOnPropertyChangeEN9ShaderLab16FastPropertyNameE
nvc:__Z53Register_UnityEngine_SortingLayer_GetLayerValueFromIDv
L0e:_DirectoryInfo_get_Parent_m1198766078
Iae:_CaseInsensitiveComparer_Compare_m1192858479
Jxb:__Z18Transfer_BlittableI14SafeBinaryReadLb1E8Vector4fEvRK29SerializationCommandArgumentsR31RuntimeSerializationCommandInfo
L0d:_LayoutRebuilder_Clear_m2390054824
ina:__ZN13GfxDeviceGLES20SetComputeBufferDataE15ComputeBufferIDPKvjj
S6g:_Default_SelectMethod_m622251293
nV:__ZN11AudioSource12AddToManagerEv
CLd:_ExecuteEvents_Execute_m1429058057
eF:__ZN11UnityEngine9Animation32CreateAnimatorGenericBindingsOptERKNS0_20AnimationSetBindingsER9TransformPKN7mecanim9animation14AvatarConstantEPKNS0_21AvatarBindingConstantEbRNS6_6memory9AllocatorER8Animator
cKj:__ZN6il2cpp2vm5Image13ClassFromNameEPK11Il2CppImagePKcS6_
R5j:dynCall_vdddddd
Epb:__ZN24GenerateTypeTreeTransfer21TransferSTLStyleArrayINSt3__26vectorIN9ShaderLab14SerializedPassENS1_9allocatorIS4_EEEEEEvRT_17TransferMetaFlags
F7:__ZL32MarkLevelGameManagerDependenciesR27GarbageCollectorThreadState
pna:__ZNK13GfxDeviceGLES26HasActiveRandomWriteTargetEv
Gak:_glGetActiveUniformsiv__wrapper
kvc:__Z43Register_UnityEngine_Material_EnableKeywordv
W9:__ZN13MonoBehaviour19SetupScriptingCacheE17ScriptingClassPtrP10MonoScript
lt:__Z20AnimationEventToMonoRK14AnimationEventR18MonoAnimationEvent
k9:__ZN17PersistentManager29ReadAndActivateObjectThreadedEiRK26SerializedObjectIdentifierP14SerializedFilebb
uWh:_ShimEnumerator_get_Current_m3610131784_gshared
nSg:__ZL74UnityEventBase_t828812576_CustomAttributesCacheGenerator_m_PersistentCallsP21CustomAttributesCache
rga:__ZZN15DirectorManager15InitializeClassEvEN52PreLateUpdateDirectorUpdateAnimationBeginRegistrator7ForwardEv
AIj:__ZN6il2cpp2vm13LivenessState18ShouldProcessValueEP12Il2CppObjectP11Il2CppClass
AJh:__Z49RuntimeInvoker_UIVertex_t1204258818_RuntimeObjectPFvvEPK10MethodInfoPvPS4_
KL:__ZN7mecanim12statemachine13StateConstant8TransferI18StreamedBinaryReadILb0EEEEvRT_
GEi:_Matrix4x4_GetHashCode_m375571566
DWi:_InvokableCall_1__ctor_m1584932671_gshared
$ob:__ZNSt3__26vectorIN9ShaderLab14SerializedPassENS_9allocatorIS2_EEE8__appendEj
qob:__ZNSt3__26vectorIN9ShaderLab20SerializedSubProgram13BufferBindingENS_9allocatorIS3_EEEC2INS_11__wrap_iterIPS3_EEEET_SB_RKS5_PNS_9enable_ifIXaasr21__is_forward_iteratorISB_EE5valuesr16is_constructibleIS3_NS_15iterator_traitsISB_E9referenceEEE5valueEvE4typeE
sRc:__ZNK16PhysicsManager2D21GetAutoSyncTransformsEv
fNc:__ZN12b2WheelJoint24SolveVelocityConstraintsERK12b2SolverData
cCh:__Z133RuntimeInvoker_RuntimeObject_Vector2_t2243707579_Vector2_t2243707579_Single_t2076509932_Int32_t2071877448_RuntimeObject_RuntimeObjectPFvvEPK10MethodInfoPvPS4_
t3a:__ZN9Texture2D23VirtualRedirectTransferER18StreamedBinaryReadILb0EE
ZPc:__ZN10Collider2D8TransferI24GenerateTypeTreeTransferEEvRT_
LGi:_ExtendedKeyUsageExtension_Encode_m3429751649
Mpe:_Double_System_IConvertible_ToUInt16_m286326038_AdjustorThunk
j7f:_TypeInfo__ctor_m1475908211
bUg:__ZL73g_UnityEngine_TextRenderingModule_Assembly_CustomAttributesCacheGeneratorP21CustomAttributesCache
Daa:__ZN16ScriptingManager27NativeTypeForScriptingClassE17ScriptingClassPtr
$Zf:_X509Chain_WrapUp_m1072032285
WIi:_X509CertificateEnumerator_System_Collections_IEnumerator_MoveNext_m1448966539
t4c:_get_sfnt_table
jtf:_Collection_1_IsSynchronized_m3261594010_gshared
BMd:_PointerEventData_set_pressPosition_m2094137883
pcg:_DES_get_Key_m2584608215
G2b:__ZL22ScheduleSceneNodesJobsP25ScheduleSceneNodesJobDataj
Lk:_emscripten_set_canvas_size
_fd:__ZN15TilemapRenderer15InitializeClassEv
Iob:__ZNSt3__26vectorIN9ShaderLab20SerializedSubProgramENS_9allocatorIS2_EEE8__appendEj
A3:__ZN20DynamicHeapAllocatorI17LowLevelAllocatorE8AllocateEji
gnd:__ZN11UnityEngine9Analytics15UserCustomEvent12ToJsonStringER9JSONWrite
tXb:__ZN20DynamicPropertySheet15SetVectorQueuedERKN9ShaderLab16FastPropertyNameERK8Vector4fN19ShaderPropertySheet8SetFlagsE
YHd:_String_Format_m1263743648
zCf:_ReadOnlyCollection_1_System_Collections_IEnumerable_GetEnumerator_m4248982967_gshared
gG:__ZN7mecanim9animation22EvaluateAvatarRetargetEPKNS0_14AvatarConstantEPKNS0_11AvatarInputEPNS0_12AvatarOutputEPNS0_12AvatarMemoryEPNS0_15AvatarWorkspaceEb
wXa:__ZN14RenderSettings23VirtualRedirectTransferER19StreamedBinaryWriteILb0EE
DEc:__ZL26Transfer_SimpleNativeClassI9JSONWrite10RectOffsetLb0EEvRK29SerializationCommandArgumentsR31RuntimeSerializationCommandInfo
zab:__ZN14SafeBinaryRead21TransferSTLStyleArrayI13dynamic_arrayI12BoneWeights4Lj16EEEEvRT_17TransferMetaFlags
VVj:_GC_push_conditional
tnd:__ZN21UnityAnalyticsManager23VirtualRedirectTransferER24GenerateTypeTreeTransfer
qra:__ZN17GenericDynamicVBO10AllocateVBEjR21DynamicVBOChunkHandle
Jgf:_List_1_get_Item_m1547593893_gshared
a1e:_Path_GetPathRoot_m1269357080
Hdd:__ZN7Tilemap19UpdateTileAnimationEv
QKd:_EventSystem_SetSelectedGameObject_m2211816110
jl:_glMapBufferRange
l3a:__ZN9Texture2D8TransferI18StreamedBinaryReadILb0EEEEvRT_
ftc:__Z31Input_CUSTOM_GetMouseButtonDowni
uuc:__Z75Register_UnityEngine_Playables_PlayableHandle_INTERNAL_CALL_IsValidInternalv
qjc:__ZN13PlayableGraph4PlayEv
ZNa:__ZNK9Transform16GetLocalPositionEv
SHa:__ZN13LoadOperation19IntegrateTimeSlicedEi
V6h:_ArrayReadOnlyList_1_get_Item_m176001975_gshared
KSe:_X501__cctor_m3795360380
Ana:__ZN13GfxDeviceGLES22DispatchComputeProgramE12ObjectHandleI18ComputeProgram_TagPvE15ComputeBufferIDj
Ht:__ZNK13AnimationClip15GetAverageSpeedEv
fie:_Convert_ToInt32_m2297793940
blb:__Z17TransformAABBSlowRK4AABBRK10Matrix4x4fRS_
RCj:__ZN13Il2CppHashMapINSt3__24pairIPK9FieldInfoP11Il2CppClassEEj17ReflectionMapHashIS7_ENS0_8equal_toIS7_EENS0_9allocatorINS1_IK10KeyWrapperIS7_EjEEEEEC2EjRKS9_RKSB_
rnb:__ZN9ShaderLab21SerializedShaderState8TransferI14SafeBinaryReadEEvRT_
$2j:_ftruncate
oAd:_RSAPKCS1SignatureFormatter_SetKey_m2365816458
i8c:_cf2_stack_pushInt
LKi:_PropertyName__ctor_m4147171238_AdjustorThunk
$gg:_CompressedStack__ctor_m276924800
dMd:_ExecuteEvents_get_cancelHandler_m1964324668
o$a:__ZN15SerializeTraitsINSt3__24pairIN4core12basic_stringIcNS2_20StringStorageDefaultIcEEEES6_EEE8TransferI24GenerateTypeTreeTransferEEvRS7_RT_
Zck:b89
Yck:b88
hEi:_Mathf_Sin_m712860563
kSi:_Vector3_Dot_m827632793
qck:b81
pck:b80
xza:__ZN7ApiGLES19CreateSparseTextureEjj14GraphicsFormatiiiiRiS1_S1_
nba:__ZN18ResourceImageGroup7CleanupEv
Gck:b85
Fck:b84
Ock:b87
Nck:b86
jGh:__Z68RuntimeInvoker_Void_t1841601450_Int32_t2071877448_Double_t4078015681PFvvEPK10MethodInfoPvPS4_
uhc:__ZN13ProduceHelperI4MeshLb0EE7ProduceE18MemLabelIdentifier18ObjectCreationMode
fKf:_PrivateKeyInfo_Decode_m1053025782
NRe:_PKCS12_Decrypt_m2457743414
H0a:__ZN8Playable19SetOutputConnectionEPS_i
Tjj:__ZN15dense_hashtableINSt3__24pairIK10KeyWrapperIPK11Il2CppClassEPKcEES6_N6il2cpp5utils11PointerHashIS3_EEN14dense_hash_mapIS6_S9_SE_NS6_14EqualsComparerINS0_8equal_toIS5_EEEENS0_9allocatorISA_EEE9SelectKeyESJ_SL_EC2ERKSO_j
Yl:_glDeleteShader
Cre:_Exception_GetType_m3898489832
pva:__ZN6prcoreL17RemapGenericFloatI15TexFormatRGHalf16TexFormatRGFloatEEvPKNS_9InnerInfoE
hgj:_CustomEventData_InternalCreate_m2399239074
oqf:_Stack_1_Peek_m1548778538_gshared
jVi:_GUILayoutUtility_get_spaceStyle_m4248899869
QQh:_Shadow_set_effectColor_m3110056844
Voc:__Z27scripting_add_internal_callPKcPKv
gDe:_Array_InternalArray__Insert_TisUriScheme_t1876590943_m2728325409_gshared
BCj:__ZN13Il2CppHashMapINSt3__24pairIPK9EventInfoP11Il2CppClassEEj17ReflectionMapHashIS7_ENS0_8equal_toIS7_EENS0_9allocatorINS1_IK10KeyWrapperIS7_EjEEEEEC2EjRKS9_RKSB_
hJi:_X509Store_CheckStore_m1027496478
Cy:__ZN26AnimatorControllerPlayable18SetLayerAutoWeightEv
Bmd:__Z44Register_UnityEngine_Canvas_get_pixelPerfectv
B3j:__ZNSt3__212basic_stringIcNS_11char_traitsIcEENS_9allocatorIcEEEC2ERKS5_jjRKS4_
HHd:_String_Contains_m4017059963
Kii:_DefaultComparer_Compare_m1606207039_gshared
Ojd:__ZN2UI14CanvasRenderer12SyncMaterialENS0_8SyncFlagE
QZj:__ZN6il2cpp2vm9Parameter30GetDefaultParameterValueObjectEPK10MethodInfoPK13ParameterInfoPb
Ifj:_Rigidbody2D_set_velocity_m2161463521
WDe:_Array_InternalArray__set_Item_TisLabelData_t3712112744_m2253365137_gshared
o5e:_StringReader__ctor_m643998729
DWf:_IPv6Address_TryParse_m2220524278
mx:__ZN14AnimationEvent8TransferI19StreamedBinaryWriteILb0EEEEvRT_
j4c:_UNITY_tt_face_done_kern
Soi:_Context_get_DefaultContext_m2211922324
qeb:__ZN14SafeBinaryRead21TransferSTLStyleArrayINSt3__26vectorI14SubstanceInputNS1_9allocatorIS3_EEEEEEvRT_17TransferMetaFlags
bbb:__ZN12BoneWeights48TransferI24GenerateTypeTreeTransferEEvRT_
wKf:_RSAManaged_GetPaddedValue_m2972141669
zPh:_ScrollRect_OnDrag_m1424848249
uPb:__Z19scripting_gc_enablev
QSb:__ZZ23InitPlayerLoopCallbacksvEN41InitializationPlayerUpdateTimeRegistrator7ForwardEv
bui:_AnchorInfo__ctor_m617409099
Cld:__Z55Register_UnityEngine_CanvasRenderer_DisableRectClippingv
u2f:_Interval_CompareTo_m2909556284_AdjustorThunk
Aab:__ZN14SafeBinaryRead21TransferSTLStyleArrayI13dynamic_arrayI11ColorRGBA32Lj4EEEEvRT_17TransferMetaFlags
WUj:_GC_should_collect
l1f:_Interpreter_GetLastDefined_m2450713313
uti:_Parser_ParseAssertionType_m3316669790
mrb:__ZN9ShaderLab7Program27CreateFromSerializedProgramERKNS_17SerializedProgramE10ShaderTypeiP16PropertyNamesSetPK6Shader
rQh:_Selectable_get_isPointerDown_m774209881
Isb:__ZNSt3__27__sort4IRNS_6__lessIN4core12basic_stringIcNS2_20StringStorageDefaultIcEEEES6_EEPS6_EEjT0_SA_SA_SA_T_
w6j:dynCall_viiiifii
dBj:__ZN6il2cpp2gc19AppendOnlyGCHashMapINSt3__24pairIPK11Il2CppImageP11Il2CppClassEEP22Il2CppReflectionModule17ReflectionMapHashIS9_ENS2_8equal_toIS9_EEEC2Ev
L8:__Z20GetPersistentManagerv
nbd:_UNITY_TT_Set_Var_Design
q5:__ZN21SystemInfoStringCache16StaticInitializeEPv
TLf:_TlsStream__ctor_m4117943603
Sxj:__ZN15dense_hashtableINSt3__24pairIK10KeyWrapperIPK10Il2CppTypeEjEES6_N6il2cpp8metadata14Il2CppTypeHashEN14dense_hash_mapIS6_jSB_NS6_14EqualsComparerINSA_26Il2CppTypeEqualityComparerEEENS0_9allocatorIS8_EEE9SelectKeyESF_SH_E12maybe_shrinkEv
gSh:_Text_FontTextureChanged_m4236993972
sQj:__ZN6il2cpp2gc16GarbageCollector23MakeDescriptorForObjectEPji
Ahh:_ParameterModifier_t1820634920_marshal_pinvoke
IMb:__ZNK13MonoBehaviour7GetNameEv
hmb:__ZN19ScriptingInvocation28AdjustArgumentsToMatchMethodEv
PLj:__ZN15dense_hashtableI10KeyWrapperIP18Il2CppGenericClassES3_N6il2cpp8metadata22Il2CppGenericClassHashEN14dense_hash_setIS3_S6_NS3_14EqualsComparerINS5_25Il2CppGenericClassCompareEEENSt3__29allocatorIS3_EEE8IdentityESA_SD_E6insertERKS3_
$P:__Z15_CheckFMODError11FMOD_RESULTPKciS1_
LVa:__Z20RenderMultipleMeshesRK15RenderNodeQueueRK18RenderMultipleData17ShaderChannelMask
_vj:__ZN6il2cpp2vm4Type19GetGenericParameterEPK10Il2CppType
cld:__Z51Register_UnityEngine_CanvasGroup_get_blocksRaycastsv
dhi:_InternalEnumerator_1_get_Current_m2826780083_gshared
ove:_Array_InternalArray__ICollection_Remove_TisCustomAttributeNamedArgument_t94157543_m2838387005_gshared
yd:_glBeginQuery
M5g:_Assembly_GetCustomAttributes_m95309865
XK:__ZN18AnimatorController19TransferRuntimeDataI24GenerateTypeTreeTransferEEvRT_
_Xc:__ZN10Effector2D25CheckEffectorColliderMaskEP10Collider2DS1_
mUb:__ZN6Camera12RenderStereoENS_10RenderFlagE8CullFlagPNS_24PerformEyeRenderFunctionE
Xub:__ZN20LocalFileSystemPosix10ToAbsoluteEPKc
yVa:__ZN20TierGraphicsSettings8TransferI19StreamedBinaryWriteILb0EEEEvRT_
L4:__GLOBAL__sub_I_runtime_input_0_cpp
Vqe:_Enum_ToObject_m275924358
bs:__ZN14AnimationState19SetupUnstoppedStateEv
O8d:_ArrayListWrapper_set_Capacity_m2792463350
GZf:_X509Certificate2_ImportPkcs12_m3993877002
Q1j:_getcwd
dfg:_StringBuilder_Append_m1128243247
PSc:__ZN16b2CapsuleContact6CreateEP9b2FixtureiS1_iP16b2BlockAllocator
aHa:__ZN25ThreadsafeLinearAllocatorD2Ev
BEe:_Array_InternalArray__set_Item_TisVector4_t2243707581_m3878172417_gshared
wkb:__Z21SendMessageToEveryoneRK17MessageIdentifier11MessageData
uea:__ZN21BillboardBatchManager16StaticInitializeEPv
J6:__ZN12_GLOBAL__N_138ArchiveRedirectFileSystemStaticDestroyEPv
Ldd:__Z13InvokeStartUpRKN4math12int3_storageE4PPtrI6ObjectEP7TilemapP10GameObject
tre:_EventHandler_Invoke_m1137722757
y1a:__ZN12CubemapArray34UpdateFileTextureUploadInstructionEP26FileAssetUploadInstructionj
L8e:_MonoType_IsSubclassOf_m2211166238
_tf:_Collection_1_System_Collections_ICollection_CopyTo_m2859266050_gshared
wza:__Z23CreateSparseTextureGLES9TextureIDii14GraphicsFormati
EWj:_GC_continue_reclaim
Y$e:_InvalidCastException__ctor_m2730571470
G$f:_X509ChainElementCollection_System_Collections_IEnumerable_GetEnumerator_m2559704689
WYf:_PublicKey_get_Key_m126090744
p0c:__ZNSt3__23mapIN20TextRenderingPrivate7FontRefEP11FT_FaceRec_NS_4lessIS2_EENS_9allocatorINS_4pairIKS2_S4_EEEEEixERS9_
pJa:__ZN17ArchiveFileSystem10AddStorageEP20ArchiveStorageReader
hGi:_Object_INTERNAL_CALL_Internal_InstantiateSingle_m846595043
Qie:_Convert_ToSingle_m690748777
fMc:__ZNK12b2MotorJoint16GetReactionForceEf
x4h:_EqualityComparer_1_System_Collections_IEqualityComparer_GetHashCode_m1203798961_gshared
fij:__ZN6il2cpp2vm5Class15GetEnumBaseTypeEP11Il2CppClass
B2a:__ZNK9Texture2D16GetNpotTexelSizeEv
FKh:_Mask_get_rectTransform_m3304369086
Dyh:__Z78RuntimeInvoker_Void_t1841601450_ScriptableRenderContext_t4271526_RuntimeObjectPFvvEPK10MethodInfoPvPS4_
vra:__ZN9GfxDevice22GetDefaultVertexBufferE26GfxDefaultVertexBufferTypej
WBf:_ReadOnlyCollection_1_System_Collections_ICollection_CopyTo_m1129689124_gshared
g2j:___fseeko_unlocked
Ack:_glGetActiveUniform__wrapper
_1j:_sscanf
Pab:__ZN14SafeBinaryRead21TransferSTLStyleArrayINSt3__26vectorI17BlendShapeChannelNS1_9allocatorIS3_EEEEEEvRT_17TransferMetaFlags
uQb:__Z17BeginSplashScreenv
qqb:__ZN9ShaderLab16SerializedShader8TransferI19StreamedBinaryWriteILb0EEEEvRT_
Nmg:_UInt32_Parse_m2400360707
BI:__ZN7mecanim9animation18CreateAvatarMemoryEPKNS0_14AvatarConstantERNS_6memory9AllocatorE
tee:_Stack_Pop_m3788808882
nUh:_Enumerator_VerifyCurrent_m4246196125_AdjustorThunk
Ule:_DateTime_op_Equality_m1867073872
qH:__ZN7mecanim8skeleton16SkeletonPoseCopyIN4math4trsXENS2_7affineXEEEvPKNS0_13SkeletonPoseTIT_EEPNS5_IT0_EE
ara:__ZN18GfxFramebufferGLES18GetFramebufferNameERK20GfxRenderTargetSetup
d5j:_saveSetjmp
UAc:__Z30Event_Get_Custom_PropCharacterP12Il2CppObject
Mfa:__ZN13PlayableGraph27SchedulePlayableDestructionERK9HPlayable
J9j:_glGetFramebufferAttachmentParameteriv__wrapper
Btd:__Z13RegisterClassI20UnityConnectSettingsEvv
Oyb:__Z22scripting_array_length17ScriptingArrayPtr
hDd:_SecurityElement_GetAttribute_m4288291176
EZi:_IndexedSet_1_get_Count_m2839545138_gshared
M1a:__ZN14SafeBinaryRead20TransferTypelessDataEjPvi
Hyg:__ZL66StringFreezingAttribute_t2691375565_CustomAttributesCacheGeneratorP21CustomAttributesCache
Scb:__ZN14SpriteRenderer18UpdateCachedSpriteEb
EW:__ZN13dynamic_arrayI12SoundChannelLj4EE9push_backERKS0_
Xya:__Z19GetActiveColorSpacev
Q4h:_EqualityComparer_1__cctor_m1672307556_gshared
H5f:_SoapTypeAttribute_get_IsInteropXmlElement_m2941294827
C3c:_UNITY_tt_face_load_kern
tdf:_Enumerator_System_Collections_IEnumerator_get_Current_m3542273247_gshared
d7d:_Char_System_IConvertible_ToUInt32_m1557991717_AdjustorThunk
ieg:_Encoding_get_UTF8Unmarked_m628720656
QYe:_NumberFormatter_RoundBits_m1545255255
b6:__Z6StrCmpPKcS0_
Wrb:__Z21CheckGpuProgramUsable20ShaderGpuProgramType
B6g:_Binder__cctor_m3736115807
BPj:__ZN6il2cpp2os9Directory20GetFileSystemEntriesERKNSt3__212basic_stringIcNS2_11char_traitsIcEENS2_9allocatorIcEEEESA_iiPi
mEh:__Z84RuntimeInvoker_Int32_t2071877448_Color32_t874517518_Color32_t874517518_RuntimeObjectPFvvEPK10MethodInfoPvPS4_
a2h:_Dictionary_2_OnDeserialization_m2160537783_gshared
o$c:__ZN20TextRenderingPrivate19NativeTextGenerator5SetupEv
T$b:__ZNK15SharedLightData24GetFinalShadowResolutionEv
Dhb:__ZN12AspectRatios8TransferI18StreamedBinaryReadILb0EEEEvRT_
Pic:__ZN10GameObject14CopyPropertiesERS_
IBc:__Z44Register_UnityEngine_GUIStyle_get_fixedWidthv
Ozd:_RSACryptoServiceProvider_Common_m2581564813
JHi:_X509CertificateEnumerator_MoveNext_m4060814498
JNi:_Vector2_Scale_m2260641886
o3e:_MemoryStream_CheckIfClosedThrowDisposed_m2253054610
r7h:_ArrayReadOnlyList_1_GetEnumerator_m634288642_gshared
t7a:__ZNK13ScreenManager12IsFullScreenEv
B2j:_rand
kak:_emscripten_glFramebufferRenderbuffer__wrapper
_xh:__Z72RuntimeInvoker_Boolean_t3825574718_Ray_t2469606224_SingleU26_t4173844468PFvvEPK10MethodInfoPvPS4_
aQj:__ZN6il2cpp5utils9PathUtils7CombineIcEENSt3__212basic_stringIT_NS3_11char_traitsIS5_EENS3_9allocatorIS5_EEEERKNS0_10StringViewIS5_EERKSA_
Kzb:__ZN14SafeBinaryRead21TransferSTLStyleArrayINSt3__26vectorI17AnimationCurveTplIfE13stl_allocatorIS4_L18MemLabelIdentifier1ELi16EEEEEEvRT_17TransferMetaFlags
x8f:_ObjectManager_RegisterObject_m872610295
p2b:__Z22PrepareOptimizedPlanesPK5PlaneiPKN4math7_float4E
LMi:_RectOffset_t3387826427_marshal_pinvoke
wVd:_Graphic_SetVerticesDirty_m1607014370
o2:__ZN11UnityEngine15CloudWebService17WebFileDownloaderINS0_20WebRequestRestClientENS0_23WebRequestRestHeaderMapEE10InitializeERKN4core12basic_stringIcNS5_20StringStorageDefaultIcEEEE
sea:__ZN17UniqueIDGenerator15CreatePureIndexEv
Mkc:__ZN14dense_hash_mapI12TriangleEdgei16TriangleEdgeHashNSt3__28equal_toIS0_EENS2_9allocatorINS2_4pairIKS0_iEEEEEixERS7_
Vx:__ZN11UnityEngine9Animation28GenericAnimationBindingCache15DidReloadDomainEv
XTe:_AppDomain_InternalGetProcessGuid_m1278588156
L_d:_InputField_MoveRight_m386206014
sib:__ZNSt3__26vectorIN15ResourceManager10DependencyE13stl_allocatorIS2_L18MemLabelIdentifier52ELi16EEE6assignINS_11__wrap_iterIPS2_EEEENS_9enable_ifIXaasr21__is_forward_iteratorIT_EE5valuesr16is_constructibleIS2_NS_15iterator_traitsISC_E9referenceEEE5valueEvE4typeESC_SC_
mM:__ZN19StreamedBinaryWriteILb0EE8TransferIN7mecanim9animation23BlendDirectDataConstantEEEvRT_PKc17TransferMetaFlags
slh:__Z116RuntimeInvoker_Boolean_t3825574718_RuntimeObject_Int32_t2071877448_RuntimeObject_Int32_t2071877448_Int32_t2071877448PFvvEPK10MethodInfoPvPS4_
s0e:_BinaryReader_ReadBoolean_m2892291883
vhj:__ZN15dense_hashtableINSt3__24pairIK10KeyWrapperIPK22Il2CppGenericParameterEP11Il2CppClassEES6_N6il2cpp5utils11PointerHashIS4_EEN14dense_hash_mapIS6_S9_SE_NS6_14EqualsComparerINS0_8equal_toIS5_EEEENS0_9allocatorISA_EEE9SelectKeyESJ_SL_E14squash_deletedEv
WNc:__ZNK12b2MouseJoint17GetReactionTorqueEf
czc:__Z14GUIClipTextureP9Texture2DPhiiii
Qv:__ZN14SafeBinaryRead21TransferSTLStyleArrayI13dynamic_arrayI11KeyframeTplI11QuaternionfELj4EEEEvRT_17TransferMetaFlags
Qdj:_AnimatorControllerPlayable__ctor_m4080566273
RPf:_TlsServerCertificate_validateCertificates_m1988583701
NPa:__ZNK9Transform18TransformDirectionERK8Vector3f
nfk:_emscripten_glClearStencil__wrapper
Hnj:__ZN15dense_hashtableINSt3__24pairIK10KeyWrapperIPK11Il2CppClassEPKcEES6_N6il2cpp5utils11PointerHashIS3_EEN14dense_hash_mapIS6_S9_SE_NS6_14EqualsComparerINS0_8equal_toIS5_EEEENS0_9allocatorISA_EEE9SelectKeyESJ_SL_E12resize_deltaEjj
m4j:__ZNK10__cxxabiv120__si_class_type_info27has_unambiguous_public_baseEPNS_19__dynamic_cast_infoEPvi
X7j:_glTexSubImage3D__wrapper
I0f:_FactoryCache_Add_m2602974721
ura:__Z30AddDefaultStreamsToMeshBuffersR9GfxDeviceR11MeshBuffersj17ShaderChannelMaskS3_
l6:__ZL16GetInterfaceImpl18UnityInterfaceGUID
zVe:_RegionInfo_construct_internal_region_from_name_m3316088619
yij:__ZN6il2cpp2vmL17SetupFieldOffsetsENS0_15FieldLayoutKindEP11Il2CppClassjRKNSt3__26vectorIjNS4_9allocatorIjEEEE
gff:_List_1_System_Collections_IList_get_Item_m936612973_gshared
NSj:__ZN6il2cpp6icalls8mscorlib6System15MonoCustomAttrs27GetCustomAttributesInternalEP12Il2CppObjectP20Il2CppReflectionTypeb
ubd:_UNITY_TT_Set_MM_Blend
O4:__GLOBAL__sub_I_runtime_math_random_0_cpp
H8f:_ObjectReader_ReadAssembly_m869834280
iPi:_Sprite_INTERNAL_get_textureRect_m127050026
FQb:__ZN14PreloadManager35WaitForAllAsyncOperationsToCompleteEv
kyf:_Collection_1_IsSynchronized_m971497175_gshared
PLd:_ExecuteEvents_Execute_m1617536317
dSh:_Text_get_cachedTextGeneratorForLayout_m1357670532
GR:__ZL31InitializeAudioScriptingClassesv
CVb:__Z14SortGUIByDepthP10GUIElementS0_
sZe:_NumberFormatter_NumberToString_m126384393
Obk:_emscripten_glVertexAttrib4fv__wrapper
k3f:_LogicalCallContext__ctor_m3173272863
_H:__ZN12_GLOBAL__N_120ProcessRootMotionMixER33AnimationPlayableEvaluationOutputR35AnimationPlayableEvaluationConstantR32AnimationPlayableEvaluationInputS1_f
Wfj:_CustomEventData_AddChar_m2955651223
w7e:_MonoCustomAttrs__cctor_m2608447972
_Xe:_Int32_FindSign_m3803672540
Pnh:__Z92RuntimeInvoker_Void_t1841601450_DateTime_t693205669_DateTime_t693205669_TimeSpan_t3430258949PFvvEPK10MethodInfoPvPS4_
xvb:__ZNK20LocalFileSystemPosix21GetAvailableDiskSpaceEPKcRy
u5:__ZNSt3__26__treeIiNS_4lessIiEENS_9allocatorIiEEE7destroyEPNS_11__tree_nodeIiPvEE
JLf:_CipherSuite_InitializeCipher_m229247572
pZf:_X509Certificate2__ctor_m1095336775
jka:__ZNK9GfxDevice14GetWorldMatrixEv
Rgh:_MonoProperty_GetGetMethod_m1100580870
Ntb:__Z19scripting_array_new17ScriptingClassPtrjj
sW:__ZN11SoundHandle13CreateChannelEb
b4a:__ZN14SafeBinaryRead21TransferSTLStyleArrayI13dynamic_arrayI12LightmapDataLj4EEEEvRT_17TransferMetaFlags
oUe:_ArgumentException__ctor_m3312963299
Pob:__ZNSt3__26vectorIN9ShaderLab20SerializedSubProgram16TextureParameterENS_9allocatorIS3_EEE6assignIPS3_EENS_9enable_ifIXaasr21__is_forward_iteratorIT_EE5valuesr16is_constructibleIS3_NS_15iterator_traitsISA_E9referenceEEE5valueEvE4typeESA_SA_
lmj:__ZN13Il2CppHashMapIN6il2cpp5utils13dynamic_arrayIPK10Il2CppTypeLj4EEEPFvvENS0_8metadata19Il2CppSignatureHashENS9_22Il2CppSignatureCompareENSt3__29allocatorINSC_4pairIK10KeyWrapperIS6_ES8_EEEEEC2EjRKSA_RKSB_
M9i:_U3CCreateWhereIteratorU3Ec__Iterator1D_1_MoveNext_m3533253043_gshared
LBj:__ZN15dense_hashtableINSt3__24pairIK10KeyWrapperIPK22Il2CppGenericParameterEPK24MonoGenericParameterInfoEES6_N6il2cpp5utils11PointerHashIS4_EEN14dense_hash_mapIS6_SA_SF_NS6_14EqualsComparerINS0_8equal_toIS5_EEEENS0_9allocatorISB_EEE9SelectKeyESK_SM_E15set_deleted_keyERKSB_
yac:__ZN6prcoreL11inner_clearILj2EEEvPhjjj
l0f:_X509SubjectKeyIdentifierExtension__ctor_m3887138480
Mbf:_Enumerator_System_Collections_IEnumerator_get_Current_m2853089017_AdjustorThunk
gNc:__ZN12b2WheelJoint24SolvePositionConstraintsERK12b2SolverData
Mg:_emscripten_exit_fullscreen
JYd:_InputField_get_mesh_m3276583786
rmi:_GCHandle_Free_m1639542352_AdjustorThunk
s3c:_sfnt_done_face
LOj:__ZN6il2cpp6icalls8mscorlib6System6String19InternalAllocateStrEi
cJc:__Z29Transfer_Blittable_ArrayFieldI8JSONRead11QuaternionfEvRT_R9ArrayInfoRK23StaticTransferFieldInfo
krc:__Z45Register_UnityEngine_Camera_get_targetDisplayv
$gc:__ZNK24RendererAnimationBinding15GenerateBindingERKN4core12basic_stringIcNS0_20StringStorageDefaultIcEEEEbRN11UnityEngine9Animation14GenericBindingE
oUa:__Z15GetFlareManagerv
Ari:_Enumerator_System_Collections_IEnumerator_get_Current_m1429268283
fAf:_ReadOnlyCollection_1_System_Collections_Generic_ICollectionU3CTU3E_Clear_m388357963_gshared
A0j:___toread
NOb:__ZNSt3__26vectorI10vector_mapIiiNS_4lessIiEE13stl_allocatorINS_4pairIiiEEL18MemLabelIdentifier38ELi16EEES4_IS9_LS7_38ELi16EEE26__swap_out_circular_bufferERNS_14__split_bufferIS9_RSA_EE
P4j:___cxa_is_pointer_type
Ofj:_UnityAnalyticsHandler_InternalCreate_m427483392
ZHd:_String_Concat_m56707527
aI:__ZN7mecanim9animation16EvaluateAvatarDXEPKNS0_14AvatarConstantEPKNS0_11AvatarInputEPNS0_12AvatarMemoryEPNS0_15AvatarWorkspaceEPNS0_12AvatarOutputE
lya:__ZN4gles20DestroyRenderSurfaceEP7ApiGLESP17RenderSurfaceGLES
Lbf:_Enumerator_System_Collections_IEnumerator_get_Current_m2853089017_gshared
Bwc:__Z34Transform_CUSTOM_SetAsFirstSiblingP12Il2CppObject
AFa:__ZN17PersistentManager40GlobalToLocalSerializedFileIndexInternalERK26SerializedObjectIdentifier
p$:__ZN11UnityEngine15CloudWebService17SessionEventQueue14ParseEventDataERKN4core12basic_stringIcNS2_20StringStorageDefaultIcEEEE
zJd:_BaseEventData_get_selectedObject_m3551206992
cLe:_SimpleCollator_CompareOrdinal_m2176988387
dse:_CCGregorianCalendar_GetYear_m1289900195
qZe:_Int16_ToString_m2592645088
spa:__ZN13TranslateGLES4InitERK12GraphicsCaps16GfxDeviceLevelGL
aag:_SerializationInfoEnumerator_Reset_m2206466680
iak:_emscripten_glGetShaderPrecisionFormat__wrapper
hod:__Z32CustomEventData_CUSTOM_AddUInt32P12Il2CppObjectP12Il2CppStringj
F1i:_GenericEqualityComparer_1_Equals_m1934771410_gshared
RZj:__ZN6il2cpp5utils9Exception26FormatInvalidCastExceptionEPK11Il2CppClassS4_
Tec:__ZN13ProduceHelperI10TagManagerLb0EE7ProduceE18MemLabelIdentifier18ObjectCreationMode
u_j:__ZN6il2cpp2os6Memory12AlignedAllocEjj
jUj:__ZN6il2cpp8metadataL7CompareEPK10Il2CppTypeS3_
a8g:_TypeBuilder_get_is_created_m736553860
oKf:_RSAManaged__ctor_m1370411656
fKb:__Z18Transfer_BlittableI18StreamedBinaryReadILb0EELb1E10ColorRGBAfEvRK29SerializationCommandArgumentsR31RuntimeSerializationCommandInfo
OKi:_PropertyName_op_Equality_m112228798
$oc:__ZL27GetComponentsImplementationILb0ELi0EEbR10GameObjectbRK17CompareParametersRK39GetComponentsImplementation_ReturnValue
tNb:__ZN9Scripting36IsSystemCollectionsGenericDictionaryE17ScriptingClassPtr
ZMh:_Raycast3DCallback_EndInvoke_m3234280377
kSd:_ColorTweenCallback__ctor_m3619686788
Tba:__ZL16ReadTypeTreeImplILb0EEbR8TypeTreeRK16TypeTreeIteratorRPKhS6_i
tM:__ZN25RuntimeAnimatorControllerD2Ev
aE:__ZN27AnimationLayerMixerPlayable16SetLayerMaskCopyEjRKN7mecanim6bitsetILj70EEEPKNS0_8skeleton12SkeletonMaskE
NXa:__ZNK22BuiltinResourceManager21GetResourceInstanceIDEPKN5Unity4TypeERKN4core12basic_stringIcNS4_20StringStorageDefaultIcEEEE
Ysc:__Z42Register_UnityEngine_RectOffset_set_bottomv
Y8d:_ArrayListWrapper_IndexOf_m3574835167
HXb:__ZN28LightProbeProxyVolumeContext8CopyFromERKS_
pOa:__ZN23TransformChangeDispatch32QueueTransformChangeIfHasChangedER18TransformHierarchy
mya:__ZN7ApiGLES18DeleteRenderbufferERj
Swa:__ZL23ProgramUniformMatrix4fvPK7ApiGLESjiihPKv
yya:__ZN7ApiGLES13CreateTextureEjj14GraphicsFormatiiiii
xob:__ZN9ShaderLab20SerializedSubProgram15MatrixParameter8TransferI14SafeBinaryReadEEvRT_
bpc:__ZL27GetComponentsImplementationILb0ELi1EEbR10GameObjectbRK17CompareParametersRK39GetComponentsImplementation_ReturnValue
Bad:_Round_Down_To_Grid
Tgg:_UTF8Decoder__ctor_m1460357288
yoa:__ZN13RenderTexture7ReleaseEv
BGc:__Z18Transfer_BlittableI8JSONReadLb1EN4math12int3_storageEEvRK29SerializationCommandArgumentsR31RuntimeSerializationCommandInfo
Ybb:__ZN10MeshFilter23VirtualRedirectTransferER14SafeBinaryRead
mfe:_Convert_ToByte_m1201588964
gcb:__ZN12MeshRenderer17MainThreadCleanupEv
JBa:__ZN22CreateGpuProgramOutput12CreateParamsEv
QS:__ZN10ObjectPoolIN4FMOD7ChannelENS0_8ChannelIEE7GetFreeEi
Gwg:__ZL55EventBuilder_t2927243889_CustomAttributesCacheGeneratorP21CustomAttributesCache
ipa:__ZNK14GfxContextGLES13GetDefaultFBOEv
zve:_Array_InternalArray__ICollection_Remove_TisSByte_t454417549_m2474211570_gshared
YPb:__ZN14GraphicsHelper5ClearE13GfxClearFlagsRK10ColorRGBAffjR17ShaderPassContext
kNi:_RectTransform_set_anchorMax_m1168582032
_kc:__Z13GetImagePixelI10ColorRGBAfET_PKhii13TextureFormat15TextureWrapModeS5_ii
ftj:_il2cpp_class_is_enum
lFj:__ZN6il2cpp2vm6Thread49CheckCurrentThreadForInterruptAndThrowIfNecessaryEv
xRa:__ZNSt3__23mapIN9ShaderLab16FastPropertyNameEN18UnityPropertySheet11UnityTexEnvENS_4lessIS2_EENS_9allocatorINS_4pairIKS2_S4_EEEEEixERS9_
Cxa:__ZNK13TranslateGLES25GetTextureTargetDimensionEj
KZd:_InputField_SetToCustom_m250029371
ADe:_Array_InternalArray__set_Item_TisByte_t3683104436_m1694926640_gshared
nsi:_PatternCompiler_EmitInfo_m597931026
FHf:_ModulusRing_Multiply_m3113924743
Svc:__Z47Texture2D_CUSTOM_INTERNAL_CALL_GetPixelBilinearP12Il2CppObjectffR10ColorRGBAf
M7:__ZN9Scripting12LogExceptionE21ScriptingExceptionPtriPKcb
Wej:_Collision2D_get_gameObject_m1296200797
Mi:_emscripten_glVertexAttrib4f
Lzf:_ReadOnlyCollection_1_System_Collections_IEnumerable_GetEnumerator_m531171980_gshared
vrb:__ZNSt3__26vectorIN20GpuProgramParameters14ConstantBufferENS_9allocatorIS2_EEE8__appendEj
QMi:_RectOffset__ctor_m976836251
bGe:_Array_Sort_TisUILineInfo_t3621277874_m3105833015_gshared
mff:_List_1_AddEnumerable_m2489692396_gshared
bD:__ZN7mecanim12statemachine24CreateStateMachineMemoryEPKNS0_20StateMachineConstantERNS_6memory9AllocatorE
rYh:_Enumerator_get_Current_m419581838_AdjustorThunk
Mma:__ZN9GfxDevice18SetGlobalDepthBiasEff
mqj:__ZN6il2cpp6icalls8mscorlib6System8MonoType12get_AssemblyEP20Il2CppReflectionType
sLi:_Vector3_get_normalized_m1057036856
_i:_emscripten_glGetPointerv
QH:__ZN8Animator22ApplyBuiltinRootMotionEv
lQb:__Z26ApplyMaterialPassWithCacheRK18SharedMaterialDataR17ShaderPassContextP6ShaderPN9ShaderLab4PassEibPKNS6_10GrabPassesEPNS6_11SubProgramsEPK22DeviceRenderStateBlock
ngj:_CustomEventData_InternalDestroy_m3784703600
bve:_Array_InternalArray__ICollection_Remove_TisKeyValuePair_2_t3716250094_m2566517826_gshared
hJj:__ZN30dense_hashtable_const_iteratorINSt3__24pairIK10KeyWrapperIP14Il2CppIUnknownEjEES5_N6il2cpp5utils11PointerHashIS3_EEN14dense_hash_mapIS5_jSB_NS5_14EqualsComparerINS0_8equal_toIS4_EEEENS0_9allocatorIS7_EEE9SelectKeyESG_SI_EppEv
g6a:__ZN8Renderer23VirtualRedirectTransferER14SafeBinaryRead
e9g:_DerivedType_get_UnderlyingSystemType_m3904230233
kWa:__Z27ConvertSubMeshesToTrianglesR13dynamic_arrayI7SubMeshLj4EERS_ItLj2EE
tij:__ZN6il2cpp2vmL15GetBitmapNoInitEP11Il2CppClassPjRjj
P_f:_X509Certificate2Collection__ctor_m819526826
mR:__ZN12AudioManager5ResetEv
cKh:__Z75RuntimeInvoker_RuntimeObject_Single_t2076509932_RuntimeObject_RuntimeObjectPFvvEPK10MethodInfoPvPS4_
SIf:_KeyBuilder_Key_m3814433741
pUe:_ArgumentException__ctor_m158205422
rye:_Array_compare_TisVector3_t2243707580_m3709184876_gshared
mXd:_HorizontalLayoutGroup_SetLayoutHorizontal_m3237355818
Bva:__ZN6prcoreL17RemapGenericFloatI17TexFormatRGBAHalf15TexFormatRGHalfEEvPKNS_9InnerInfoE
ZPj:__ZN6il2cpp6icalls8mscorlib6System11Environment20GetWindowsFolderPathEi
p3g:__ZL60AspectRatioFitter_t3114550109_CustomAttributesCacheGeneratorP21CustomAttributesCache
RB:__ZN7mecanim5human18HumanPoseBlendNodeERNS0_9HumanPoseEPS1_f
F1c:_UNITY_FT_RoundFix
Erb:__ZN9ShaderLab20SerializedSubProgram15AddTextureParamEPKcii16TextureDimension
Av:__Z14resize_trimmedINSt3__26vectorI24CompressedAnimationCurve13stl_allocatorIS2_L18MemLabelIdentifier26ELi16EEEEEvRT_j
mwi:_Uri_get_Parser_m2250631932
icb:__ZNK12MeshRenderer22GetTypeVirtualInternalEv
pVd:_Graphic_set_color_m646149893
C_a:__ZN14SafeBinaryRead19TransferSTLStyleMapINSt3__23mapIN4core12basic_stringIcNS3_20StringStorageDefaultIcEEEES7_NS1_4lessIS7_EE13stl_allocatorINS1_4pairIKS7_S7_EEL18MemLabelIdentifier1ELi16EEEEEEvRT_17TransferMetaFlags
qjd:__ZN2UI6Canvas27UpdateEventIndexesRecursiveERi
yA:__ZN7mecanim9animation18EvaluateRootMotionERKNS0_18ClipMuscleConstantERKNS0_15ClipMuscleInputEPKfS8_RNS0_12MotionOutputEb
v$:__ZN11UnityEngine15CloudWebService16SessionContainer21PrepareDataErrorEventERN4core12basic_stringIcNS2_20StringStorageDefaultIcEEEE
f2c:_UNITY_FT_Outline_New
mGb:__Z19TransferField_ArrayI19StreamedBinaryWriteILb0EE27Converter_SimpleNativeClassI8GUIStyleEEvRK23StaticTransferFieldInfoR31RuntimeSerializationCommandInfoRT0_
jOh:_Scrollbar_SetDirection_m3264558284
wck:_emscripten_glCopyTexSubImage2D__wrapper
ZWj:_maybe_finalize
lKi:_PlayableHandle_IsValidInternal_m3315870994
_6f:_RemotingServices_RegisterInternalChannels_m1827304423
pGc:__Z35Transfer_Blittable_FixedBufferFieldI8JSONReadiEvRK29SerializationCommandArgumentsR31RuntimeSerializationCommandInfo
ppj:__ZNSt3__213__vector_baseIN6il2cpp2os19SocketHandleWrapperENS_9allocatorIS3_EEED2Ev
FDi:_LayerMask_NameToLayer_m3213714080
Luh:__Z77RuntimeInvoker_RuntimeObject_Int32_t2071877448_RuntimeObject_SByte_t454417549PFvvEPK10MethodInfoPvPS4_
hc:invoke_viiffi
xVe:_RegionInfo_GetByTerritory_m3452395101
Q6b:__ZN13sorted_vectorINSt3__24pairIN4core12basic_stringIcNS2_20StringStorageDefaultIcEEEEPK17MessageIdentifierEEN10vector_mapIS6_S9_NS0_4lessIS6_EENS0_9allocatorISA_EEE13value_compareESF_E10insert_oneERKSA_
dig:_Thread_GetCachedCurrentUICulture_m5590127
OUi:_GUILayoutEntry_get_margin_m3913640621
ppb:__Z14resize_trimmedINSt3__26vectorIN9ShaderLab18SerializedPropertyENS0_9allocatorIS3_EEEEEvRT_j
Unf:_List_1_CheckMatch_m4018158235_gshared
FLe:_Context_t2636657155_marshal_pinvoke_back
pnj:__ZN6il2cpp2vm13MetadataCache38GetMethodInfoFromMethodDefinitionIndexEi
y5d:_Byte_System_IConvertible_ToDateTime_m1583041031
e5i:__ZL24UnresolvedVirtualCall_68P12Il2CppObjectS0_iS0_S0_S0_S0_S0_S0_PK10MethodInfo
m8a:__ZN10VertexData8TransferI24GenerateTypeTreeTransferEEvRT_
lRj:__ZN13Il2CppHashMapIPK19Il2CppGenericMethodP10MethodInfoN6il2cpp8metadata23Il2CppGenericMethodHashENS6_26Il2CppGenericMethodCompareENSt3__29allocatorINS9_4pairIK10KeyWrapperIS2_ES4_EEEEEC2EjRKS7_RKS8_
u5h:_EqualityComparer_1_System_Collections_IEqualityComparer_Equals_m1089835085_gshared
M1b:__ZL10CullLightsRK22SceneCullingParametersR11CullResults
vUd:_Dropdown__cctor_m264401557
z2d:_Array_IndexOf_m2819632474
ELi:_Ray_GetPoint_m2427899009_AdjustorThunk
iki:_Comparer_1__cctor_m3996541505_gshared
YC:__ZN7mecanim12statemachine20GetBlendTreeConstantERKNS0_13StateConstantEi
E9b:__Z40GetTemporaryCachePathApplicationSpecificv
Tka:__ZN9GfxDevice16EndAsyncJobFrameEv
v3c:_UNITY_tt_face_load_hhea
Mee:_Convert_ToBase64String_m1936815455
Vk:___syscall3
Yk:___syscall6
_k:___syscall4
joe:_Decimal_ToString_m759431975
swb:__ZNSt3__26__treeINS_12__value_typeIN4core12basic_stringIcNS2_20StringStorageDefaultIcEEEEPN16MemoryFileSystem4NodeEEENS_19__map_value_compareIS6_SA_NS_4lessIS6_EELb1EEE13stl_allocatorISA_L18MemLabelIdentifier55ELi16EEE7destroyEPNS_11__tree_nodeISA_PvEE
aQd:_ColorBlock_get_fadeDuration_m987725262
Kbg:_CryptographicException__ctor_m2415891459
aUc:__ZNSt3__26__sortIR24RayHitsByDepthComparitorP12RaycastHit2DEEvT0_S5_T_
IJc:__ZN27PerformanceReportingManager23VirtualRedirectTransferER14SafeBinaryRead
ela:__ZN9GfxDevice27UpdateComputeSkinPoseBufferE15ComputeBufferIDP12SkinMeshInfo
ol:_emscripten_glShaderBinary
B1d:_Array_InternalArray__RemoveAt_m1126483634
pvb:__ZNK20LocalFileSystemPosix6ExistsERK13FileEntryData
bUi:_GUI_CallWindowDelegate_m2603162942
TUf:_DictionaryNodeEnumerator_get_DictionaryNode_m3521889822
Yz:__ZN7mecanim5human19MaskHasLeftFootGoalERKNS_6bitsetILj70EEE
yEh:__Z101RuntimeInvoker_Int32_t2071877448_RuntimeObject_Color32_t874517518_Int32_t2071877448_Int32_t2071877448PFvvEPK10MethodInfoPvPS4_
Mmd:__Z58Register_UnityEngine_Canvas_GetETC1SupportedCanvasMaterialv
LIb:__ZN17AnimationCurveTplIfE8TransferI18StreamedBinaryReadILb1EEEEvRT_
lme:_DateTimeOffset_GetHashCode_m3312197462_AdjustorThunk
Tqd:__ZN18UnityConnectClientD2Ev
xsj:_il2cpp_set_data_dir
hwi:_Uri_get_IsUnc_m2111738174
Ddh:_TypeBuilder_IsValueTypeImpl_m1499671481
Xpd:__ZN11UnityEngine15PlatformWrapper30GetGraphicsDriverLibraryStringEv
_Jf:_EncryptedPrivateKeyInfo_Decode_m1706190306
gKb:__Z18Transfer_BlittableI18StreamedBinaryReadILb0EELb0E4AABBEvRK29SerializationCommandArgumentsR31RuntimeSerializationCommandInfo
r3i:_AudioListener_ClearExtensionProperties_m2267088681
HM:__ZN16MecanimAnimation24DeleteAnimatedPropertiesERP26IAnimatedPropertyEvaluator
fje:_Convert_ToUInt16_m1665900934
wVe:_RegionInfo__ctor_m2058831971
VTb:__Z14DrawGUITextureRK5RectTIfEP7Texture11ColorRGBA32P8Materiali
kSh:_Text_get_supportRichText_m3291105891
DG:__ZN9BlobWrite8TransferI22OffsetPtrArrayTransferIKN4math7_float4EEEEvRT_PKc17TransferMetaFlags
P$d:_LayoutElement_set_ignoreLayout_m1530090081
UVi:_GUIUtility_set_systemCopyBuffer_m3458871692
TQc:__ZNK11b2EdgeShape7RayCastEP15b2RayCastOutputRK14b2RayCastInputRK11b2Transformi
xri:_MatchCollection_GetEnumerator_m3516985966
_Fc:__ZN9JSONWrite8TransferI4AABBEEvRT_PKc17TransferMetaFlags
geg:_UTF7Encoding__ctor_m2365939916
ZKa:__ZN25MultiBlocksMemoryFileData9SetLengthEy
$dj:_Animator_SetTrigger_m2003713590
mAi:_DelegatePInvokeWrapper_StateChanged_t2480912210
WKh:_MatEntry__ctor_m3650167335
CKc:__ZN10Collider2D13AwakeFromLoadE17AwakeFromLoadMode
r2a:__ZNK9Texture2D20GetRuntimeMemorySizeEv
Ylg:_TypeInitializationException__ctor_m2993591639
iCc:__ZN5Unity9rapidjson13GenericReaderINS0_4UTF8IcEES3_13JSONAllocatorE9ParseTrueILj0ENS0_19GenericStringStreamIS3_EENS0_15GenericDocumentIS3_S4_S4_EEEEvRT0_RT1_
wm:_emscripten_glUniform2iv
wXe:_Int16_System_IConvertible_ToInt64_m733340257
a0c:_UNITY_FT_Outline_Transform
Mvc:__Z60Register_UnityEngine_Sprites_DataUtility_Internal_GetMinSizev
Mij:__ZN6il2cpp2vm5Class10GetMethodsEP11Il2CppClassPPv
BZb:__Z30AddDefaultStreamsToMeshBuffersR9GfxDeviceR11MeshBuffersRK16DrawBuffersRange17ShaderChannelMaskS6_
Rxa:__ZN7ApiGLES17DeleteFramebufferERN2gl6HandleILNS0_10ObjectTypeE9EEES3_
MAa:__ZN15UniformTFMethod13MapBoneBufferEj
lNf:_RecordProtocol_SendAlert_m2816808523
hid:__ZN2UI14CanvasRendererD2Ev
N3f:_MethodCall_get_LogicalCallContext_m3769562079
MFj:__ZN6il2cpp6icalls8mscorlib6System5Array8SetValueEP11Il2CppArrayP12Il2CppObjectS5_
B5e:_SynchronizedReader_Read_m1399666181
ufh:_MonoEvent_get_Name_m2796714646
fPb:__Z9SetupArgviPPKc
Kdj:_AnimationOffsetPlayable__ctor_m1644499845
ZMd:_PointerEventData_set_worldNormal_m2025727441
WQi:_Transform_INTERNAL_get_worldToLocalMatrix_m2822011810
sOf:_Context_get_SentConnectionEnd_m3114190867
r1a:__ZN12CubemapArray23VirtualRedirectTransferER24GenerateTypeTreeTransfer
xca:__ZN12FileAccessor4OpenER15FileSystemEntry14FilePermission16FileAutoBehavior
O2i:_AudioSource_get_spatializeInternal_m4243931620
qZc:__ZL12PhysxJobFuncPN5physx10PxBaseTaskE
w5a:__ZN23TransformChangeDispatch32QueueTransformChangeIfHasChangedERK15TransformAccess
CMd:_PointerEventData_set_clickTime_m3931922487
Cba:__ZN15dense_hashtableINSt3__24pairIKiP4RTTIEEiN11TypeManager27HashFunctorPersistentTypeIDEN14dense_hash_mapIiS4_S7_NS0_8equal_toIiEE13stl_allocatorIS5_L18MemLabelIdentifier7ELi16EEE9SelectKeyESA_SD_E12maybe_shrinkEv
IYe:_NumberFormatter_AppendNonNegativeNumber_m629862866
X$a:__ZNSt3__26vectorINS_4pairIN9ShaderLab16FastPropertyNameEN18UnityPropertySheet11UnityTexEnvEEENS_9allocatorIS6_EEE21__push_back_slow_pathIKS6_EEvRT_
lli:_ResourceInfo__ctor_m2401359321_AdjustorThunk
VPj:__ZN6il2cpp2os26LibraryNamePrefixAndSuffixC2EPKcS3_
ZDe:_Array_InternalArray__set_Item_TisMonoResource_t3127387157_m732733855_gshared
OYi:_UnityEvent_1_Invoke_m1599856953_gshared
Ube:_Hashtable__ctor_m392789568
dgg:_UTF7Encoding__cctor_m4192443836
B:tempValue
WAi:_Display_get_systemHeight_m3140485477
AXe:_Int16_System_IConvertible_ToSingle_m3277935657
o8:__Z29scripting_class_from_fullnamePKcS0_S0_
qSi:_Vector3_get_sqrMagnitude_m1445517847_AdjustorThunk
XMh:_Raycast3DCallback_Invoke_m2271859924
xD:__ZN26AnimatorControllerPlayable18DeallocateBindingsEv
JW:__ZN11AudioSource19CreateOpenALRolloffEfff
i4c:_UNITY_FT_Stream_ReadAt
JUh:_Enumerator_get_CurrentKey_m2387752419_AdjustorThunk
Amj:__ZN15dense_hashtableINSt3__24pairIK10KeyWrapperIN6il2cpp5utils13dynamic_arrayIPK10Il2CppTypeLj4EEEEPFvvEEESA_NS3_8metadata19Il2CppSignatureHashEN14dense_hash_mapISA_SD_SG_NSA_14EqualsComparerINSF_22Il2CppSignatureCompareEEENS0_9allocatorISE_EEE9SelectKeyESK_SM_E9set_valueEPSE_RKSE_
TBi:_UnityEventBase_FindMethod_m2780816114
amg:_UInt16_System_IConvertible_ToBoolean_m887616848
vX:__ZN11AudioModule22CreateAudioClipFromWWWEP10IWWWStreamPKcbbi
Ueg:_StringBuilder_set_Length_m3039225444
iwf:_Collection_1_System_Collections_IList_Contains_m3870109702_gshared
Fue:_Array_InternalArray__ICollection_Contains_TisRaycastResult_t21186376_m3188614988_gshared
Qje:_CultureAwareComparer_GetHashCode_m3681260951
qkd:__Z13RegisterClassIN2UI11CanvasGroupEEvv
Aac:__ZN6prcoreL11inner_clearILj4EEEvPhjjj
tf:_emscripten_glClear
eNh:_Selectable__ctor_m1440593935
OWj:_GC_initialize_offsets
Lfa:__ZNK8Playable6HandleEv
zaa:__ZN14MessageHandler28MessageIDToMessageIdentifierEi
hWf:_HttpRequestCreator_Create_m3607509610
I8a:__ZNK11SpriteAtlas20GetRuntimeRenderDataEPK6Sprite
pYj:__ZN6il2cpp2vm10WaitHandle19NewManualResetEventEb
_Bf:_ReadOnlyCollection_1_System_Collections_IList_Contains_m3707723158_gshared
i0c:__ZN20TextRenderingPrivate15DynamicFontData36GetFaceForCharacterIfAvailableInFontERKNS_7FontRefERK13dynamic_arrayI4PPtrIN13TextRendering4FontEELj4EEj
z3i:_AudioExtensionManager_GetReadyToPlay_m3272224102
tB:__ZN7mecanim14ValueArrayCopyILb0EEEvPKNS_10ValueArrayEPS1_
IO:__Z51Register_UnityEngine_Animator_get_hasBoundPlayablesv
baj:_Nullable_1_ToString_m1238126148_AdjustorThunk
Kd:emscriptenWebGLGetUniform
Co:FUNCTION_TABLE_iiiiiiiiiii
r3b:__ZL10CleanUpJobP20CullingGroupsJobData
i7d:_Char_CompareTo_m3044885427_AdjustorThunk
F1e:_FileStream_GetSecureFileName_m508045384
Kei:_InternalEnumerator_1_System_Collections_IEnumerator_get_Current_m2035754659_AdjustorThunk
MTb:__ZN13RenderManager15BatchModeUpdateEv
Q7a:__ZN14SafeBinaryRead21TransferSTLStyleArrayI13dynamic_arrayI8Vector2fLj4EEEEvRT_17TransferMetaFlags
zFa:__ZN17PersistentManager51InstanceIDToLocalSerializedObjectIdentifierInternalEiR31LocalSerializedObjectIdentifier
uPc:__ZN10ClipperLib7Clipper15SetWindingCountERNS_5TEdgeE
d9c:_UNITY_FT_Create_Class_cff_services
nd:_glVertexAttribIPointer
Zwd:_HMAC_set_HashName_m457235014
slc:__ZNK6Sprite10GetPaddingE20SpriteRenderDataMode
Phj:__ZN6il2cpp2vm5Class11GetPtrClassEPK10Il2CppType
Ote:_Array_InternalArray__ICollection_Contains_TisTableRange_t2011406615_m605506746_gshared
R_h:_Dictionary_2_Add_m1296007576_gshared
Pie:_Decimal_op_Explicit_m729046406
Ubg:_CryptoConfig_CreateFromName_m2169102076
PVd:_Graphic_OnEnable_m2900261811
Xbg:_CryptographicUnexpectedOperationException__ctor_m3552441227
wXb:__ZN14qsort_internal5QSortIP15RODataDepthPassi17ROSorterDepthPassEEvT_S4_T0_T1_
U8d:_ArrayListWrapper_Clear_m321161741
P_d:_InputField_LineDownCharacterPosition_m2690468785
h4c:_UNITY_ft_glyphslot_alloc_bitmap
fGe:_Array_Sort_TisVector2_t2243707579_TisVector2_t2243707579_m2582252549_gshared
aog:_UInt64_System_IConvertible_ToDouble_m2828923873
Tjf:_List_1_System_Collections_IList_set_Item_m1129584681_gshared
E5c:_ft_raster1_render
xxc:__Z47Register_UnityEngine_Mesh_RecalculateBoundsImplv
Kff:_List_1_set_Capacity_m491101164_gshared
w3j:__ZNKSt3__221__basic_string_commonILb1EE20__throw_length_errorEv
rfg:_StringBuilder_Insert_m1733097906
$Sf:_SslStreamBase_get_HashStrength_m480059173
Eya:__ZN18GfxFramebufferGLES13ReadbackImageER14ImageReferenceiiiiii
MCc:__ZN5Unity9rapidjson6WriterI16TempBufferWriterNS0_4UTF8IcEES4_13JSONAllocatorE11WriteStringEPKcj
$Yh:_ValueCollection_System_Collections_Generic_ICollectionU3CTValueU3E_Clear_m3271993638_gshared
xee:_Enumerator_MoveNext_m1419609883
yS:__ZN4FMOD7Channel19setReverbPropertiesEPK29FMOD_REVERB_CHANNELPROPERTIES
Z9:__ZN13MonoBehaviour22GetScriptFullClassNameEv
pLi:_RangeInt_get_end_m480861812
qWf:_ServicePointManager_FindServicePoint_m3137356168
cNb:__ZN13MonoBehaviour9CallAwakeEv
fYa:__ZN20SphericalHarmonicsL211AddWeightedERKS_f
pNd:_PointerInputModule_GetPointerData_m1695674453
mqh:__Z90RuntimeInvoker_Void_t1841601450_RuntimeObject_RuntimeObject_RuntimeObject_SByte_t454417549PFvvEPK10MethodInfoPvPS4_
rCb:__Z19TransferField_ArrayI17RemapPPtrTransfer27Converter_SimpleNativeClassI8GUIStyleEEvRK23StaticTransferFieldInfoR31RuntimeSerializationCommandInfoRT0_
Lje:_Convert_ToUInt64_m345450801
eaj:_Predicate_1_BeginInvoke_m2559992383_gshared
sDc:__ZN9JSONWrite8TransferI10ColorRGBAfEEvRT_PKc17TransferMetaFlags
taa:__Z25scripting_method_get_name18ScriptingMethodPtr
KAb:__Z19TransferField_ArrayI14SafeBinaryRead16Converter_StringEvRK23StaticTransferFieldInfoR31RuntimeSerializationCommandInfoRT0_
R2j:_rename
QWj:_GC_exit_check
v9e:_NotSupportedException__ctor_m3232764727
yu:__ZN7mecanim9animation9DenseClip8TransferI14SafeBinaryReadEEvRT_
JVf:_TypeConverterAttribute_Equals_m2330345916
lvh:__Z90RuntimeInvoker_Boolean_t3825574718_Int32_t2071877448_Int32U26_t455636984_Int32_t2071877448PFvvEPK10MethodInfoPvPS4_
uZf:_X509Certificate2_get_NotAfter_m3430171627
idi:_InternalEnumerator_1_System_Collections_IEnumerator_get_Current_m1038263751_gshared
d7b:__ZNSt3__26vectorINS_4pairIN4core12basic_stringIcNS2_20StringStorageDefaultIcEEEES6_EE13stl_allocatorIS7_L18MemLabelIdentifier38ELi16EEE6insertENS_11__wrap_iterIPKS7_EERSD_
uG:__ZN9BlobWrite8TransferI22OffsetPtrArrayTransferI9OffsetPtrIN7mecanim12statemachine18StateMachineMemoryEEEEEvRT_PKc17TransferMetaFlags
r2c:_UNITY_ft_smooth_renderer_class_pic_free
Dmf:_List_1_System_Collections_IList_Remove_m3763718607_gshared
kf:_emscripten_glStencilOpSeparate
UGd:_String_Concat_m2000667605
dSj:__ZN6il2cpp2vm6String8NewUtf16EPKDsi
ZOj:__ZN6il2cpp2os10ThreadImpl12QueueUserAPCEPFvPvES2_
Jqd:__ZN22BaseUnityConnectClient10QueueEventERN11UnityEngine15CloudWebService17CloudServiceEventEPKcjb
sBh:__Z71RuntimeInvoker_Bounds_t3033363703_RuntimeObject_Matrix4x4U26_t266301477PFvvEPK10MethodInfoPvPS4_
JJe:_ExecuteEvents_GetEventHandler_TisRuntimeObject_m3333041576_gshared
H1c:_UNITY_FT_Hypot
O3d:_BitConverter_ToInt64_m1329623425
Fec:__ZN8RendererC2E12RendererType18MemLabelIdentifier18ObjectCreationMode
$sj:_il2cpp_class_is_abstract
Df:_emscripten_glGetError
oBj:__ZN15dense_hashtableINSt3__24pairIK10KeyWrapperIPK14Il2CppAssemblyEPK22Il2CppMonoAssemblyNameEES6_N6il2cpp5utils11PointerHashIS4_EEN14dense_hash_mapIS6_SA_SF_NS6_14EqualsComparerINS0_8equal_toIS5_EEEENS0_9allocatorISB_EEE9SelectKeyESK_SM_E14squash_deletedEv
jT:__Z14FMOD_FILE_SeekPvjS_
Q3f:_MethodCall_get_Properties_m1893707917
kWh:_ShimEnumerator_get_Entry_m2387156530_gshared
_mj:__ZN14dense_hash_mapI10KeyWrapperIN6il2cpp5utils13dynamic_arrayIPK10Il2CppTypeLj4EEEEPFvvENS1_8metadata19Il2CppSignatureHashENS8_14EqualsComparerINSB_22Il2CppSignatureCompareEEENSt3__29allocatorINSG_4pairIKS8_SA_EEEEEC2EjRKSC_RKSF_
nod:__Z56Register_UnityEngine_Analytics_CustomEventData_AddStringv
u4b:__ZNK13RenderTexture32CalculateNeedsInvertedProjectionEv
m9b:__ZN10systeminfo18GetOperatingSystemEv
Lf:emscriptenWebGLGet
Mca:__Z19CanReplaceComponentRN5Unity9ComponentEPKNS_4TypeEPN4core12basic_stringIcNS5_20StringStorageDefaultIcEEEE
dgc:__ZN12CubemapArray11InitTextureEiii13TextureFormatb
Onc:__Z17GetSceneBuildInfoRKN4core12basic_stringIcNS_20StringStorageDefaultIcEEEEiR14SceneBuildInfo
zZf:_X509Certificate2_get_SignatureAlgorithm_m3069898012
O_e:_Int64_System_IConvertible_ToSingle_m1678482180
bH:__ZN7mecanim5human13HumanFixTwistEPKNS0_5HumanEPNS_8skeleton13SkeletonPoseTIN4math4trsXEEES9_iiRKf
l_b:__ZL24AssignProjectorQueuesJobP30AssignProjectorQueuesJobHeader
vjg:_TimeSpan_get_Hours_m3804628138
kMj:__ZN14dense_hash_mapI10KeyWrapperIP12Il2CppObjectEN6il2cpp2gc9CachedCCWENS4_5utils11PointerHashIS1_EENS3_14EqualsComparerINSt3__28equal_toIS2_EEEENSB_9allocatorINSB_4pairIKS3_S6_EEEEEC2EjRKS9_RKSE_
Gmj:__ZN15dense_hashtableINSt3__24pairIK10KeyWrapperIN6il2cpp5utils13dynamic_arrayIPK10Il2CppTypeLj4EEEEPFvvEEESA_NS3_8metadata19Il2CppSignatureHashEN14dense_hash_mapISA_SD_SG_NSA_14EqualsComparerINSF_22Il2CppSignatureCompareEEENS0_9allocatorISE_EEE9SelectKeyESK_SM_E4swapERSP_
Brb:__ZN9ShaderLab20SerializedSubProgram14SetConstBufferEPKci
sUe:_ArgumentNullException__ctor_m911049464
aGf:_Comparison_1_Invoke_m345024424_gshared
z7c:_cf2_getStdVW
gDf:_ReadOnlyCollection_1_System_Collections_IList_Insert_m3936197025_gshared
b4:__Z40DebugStringToFilePostprocessedStacktraceRK21DebugStringToFileData
eIc:__Z29Transfer_Blittable_ArrayFieldI8JSONReadjEvRT_R9ArrayInfoRK23StaticTransferFieldInfo
kei:_InternalEnumerator_1_get_Current_m314017974_AdjustorThunk
rg:__setLetterbox
L2e:_MemoryStream__ctor_m1043059966
M4f:__ZN21InterfaceFuncInvoker3IP12Il2CppObjectP6Type_t28StreamingContext_t1417235061PS1_E6InvokeEjP11Il2CppClassS1_S3_S4_S5_
Uab:__ZNSt3__26vectorI17BlendShapeChannelNS_9allocatorIS1_EEE6assignINS_11__wrap_iterIPS1_EEEENS_9enable_ifIXaasr21__is_forward_iteratorIT_EE5valuesr16is_constructibleIS1_NS_15iterator_traitsISA_E9referenceEEE5valueEvE4typeESA_SA_
Y$d:_LayoutElement_set_preferredWidth_m3072758716
CRb:__Z12SetGfxDeviceP9GfxDevice
iYf:_AsnEncodedData_ToString_m724151831
xBi:_Object_CompareBaseObjects_m1461253683
f9b:__ZN11TimeManager11GetRealtimeEv
nWj:_GC_print_block_list
DT:__ZN29AudioEffectInternalDefinitionC2EP26UnityAudioEffectDefinitionb
hfh:_MonoMethodInfo_GetDeclaringType_m4186531677
J5f:_SoapTypeAttribute_SetReflectionObject_m1566293812
L1i:_Enumerator_System_Collections_IEnumerator_Reset_m2573763156_AdjustorThunk
c7f:_RemotingServices_CreateClientProxy_m1631035355
Gog:_UInt64_ToString_m2892887310
EGd:_String_System_IConvertible_ToType_m512800076
sRj:__ZN15dense_hashtableINSt3__24pairIK10KeyWrapperIPK19Il2CppGenericMethodEP10MethodInfoEES6_N6il2cpp8metadata23Il2CppGenericMethodHashEN14dense_hash_mapIS6_S9_SD_NS6_14EqualsComparerINSC_26Il2CppGenericMethodCompareEEENS0_9allocatorISA_EEE9SelectKeyESH_SJ_EC2ERKSM_j
XSc:__ZN24b2ChainAndCapsuleContact6CreateEP9b2FixtureiS1_iP16b2BlockAllocator
dLa:__Z37ReadDirectoryInfo_UnityWebAndUnityRawR12FileAccessorRKN20ArchiveStorageHeader6HeaderERNS1_13DirectoryInfoE
d7:__ZNSt3__26__treeINS_12__value_typeIPKciEENS_19__map_value_compareIS3_S4_15compare_tstringIS3_ELb1EEENS_9allocatorIS4_EEE7destroyEPNS_11__tree_nodeIS4_PvEE
f2h:_Dictionary_2_ToTValue_m1381983709_gshared
n9e:_MulticastDelegate_KPM_m1592985119
nrd:__ZN13dynamic_arrayIN4core12basic_stringIcNS0_20StringStorageDefaultIcEEEELj4EE6assignEPKS4_S7_
bdd:__ZN7Tilemap10SmartResetEv
yJa:__ZN15dense_hashtableINSt3__24pairIKN4core12basic_stringIcNS2_20StringStorageDefaultIcEEEEP20ArchiveStorageReaderEES6_20StringHash32FunctionIS6_EN14dense_hash_mapIS6_S9_SC_NS0_8equal_toIS6_EE13stl_allocatorISA_L18MemLabelIdentifier55ELi16EEE9SelectKeyESF_SI_E5clearEv
ajd:__ZN2UI6Canvas26MarkAllNestedCanvasesDirtyEv
vJj:__ZN6il2cpp2vm12ReboxIfBoxedEP14Il2CppIUnknownP11Il2CppClass
FOb:__ZN25PathNamePersistentManagerD2Ev
N8:__ZN17PersistentManager48IntegrateObjectAndUnlockIntegrationMutexInternalEi
eja:__ZZ29InitializeSortingGroupManagerPvEN44PostLateUpdateSortingGroupsUpdateRegistrator7ForwardEv
wp:__ZN6Object12SetHideFlagsENS_9HideFlagsE
lSc:__ZN9b2Fixture11SynchronizeEP12b2BroadPhaseRK11b2TransformS4_
lak:_emscripten_glGetFramebufferAttachmentParameteriv__wrapper
kUb:__ZN13RendererScene15InitializeUmbraEv
_Wa:__Z28CalculateGlobalMatrixInverse23TransformAccessReadOnly
Mtg:__ZL60SecurityAttribute_t2016950496_CustomAttributesCacheGeneratorP21CustomAttributesCache
kNd:_PointerEventData_ToString_m1218584363
lgg:_UTF7Encoding_GetCharCount_m2589913583
Auj:_AnalyticsSessionInfo_CallSessionStateChanged_m2293069762
B3e:_MemoryStream_CalculateNewCapacity_m3533542025
i$j:__ZN6il2cpp6icalls8mscorlib6System6Object7GetTypeEP12Il2CppObject
kwi:_Uri_Reduce_m2577728307
Vjg:_TimeSpan_Equals_m4102942751_AdjustorThunk
_Yh:_ValueCollection_System_Collections_Generic_ICollectionU3CTValueU3E_Add_m1903672223_gshared
kud:__ZN12HeaderHelper14SetUnvalidatedERKN4core12basic_stringIcNS0_20StringStorageDefaultIcEEEES6_b
EP:__ZN4FMOD6SoundI7releaseEv
Gcb:__ZN14SpriteRenderer13AwakeFromLoadE17AwakeFromLoadMode
HLa:__ZN10MemoryFile9SetLengthEy
bM:__ZN7mecanim10ValueArray8TransferI19StreamedBinaryWriteILb0EEEEvRT_
wEb:__ZN5RectTIiE8TransferI24GenerateTypeTreeTransferEEvRT_
h4a:__ZN14SafeBinaryRead21TransferSTLStyleArrayI13dynamic_arrayI7Hash128Lj8EEEEvRT_17TransferMetaFlags
ENb:__Z28scripting_class_is_interface17ScriptingClassPtr
Hh:_glTexStorage2D
e_a:__ZNK9ShaderLab10SubProgram14EnsureCompiledEv
cih:__Z79RuntimeInvoker_Boolean_t3825574718_RuntimeObject_RuntimeObject_SByte_t454417549PFvvEPK10MethodInfoPvPS4_
A9f:_ObjectManager_RecordFixup_m3572285566
ude:_SortedList_InitTable_m460350503
jaa:__Z18BuildScriptClassId17ScriptingClassPtr
Kai:_InternalEnumerator_1_get_Current_m4279678504_AdjustorThunk
zKa:__ZL31DeleteLastPathNameComponentImplRKN4core12basic_stringIcNS_20StringStorageDefaultIcEEEEPKc
zcc:__Z13RegisterClassI18DelayedCallManagerEvv
Xqd:__ZN18UnityConnectClient15GetCloudServiceEv
FCb:__Z18Transfer_BlittableI24GenerateTypeTreeTransferLb0EiEvRK29SerializationCommandArgumentsR31RuntimeSerializationCommandInfo
jpj:__ZN6il2cpp2os19SocketHandleWrapperD2Ev
BSc:__ZN15b2CircleContact6CreateEP9b2FixtureiS1_iP16b2BlockAllocator
yNb:__ZL28SerializationCommandGroupForRK31TransferFunctionScriptingTraits17ScriptingClassPtr17ScriptingFieldPtrRK20CoreScriptingClasses
IOa:__ZN10TagManager32RegisterDefaultTagsAndLayerMasksEv
Nnj:__ZN15dense_hashtableINSt3__24pairIK10KeyWrapperIPKcEP11Il2CppClassEES5_N6il2cpp5utils11StringUtils12StringHasherIS4_EEN14dense_hash_mapIS5_S8_SE_NS5_14EqualsComparerINSB_13VmStringUtils21CaseSensitiveComparerEEENS0_9allocatorIS9_EEE9SelectKeyESJ_SL_E15insert_noresizeERKS9_
Shg:_SynchronizationLockException__ctor_m549086841
vod:__Z56Register_UnityEngine_Analytics_CustomEventData_AddUInt32v
q8d:_ArrayList_InsertRange_m1478230997
rpa:__ZN4gles8InitCapsEP7ApiGLESP12GraphicsCapsR16GfxDeviceLevelGL
xta:__ZN6prcore14BlitImageFloatERK14ImageReferenceRS0_NS0_8BlitModeE
OUa:__Z24CalculateVertexLightDataRK15SharedLightDataR14GfxVertexLight
zzi:_Color_get_black_m455352838
pi:_glEnable
Tlb:__ZN15dense_hashtableINSt3__24pairIKiiEEi21InstanceIDHashFunctorN14dense_hash_mapIiiS4_NS0_8equal_toIiEE13stl_allocatorIS3_L18MemLabelIdentifier1ELi16EEE9SelectKeyES7_SA_E12maybe_shrinkEv
a_a:__ZNK9ShaderLab7Program28BeginReadUnsupportedVariantsEv
VVb:__ZNK25CameraStackRenderingState21GetImageEffectTextureEb
tag:_RuntimeMethodHandle__ctor_m2437574937_AdjustorThunk
ejb:__ZNSt3__26vectorIN30RuntimeInitializeOnLoadManager9ClassInfoE13stl_allocatorIS2_L18MemLabelIdentifier13ELi16EEE7reserveEj
FDc:__Z35Transfer_Blittable_FixedBufferFieldI9JSONWriteiEvRK29SerializationCommandArgumentsR31RuntimeSerializationCommandInfo
rmg:_UInt16_System_IConvertible_ToInt64_m2835280558_AdjustorThunk
aZg:__ZL53g_UnityEngine_Assembly_CustomAttributesCacheGeneratorP21CustomAttributesCache
Kaj:_Predicate_1_BeginInvoke_m3926587117_gshared
zN:__ZZN8Animator15InitializeClassEvEN31FunctorImpl_427kDidModifyAvatar4CallEPviR11MessageData
zBf:_ReadOnlyCollection_1_System_Collections_IList_Remove_m2779327941_gshared
pD:__ZN26AnimatorControllerPlayable17ProcessRootMotionEP35AnimationPlayableEvaluationConstantP32AnimationPlayableEvaluationInputP33AnimationPlayableEvaluationOutput
uih:__Z94RuntimeInvoker_Boolean_t3825574718_Int32_t2071877448_SByte_t454417549_ExceptionU26_t1467204777PFvvEPK10MethodInfoPvPS4_
_Sd:_DefaultControls_CreateToggle_m1568873127
S1h:_Dictionary_2_InitArrays_m2270022740_gshared
xpd:__ZN11UnityEngine7Connect15DeviceInfoEvent16CollectExtraInfoEv
mlj:__ZN15dense_hashtableI10KeyWrapperIPK17Il2CppGenericInstES4_N6il2cpp8metadata21Il2CppGenericInstHashEN14dense_hash_setIS4_S7_NS4_14EqualsComparerINS6_24Il2CppGenericInstCompareEEENSt3__29allocatorIS4_EEE8IdentityESB_SE_EC2ERKSH_j
Cfg:_UnicodeEncoding_GetChars_m3765282346
B$e:_IntPtr__ctor_m4104029105
wfi:_InternalEnumerator_1_System_Collections_IEnumerator_get_Current_m771161214_AdjustorThunk
n8e:_MonoType_get_attributes_m1493788675
CMa:__ZN20ArchiveStorageReader10InitializeER15FileSystemEntryyb
Ihe:_Convert_ToDouble_m4236754739
oUd:_Dropdown_CreateItem_m2702141380
gvg:__ZL48Stack_t1043988394_CustomAttributesCacheGeneratorP21CustomAttributesCache
Ho:FUNCTION_TABLE_viifi
rfh:_MonoEvent_GetAddMethod_m4289563120
mtg:__ZL37Type_t_CustomAttributesCacheGeneratorP21CustomAttributesCache
ebd:_UNITY_tt_face_free_hdmx
yUc:__ZNSt3__26__sortIRN18Overlap2DQueryBase29ColliderHitsByDepthComparitorEPP10Collider2DEEvT0_S7_T_
Yuj:__ZN6il2cpp2vm14TypeNameParser5ParseEb
DMh:_ReflectionMethodsCache__ctor_m1835220
ztd:__ZN23UnityPurchasingSettingsC2Ev
$pe:_Double_ToString_m1864290157
d_j:__ZN6il2cpp2os5Mutex6UnlockEv
v4b:__ZL10RenderFaceR9GfxDeviceR18MaterialStateCacheP13RenderTextureiif
oRi:_SpriteAtlasManager__cctor_m453260161
nKj:__ZNK24NamespaceAndNamePairHashclERKNSt3__24pairIPKcS3_EE
jta:__ZL37stbir__resample_horizontal_downsampleP11stbir__infoiPf
mmb:__ZNK5Unity9Component38MarkGameObjectAndComponentDependenciesER27GarbageCollectorThreadState
l5:__ZL16OutOfMemoryErrorjj18MemLabelIdentifieriPKc
Eud:__ZN20UnityWebRequestProtoI24UnityWebRequestTransport16AtomicRefCounter14RedirectHelper14ResponseHelper15DownloadHandler13UploadHandler12HeaderHelper14AsyncOperationED0Ev
U9d:_SynchronizedArrayListWrapper_Contains_m2259439339
Kaa:__ZNK11TypeManager15ClassNameToRTTIEPKcb
XKb:__Z18Transfer_BlittableI18StreamedBinaryReadILb0EELb1EdEvRK29SerializationCommandArgumentsR31RuntimeSerializationCommandInfo
E$c:__ZN13sorted_vectorIN20TextRenderingPrivate8FontImpl13CharacterInfoENSt3__24lessIS2_EE13stl_allocatorIS2_L18MemLabelIdentifier1ELi16EEE10insert_oneERKS2_
Mbk:_emscripten_glVertexAttrib2fv__wrapper
qWe:_Guid__ctor_m2599802704
b2e:_FileStream_get_CanRead_m4148920720
psa:__ZN4crnd12symbol_codec32decode_receive_static_data_modelERNS_25static_huffman_data_modelE
D9b:__ZN18ScriptingArguments8AddFloatEf
HUe:_GregorianCalendar_set_CalendarType_m2438362222
Que:_Array_InternalArray__ICollection_Contains_TisVector2_t2243707579_m3625698589_gshared
npd:__ZN11UnityEngine15PlatformWrapper16GetVRRenderScaleEv
FEc:__Z18Transfer_BlittableI9JSONWriteLb0EaEvRK29SerializationCommandArgumentsR31RuntimeSerializationCommandInfo
R_:__ZN11UnityEngine15CloudWebService14DataDispatcher34OnSessionContainerArchivedAndReadyERNS0_16SessionContainerE
$Lc:__ZN7b2World11CreateJointEPK10b2JointDef
hcj:_RectTransformUtility_PixelAdjustPoint_m1375786599
sVe:_NumberFormatInfo_GetFormat_m3247563525
cMf:_CipherSuiteCollection__ctor_m2154226461
pnb:__ZN14SafeBinaryRead19TransferSTLStyleMapINSt3__23mapIN4core12basic_stringIcNS3_20StringStorageDefaultIcEEEEiNS1_4lessIS7_EENS1_9allocatorINS1_4pairIKS7_iEEEEEEEEvRT_17TransferMetaFlags
_2c:_gray_move_to
rwd:_DSAParameters_t1872138834_marshal_pinvoke
Pqi:_ConstructionCall_InitDictionary_m4046452035
aAj:__ZN6il2cpp2vm10Reflection14GetEventObjectEP11Il2CppClassPK9EventInfo
vNf:_TlsStream_Write_m2271546135
Spc:__Z30RegisterValidateMethodCallbackiPF18ScriptingMethodPtrS_17ScriptingClassPtrP6ObjectEPKc
Vse:_CultureInfo_ConstructInternalLocaleFromCurrentLocale_m1342751405
Ieg:_Latin1Encoding_GetString_m3553289597
PMh:_GetRayIntersectionAllNonAllocCallback_Invoke_m1247446986
x4c:_tt_cmap_init
XIc:__ZN8JSONRead8TransferI9BoundsIntEEvRT_PKc17TransferMetaFlagsb
Ka:invoke_viidi
ULj:__ZN15dense_hashtableI10KeyWrapperIP18Il2CppGenericClassES3_N6il2cpp8metadata22Il2CppGenericClassHashEN14dense_hash_setIS3_S6_NS3_14EqualsComparerINS5_25Il2CppGenericClassCompareEEENSt3__29allocatorIS3_EEE8IdentityESA_SD_E12maybe_shrinkEv
zIb:__Z29Transfer_Blittable_ArrayFieldI18StreamedBinaryReadILb1EEdEvRT_R9ArrayInfoRK23StaticTransferFieldInfo
cS:__ZN9AudioClip7CleanupEv
JSi:_Vector4_set_Item_m1525226067_AdjustorThunk
Rfk:_emscripten_glCheckFramebufferStatus__wrapper
KEj:__ZNK15dense_hashtableINSt3__24pairIK10KeyWrapperIP11Il2CppClassES4_EES5_N6il2cpp8metadata16SZArrayClassHashEN14dense_hash_mapIS5_S4_SA_NS5_14EqualsComparerINS9_19SZArrayClassCompareEEENS0_9allocatorIS7_EEE9SelectKeyESE_SG_E12test_deletedEj
yHc:__Z18Transfer_BlittableI8JSONReadLb0EdEvRK29SerializationCommandArgumentsR31RuntimeSerializationCommandInfo
mDh:__Z83RuntimeInvoker_Boolean_t3825574718_NavigationU26_t3929175072_Navigation_t1571958496PFvvEPK10MethodInfoPvPS4_
NK:__ZN7mecanim9animation21BlendTreeNodeConstant35Transfer_4_0_BackwardsCompatibilityI14SafeBinaryReadEEvRT_
kig:_Thread_ClrState_m822263449
qLe:_SimpleCollator_LastIndexOfOrdinalIgnoreCase_m550798345
Cpj:__ZN6il2cpp2vm21ThreadPoolCompartment13QueueWorkItemEP17Il2CppAsyncResult
kka:__ZNK9GfxDevice13GetViewMatrixEv
Dyi:_Bounds_Encapsulate_m17114941
klb:__ZN17RemapPPtrTransferC2E24TransferInstructionFlagsb
pK:__ZN14SafeBinaryRead21TransferSTLStyleArrayI22OffsetPtrArrayTransferIiEEEvRT_17TransferMetaFlags
Mba:__ZN8TypeTree8BlobReadERPKhS1_ib
Ljb:__ZN18LoadSceneOperation23GetAllowSceneActivationEv
QRa:__ZN6CameraD0Ev
pVi:_GUILayoutUtility_Begin_m659595645
RMe:_ModulusRing_Multiply_m386339435
iha:__ZN31CanvasBatchIntermediateRenderer16StaticInitializeEPv
GWd:_GraphicRaycaster_U3CRaycastU3Em__0_m3971200721
ABf:_ReadOnlyCollection_1_System_Collections_IList_RemoveAt_m3004588099_gshared
FC:__ZN7mecanim12AndValueMaskILb0EEEvPKNS_14ValueArrayMaskEPS1_
Uib:__ZN14SafeBinaryRead21TransferSTLStyleArrayINSt3__26vectorIi13stl_allocatorIiL18MemLabelIdentifier13ELi16EEEEEEvRT_17TransferMetaFlags
ohe:_Decimal_op_Implicit_m4246329390
Vfd:__ZZN17TilemapCollider2D15InitializeClassEvEN35FunctorImpl_46kOnTilemapTileChanged4CallEPviR11MessageData
v5b:__ZN10GameObjectC2E18MemLabelIdentifier18ObjectCreationMode
Ibd:_raccess_guess_apple_double
LUf:_ListDictionary_GetEnumerator_m1511032609
Y8f:_SerializationInfo__ctor_m4016423422
ywa:__ZL18ProgramUniform1uivPK7ApiGLESjiihPKv
ngc:__ZN14Texture2DArray13RebuildMipMapEv
Hjj:__ZN13Il2CppHashSetIPK17Il2CppGenericInstN6il2cpp8metadata21Il2CppGenericInstHashENS4_24Il2CppGenericInstCompareENSt3__29allocatorI10KeyWrapperIS2_EEEEC2EjRKS5_RKS6_
pQj:__ZN6il2cpp2gc16GarbageCollector14RemoveWeakLinkEPPv
Crb:__ZN9ShaderLab20SerializedSubProgram14AddVectorParamEPKcii15ShaderParamTypei
bed:__ZN21TilemapRefCountedDataI4PPtrI6ObjectEE8TransferI14SafeBinaryReadEEvRT_
hEf:_ReadOnlyCollection_1_System_Collections_IEnumerable_GetEnumerator_m1734360860_gshared
xli:_ResourceSet_ReadResources_m1669023823
GSe:_PKCS12_RemoveCertificate_m1590055870
wFj:__ZN6il2cpp2vm6Thread7SetNameEP12Il2CppThreadP12Il2CppString
NPb:__ZN13ScreenManager18SetAllowCursorLockEb
j0:__ZN11UnityEngine15CloudWebService10RestClientINS0_23WebRequestRestHeaderMapEE16SetRequestHeaderERKN4core12basic_stringIcNS4_20StringStorageDefaultIcEEEESA_
Zib:__ZN30RuntimeInitializeOnLoadManager15ClassMethodInfo8TransferI14SafeBinaryReadEEvRT_
x3g:__ZL73CanvasScaler_t2574720772_CustomAttributesCacheGenerator_m_ScreenMatchModeP21CustomAttributesCache
MY:__ZL22InitializeModule_Audiov
Yvb:__ZN16MemoryFileSystem8IsLockedERK13FileEntryData
cHj:__ZN6il2cpp6icalls8mscorlib6System2IO6MonoIO5WriteEiP11Il2CppArrayiiPi
$eh:_MonoCMethod_Invoke_m931478014
Ujh:__Z86RuntimeInvoker_Int32_t2071877448_Int16_t4041245914_Int32_t2071877448_Int32_t2071877448PFvvEPK10MethodInfoPvPS4_
Eli:_SatelliteContractVersionAttribute__ctor_m2605651717
$k:_emscripten_glBindRenderbuffer
dRg:__ZL77RuntimePlatform_t1869584967_CustomAttributesCacheGenerator_OSXDashboardPlayerP21CustomAttributesCache
LWj:_GC_dirty_init
v2d:_Array_Copy_m1969461849
q8f:_MessageFormatter_ReadMethodResponse_m4134629501
rNj:__ZN6il2cpp2vm5Field14GetValueObjectEP9FieldInfoP12Il2CppObject
fkd:__ZNK2UI6Canvas16GetTargetDisplayEv
qHi:_PKCS12_GetSymmetricAlgorithm_m3196291685
hre:_Environment_get_OSVersion_m1247315981
$ea:__ZN6Object17FindObjectsOfTypeEPKN5Unity4TypeER13dynamic_arrayIPS_Lj4EEb
YMb:__ZN13MonoBehaviour17RemoveFromManagerEv
ASa:__ZN12ImageFilters14AddImageFilterERK11ImageFilter
Y6a:__ZL11DecodeValuePPKcS0_
LWh:_ShimEnumerator_MoveNext_m2013866013_gshared
q3:__ZN13MemoryManagerC2Ev
Vza:__ZN12SkinMeshInfo10DeallocateEPS_
WLa:__ZN20ArchiveStorageReader28AcquireAndPrefillUnusedBlockEjPNS_11CacheResultE
hgc:__Z12NHxRoughnessIA4_tEvP9Texture2DPT_iiii
vfa:__ZN18AsyncUploadManagerD2Ev
Atb:__ZN9Transform5ResetEv
MEb:__Z22TransferField_NonArrayI24GenerateTypeTreeTransfer16Converter_StringEvRK23StaticTransferFieldInfoR31RuntimeSerializationCommandInfoRT0_
n4c:_UNITY_FT_CMap_New
GPb:__Z17MainLoopKeepalivePv
pri:_MatchCollection__ctor_m1944681790
Cxd:_HMACSHA512__ctor_m1667460019
L0j:_printf_core
D2b:__Z14CalcHullBoundsPK8Vector3fPKhhRK5PlaneRK10Matrix4x4fR10MinMaxAABB
o6f:_RealProxy__ctor_m2147093603
pXb:__Z19SetupLODFadeKeywordR17ShaderPassContexti
iPj:__ZN6il2cpp2os10ThreadImpl22SetNativeThreadCleanupEPFvPvE
yza:__ZL25CheckCopyTextureArgumentsRK7ApiGLESP11GLESTextureS3_
okb:__ZN13dynamic_arrayI26EnlightenSystemInformationLj8EE6insertEPS0_PKS0_S4_
T3c:_tt_name_entry_ascii_from_utf16
p9e:_MulticastNotSupportedException__ctor_m2164514827
jke:_DateTime_System_IConvertible_ToChar_m2489529194_AdjustorThunk
jEb:__Z29Transfer_Blittable_ArrayFieldI24GenerateTypeTreeTransferyEvRT_R9ArrayInfoRK23StaticTransferFieldInfo
PS:__ZN4FMOD7SystemI9playSoundE17FMOD_CHANNELINDEXPNS_5SoundEbPPNS_7ChannelE
Iti:_Regex_GetGroupIndex_m1686599756
MRg:__ZL68PreferBinarySerialization_t2472773525_CustomAttributesCacheGeneratorP21CustomAttributesCache
hfb:__ZN19StreamedBinaryWriteILb0EE21TransferSTLStyleArrayINSt3__26vectorI17SubstanceEnumItemNS2_9allocatorIS4_EEEEEEvRT_17TransferMetaFlags
EC:__ZN27AnimationLayerMixerPlayable17LayerMixerProcessEP35AnimationPlayableEvaluationConstantP32AnimationPlayableEvaluationInputP33AnimationPlayableEvaluationOutputM17AnimationPlayableFvS1_S3_S5_EMS_FvS1_S3_S5_ESA_MS_FvS5_S1_S3_S5_ifE
yuj:__ZN6il2cpp2os4File4ReadEPNS0_10FileHandleEPciPi
pR:__ZN12AudioManager23VirtualRedirectTransferER18StreamedBinaryReadILb0EE
Bab:__ZN10VertexData13SwapEndianessEv
g3j:_realloc
Kwc:__Z57Register_UnityEngine_Transform_INTERNAL_get_localRotationv
ZPh:_ScrollRect_SetLayoutVertical_m1225848090
AGi:_Plane_ToString_m4267831659_AdjustorThunk
Lkg:_Type_get_IsInterface_m3583817465
f7j:dynCall_viif
Jfh:_MonoField_get_DeclaringType_m1591666235
O2f:_Enumerator_MoveNext_m4234629003
z8c:_cf2_hint_lock
RBb:__ZL26Transfer_SimpleNativeClassI17RemapPPtrTransfer8GradientLb0EEvRK29SerializationCommandArgumentsR31RuntimeSerializationCommandInfo
oE:__ZN17AnimationPlayable26DisconnectNoTopologyChangeEPS_i
o8e:_MonoType_GetDefaultConstructor_m925465120
ylg:_Type_IsArrayImpl_m3073208555
T0:__ZN13UploadHandlerD2Ev
z5j:dynCall_viiiiiffi
Fc:_emscripten_glBlendFuncSeparate
W7:__Z20scripting_string_newPKc
cvc:__Z43Material_CUSTOM_Internal_CreateWithMaterialP12Il2CppObjectS0_
_0e:_Directory_GetCurrentDirectory_m44486537
vqf:_Collection_1_System_Collections_ICollection_CopyTo_m1047946700_gshared
bDc:__ZN9JSONWrite12AppendToNodeEPN5Unity9rapidjson12GenericValueINS1_4UTF8IcEE13JSONAllocatorEEPKcRS6_
K5f:_ObjRef__ctor_m1486312270
oRc:__ZN16PhysicsManager2D20GetRigidBodyVelocityERK11Rigidbody2D
pYf:_AsnEncodedData_Default_m4197142414
zgd:__ZN19TilemapRendererJobs23InitializeStencilStatesEv
muj:__ZN6il2cpp2os4File17GetFileAttributesERKNSt3__212basic_stringIcNS2_11char_traitsIcEENS2_9allocatorIcEEEEPi
LH:__ZNSt3__26__sortIRPFbPKN8Animator11AnimatorJobES4_EPS4_EEvT0_S9_T_
wQ:__ZN17AudioCustomFilterD2Ev
iya:__ZN18GfxFramebufferGLES18ReleaseFramebufferEP17RenderSurfaceBaseP14GfxContextGLES
Zoi:_Context_GetDynamicPropertyCollection_m1987747444
CZf:_X509Certificate2_get_Version_m1927399907
mic:__ZN13ProduceHelperI6CameraLb0EE7ProduceE18MemLabelIdentifier18ObjectCreationMode
mYd:_Image_RadialCut_m3229543088
p2:__ZN19CloudServiceHandler34HandleSaveFileWebRequestPlayerLoopEv
$D:__ZN7mecanim21ValueArrayReverseCopyEPKNS_18ValueArrayConstantEPKNS_10ValueArrayES2_PS3_PKi
eQ:__Z31GetParentSampleClipFromInstancePN11SoundHandle8InstanceE
bec:__ZNK28RectTransformPropertyBinding13GetFloatValueERKN11UnityEngine9Animation10BoundCurveE
S4b:__ZN6Camera22StandaloneCustomRenderENS_10RenderFlagEP6ShaderRKN4core12basic_stringIcNS3_20StringStorageDefaultIcEEEEPNS_21PerformRenderFunctionE
pib:__ZNSt3__26vectorI4PPtrI6ObjectE13stl_allocatorIS3_L18MemLabelIdentifier52ELi16EEE6assignINS_11__wrap_iterIPS3_EEEENS_9enable_ifIXaasr21__is_forward_iteratorIT_EE5valuesr16is_constructibleIS3_NS_15iterator_traitsISD_E9referenceEEE5valueEvE4typeESD_SD_
z$j:__ZN6il2cpp2os16ThreadLocalValue8GetValueEPPv
Unj:__ZN6il2cpp2vm13MetadataCache14GetGenericInstEPKPK10Il2CppTypej
ZAd:_SHA384Managed_Initialize_m712692291
PY:__ZN13AudioListener17ReadExtensionNameEi
zni:_ChannelInfo__ctor_m2502026239
Qb:invoke_iiidii
mp:setThrew
$fc:__ZL21BuildEmptyCubeTexturePKci11ColorRGBA3217TextureColorSpace
ATi:_Event_get_modifiers_m3267430607
snb:__ZN14SafeBinaryRead21TransferSTLStyleArrayINSt3__26vectorIN9ShaderLab20SerializedSubProgramENS1_9allocatorIS4_EEEEEEvRT_17TransferMetaFlags
xGc:__Z15Transfer_StringI8JSONReadLb1EEvRK29SerializationCommandArgumentsR31RuntimeSerializationCommandInfo
Tua:__ZN6prcoreL17RemapGenericFloatI17TexFormatRGBFloat15TexFormatRGHalfEEvPKNS_9InnerInfoE
HYb:__Z25DoForwardShaderRenderLoopR17RenderLoopContextR13dynamic_arrayI16RenderObjectDataLj4EERK11CullResultsbbbN6Camera10RenderFlagE
kJe:_GameObject_GetComponent_TisRuntimeObject_m2812611596_gshared
r3c:_sfnt_load_face
PRe:_PKCS12_GetSymmetricAlgorithm_m1812022677
Bgg:_UTF8Encoding_GetByteCount_m2372933408
Woi:_Context_get_NeedsContextSink_m1907794755
i3c:_UNITY_ft_service_list_lookup
NQi:_Transform_get_localScale_m46214814
RIf:_ARC4Managed_GenerateKey_m716135508
gAc:__ZN5IMGUI21SelectReceivingWindowER8GUIStateb
bfi:_InternalEnumerator_1_get_Current_m3179981210_gshared
R2:__ZN13BaseAllocator13TryDeallocateEPv
f2d:_Array_CreateInstance_m1054139389
SZi:_U3CStartU3Ec__Iterator0_Reset_m2580847683_gshared
AXd:_LayoutGroup_GetAlignmentOnAxis_m1783063916
ITa:__ZNSt3__26vectorIN12FlareManager10FlareEntryENS_9allocatorIS2_EEE21__push_back_slow_pathIKS2_EEvRT_
U6g:_Default_check_arguments_with_score_m1714931543
xwd:_SHA1_Create_m4086509717
rgh:_MonoMethodInfo_GetMethodInfo_m3298558752
YQ:__ZN13AudioListener17RemoveFromManagerEv
zd:_glAttachShader
sUd:_Dropdown_SetAlpha_m2769981009
fQa:__ZNK6Camera19GetProjectionMatrixEv
qaj:_Predicate_1_BeginInvoke_m1856151290_gshared
bpe:_StackTrace__ctor_m2404985356
S9:__Z38PreallocateObjectFromPersistentManagerib
xke:_DateTime_System_IConvertible_ToSingle_m3927769066
y2a:__ZNK9Texture2D20GetUnscaledTextureIDEv
Iie:_Convert_ToSByte_m883113940
fbj:_Canvas_get_renderOrder_m2592588836
f9e:_MonoType_get_ContainsGenericParameters_m3229732653
Mpf:_Queue_1_Peek_m1463479953_gshared
cej:_Animator_ResetTriggerString_m946167554
W0g:__ZL53InputField_t1631627530_CustomAttributesCacheGeneratorP21CustomAttributesCache
TTi:_GUI_set_skin_m929513544
TPd:_ButtonClickedEvent__ctor_m938038541
Nqh:__Z119RuntimeInvoker_Int32_t2071877448_RuntimeObject_Int32_t2071877448_Int32_t2071877448_CharU26_t1894467670_SByte_t454417549PFvvEPK10MethodInfoPvPS4_
lmg:_UInt16_System_IConvertible_ToDouble_m4100549304_AdjustorThunk
Bkb:__Z29ClearRepeatingLogMessageStatev
zFd:_Single_System_IConvertible_ToInt16_m962677079
Oea:__ZN21EnlightenSceneMappingaSERKS_
R$j:__ZNK6il2cpp8metadata21Il2CppGenericInstHashclEPK17Il2CppGenericInst
NFd:_Single_System_IConvertible_ToUInt32_m2447833283
cEa:__ZN7ApiGLESD2Ev
aOa:__ZN9Transform47ClearTransformHierarchyAndApplyToSerializedDataEv
ydi:_InternalEnumerator_1_get_Current_m4083613828_AdjustorThunk
MHc:__ZN8JSONRead21TransferSTLStyleArrayINSt3__26vectorI8MonoPPtr13stl_allocatorIS3_L18MemLabelIdentifier1ELi16EEEEEEvRT_17TransferMetaFlags
WRa:__ZN6Camera23VirtualRedirectTransferER19StreamedBinaryWriteILb0EE
v7j:dynCall_fidi
fxj:__ZN15dense_hashtableINSt3__24pairIK10KeyWrapperINS1_IPK9FieldInfoP11Il2CppClassEEEjEES9_17ReflectionMapHashIS8_EN14dense_hash_mapIS9_jSD_NS9_14EqualsComparerINS0_8equal_toIS8_EEEENS0_9allocatorISB_EEE9SelectKeyESI_SK_E12resize_deltaEjj
YQa:__ZN15dense_hashtableINSt3__24pairIKN9ShaderLab7Program23ShaderKeywordSetAndHashEPKNS2_10SubProgramEEES4_NS3_24ShaderKeywordHashFunctorEN14dense_hash_mapIS4_S8_SA_NS0_8equal_toIS4_EE13stl_allocatorIS9_L18MemLabelIdentifier67ELi16EEE9SelectKeyESD_SG_E15insert_noresizeERKS9_
Teb:__ZN14SubstanceInput8TransferI24GenerateTypeTreeTransferEEvRT_
JYa:__ZN13RenderTexture12SetDimensionE16TextureDimension
oe:_SDL_FreeRW
eQe:_PKCS1_OS2IP_m1273945439
zAd:_SHA1Internal_FillBuff_m891541953
vld:__Z34CanvasRenderer_Get_Custom_PropCullP12Il2CppObject
yW:__ZN20SoundChannelInstance8getDelayE14FMOD_DELAYTYPEPjS1_
rZd:_InputField_set_customCaretColor_m3534590098
JOh:_ScrollRect_set_viewport_m323693490
cZe:_NumberFormatter_FormatExponential_m3975285307
L_c:__ZNSt3__26vectorIN20TextRenderingPrivate8FontImpl13CharacterInfoE13stl_allocatorIS3_L18MemLabelIdentifier1ELi16EEE8__appendEj
v:tempBigInt
we:_emscripten_glVertexAttrib1fv
aFi:_Mesh_CheckCanAccessSubmesh_m764012688
Znb:__ZNSt3__26vectorIN9ShaderLab20SerializedSubProgram12UAVParameterENS_9allocatorIS3_EEE7reserveEj
r4j:__ZSt11__terminatePFvvE
_Eg:__ZL99Thread_t241561612_CustomAttributesCacheGenerator_Thread_t241561612____ExecutionContext_PropertyInfoP21CustomAttributesCache
nT:__ZN12AudioManager14systemCallbackEP11FMOD_SYSTEM24FMOD_SYSTEM_CALLBACKTYPEPvS3_
ZXa:__ZN16ReflectionProbes16UpdateSampleDataEv
jeb:__ZN18ProceduralMaterial23VirtualRedirectTransferER17RemapPPtrTransfer
Smi:_SafeHandle_Finalize_m1839546519
Fpi:_Context_AllocateNamedDataSlot_m3200404053
YIf:_CryptoConvert_ToHex_m2874017189
AYf:_X509EnhancedKeyUsageExtension_Decode_m3866320499
_Ye:_NumberFormatter_AppendIntegerStringWithGroupSeparator_m1401773574
Te:_JS_Sound_Play
BYd:_Image_IsRaycastLocationValid_m864962354
Zmh:__Z181RuntimeInvoker_Void_t1841601450_RuntimeObject_Int32_t2071877448_Int32_t2071877448_RuntimeObject_Int32_t2071877448_Int32_t2071877448_RuntimeObject_Int32_t2071877448_Int32_t2071877448PFvvEPK10MethodInfoPvPS4_
Vmb:__ZN9ShaderLab16SerializedShader8TransferI14SafeBinaryReadEEvRT_
dH:__ZN7mecanim8skeleton13SkeletonAlignEPKNS0_8SkeletonERKN4math7_float4ES7_i
Tgc:__ZN19ShaderPropertySheet16SetVectorIndexedEN9ShaderLab16FastPropertyNameEifRK8Vector4fNS_8SetFlagsE
K6f:_RemotingConfiguration_RegisterWellKnownServiceType_m2491506630
Mzg:__ZL55_TypeBuilder_t2783404358_CustomAttributesCacheGeneratorP21CustomAttributesCache
K0d:_LayoutRebuilder_Initialize_m2671585490
Nif:_List_1_System_Collections_IList_IndexOf_m4061554721_gshared
Y1:__ZN11UnityEngine15CloudWebService14DataDispatcher4StopEv
$nb:__ZNSt3__26vectorIN9ShaderLab20SerializedSubProgram12UAVParameterENS_9allocatorIS3_EEE8__appendEj
GCd:_X509Certificate_ToString_m1582581274
BYh:_Enumerator_get_Current_m2986380627_gshared
Omc:__ZNK17AnimationCurveTplI11QuaternionfE8GetRangeEv
kJa:__ZN17ScriptingGCHandle7AcquireE18ScriptingObjectPtr25ScriptingGCHandleWeakness
Goi:_LifetimeServices_set_LeaseTime_m1487876644
d8g:_ConstructorBuilder_not_supported_m3687319507
rjd:__ZN2UI14CanvasRenderer14AttachToCanvasER8JobFencePNS_6CanvasENS0_15InstructionTypeE
YRc:__ZN25SyncColliderTransformData3JobEPS_jPK23TransformAccessReadOnlyPKyj
EFd:_Single_System_IConvertible_ToInt64_m3555853323_AdjustorThunk
p6j:dynCall_iifiii
Tsa:__Z21HasAlphaTextureFormat13TextureFormat
cY:__ZN12AudioManager6UpdateEv
Msa:__ZN14ImageReference9BlitImageERKS_NS_8BlitModeE
py:__ZN8Animator12AddToManagerEv
RNb:__ZN23CachedSerializationDataD2Ev
S3b:__ZNK25CameraStackRenderingState31CalculateStereoCameraTargetTypeEv
AXa:__ZN14RenderSettings23VirtualRedirectTransferER14SafeBinaryRead
JQc:__ZNK13b2CircleShape5CloneEP16b2BlockAllocator
fPj:__ZN6il2cpp2os10ThreadImpl15CurrentThreadIdEv
Due:_Array_InternalArray__ICollection_Contains_TisColor32_t874517518_m2818328910_gshared
S2i:_AudioExtensionManager_WriteExtensionProperties_m4015275001
jbd:_UNITY_tt_face_load_fpgm
RNa:__Z17IsObjectAvailablei
qfb:__ZN12InputManagerD0Ev
PZj:__ZN6il2cpp6icalls8mscorlib6System11Diagnostics10StackTrace9get_traceEP15Il2CppExceptionib
_Ue:_NumberFormatInfo_set_NumberNegativePattern_m1050626150
LRa:__ZNK16LightmapSettings14GetLightProbesEv
wfg:_UnicodeEncoding_GetBytes_m1337660232
l3j:_posix_memalign
ihc:__ZN13ProduceHelperI12MeshRendererLb0EE7ProduceE18MemLabelIdentifier18ObjectCreationMode
yii:_InternalEnumerator_1_get_Current_m747506907_AdjustorThunk
xxi:_LogCallback_Invoke_m115567905
V9:__ZNK15MonoScriptCache7ReleaseEv
wij:__ZN6il2cpp2vm5Class13HasReferencesEP11Il2CppClass
gg:_glBindTexture
z1j:_snprintf
_Zd:_InputField_set_caretPosition_m888572237
ubh:_ILGenerator__cctor_m3943061018
g9d:_ArrayListWrapper_Clone_m1506311066
_bj:_CanvasRenderer_CreateUIVertexStream_m2882962535
_lb:__Z36scripting_liveness_calculation_begin17ScriptingClassPtriPFvPP12Il2CppObjectiPvES3_PFvvES7_
KBa:__ZN16UniformCacheGLES6CreateERK20GpuProgramParameters
Kgg:_UTF8Encoding_Fallback_m811555654
eL:__ZN7mecanim12statemachine13StateConstant8TransferI24GenerateTypeTreeTransferEEvRT_
Mze:_Array_InternalArray__IndexOf_TisPlayableBinding_t2498078091_m398853908_gshared
meg:_Encoding_GetString_m1894033578
ZBf:_ReadOnlyCollection_1_System_Collections_IList_Clear_m1918003010_gshared
jak:_emscripten_glGetProgramInfoLog__wrapper
PQi:_Transform_set_localScale_m1442831667
LM:__ZN25AnimatedPropertyEvaluator29BindCurveToScriptingObjectPtrERKN13AnimationClip10FloatCurveEj18ScriptingObjectPtrb
Ogg:_UTF8Encoding_InternalGetChars_m373801468
dba:__ZN17PersistentManager23DestroyFromFileInternalEi
mne:_Decimal_System_IConvertible_ToChar_m2425091200_AdjustorThunk
WYb:__Z19SetupMotionMatricesR6CameraR18RPDataMotionVector
$qe:_Enum_ToString_m2112979707
w4f:_MonoMethodMessage_get_MethodName_m3580519713
sI:__ZN26AnimatorControllerPlayable18PrepareForPlaybackERN7mecanim6memory9AllocatorE
Exd:_HMACSHA512__cctor_m1167457383
Fgg:_UTF8Encoding_GetBytes_m4170182058
nif:_List_1_IndexOf_m2418862432_gshared
iRa:__ZN22CreateGpuProgramOutputC2Ev
k$f:_X509Chain__ctor_m2242540866
Ps:__Z21GetAnimatableBindTypeRK16TypeTreeIterator
n3e:_MemoryStream_InternalConstructor_m2423667240
r5f:_SoapMethodAttribute_SetReflectionObject_m3431595769
jRh:_Slider_set_maxValue_m2951480075
_nd:__Z38CustomEventData_CUSTOM_InternalDestroyP12Il2CppObject
Ohc:__ZN8GUILayer12CleanupClassEv
m$d:_InputField_OnSubmit_m2856515494
vij:__ZN6il2cpp2vm5Class4InitEP11Il2CppClass
ha:invoke_vidi
Ijd:__ZN2UI14CanvasRenderer17SyncDirtyElementsER8JobFence
DRd:_ColorBlock_op_Inequality_m1517672458
GSj:__ZN6il2cpp5utils11StringUtils15StringDuplicateEPKc
l5b:__Z15CanAddComponentR10GameObjectPKN5Unity4TypeE
zQa:__ZNK9ShaderLab21ShaderRasterStateDesc16ToGfxRasterStateEPK19ShaderPropertySheetS3_R14GfxRasterState
P3:_tlsf_memalign
dcg:_CspParameters__ctor_m2480441577
G$j:__ZN6il2cpp2os9EventImplC2Ebb
gpi:_DynamicPropertyCollection_NotifyMessage_m840388347
Wvi:_Uri_ParseUri_m5711497
dwh:__Z98RuntimeInvoker_RuntimeObject_RuntimeObject_RayU26_t3651946800_Single_t2076509932_Int32_t2071877448PFvvEPK10MethodInfoPvPS4_
Su:__ZNSt3__26vectorIN13AnimationClip9PPtrCurveE13stl_allocatorIS2_L18MemLabelIdentifier26ELi16EEE6resizeEj
C6:__Z20IsMatrixBuiltinParamPKcPi
Agc:__ZN8Renderer19PostInitializeClassEv
o8h:_InternalEnumerator_1_get_Current_m1943362081_AdjustorThunk
VXj:__ZN6il2cpp6icalls8mscorlib6System8Delegate23CreateDelegate_internalEP20Il2CppReflectionTypeP12Il2CppObjectP22Il2CppReflectionMethodb
O6g:_Default_check_type_m2363631305
kNb:__ZN18DelayedCallManager18CancelCallDelayed2E4PPtrI6ObjectEPF15CallObjectStatePS1_PvES7_
dHa:__ZN25ThreadsafeLinearAllocator10ReallocateEPvji
sxb:__Z18Transfer_BlittableI14SafeBinaryReadLb1E11QuaternionfEvRK29SerializationCommandArgumentsR31RuntimeSerializationCommandInfo
bja:__ZN18SpriteAtlasManagerD0Ev
Oze:_Array_InternalArray__IndexOf_TisRaycastHit2D_t4063908774_m3739817942_gshared
Qgh:_MonoProperty_GetAccessors_m3704698731
wXj:_GC_disable
Mab:__ZN10Matrix4x4f8TransferI14SafeBinaryReadEEvRT_
qYc:__ZN15dense_hashtableINSt3__24pairIKNS1_IPK10Collider2DS4_EEjEES5_NS2_23ColliderPairHashFunctorEN14dense_hash_mapIS5_jS8_NS0_8equal_toIS5_EE13stl_allocatorIS7_L18MemLabelIdentifier67ELi16EEE9SelectKeyESB_SE_E9copy_fromERKSH_j
E6e:_UnmanagedMemoryStream_ReadByte_m2501145010
A8f:_ObjectRecord_UnchainFixup_m3025030310
pI:__ZN14AvatarPlayback8StopTimeEv
oda:__Z6AppendRKN4core12basic_stringIcNS_20StringStorageDefaultIcEEEEPKc
cwh:__Z81RuntimeInvoker_RuntimeObject_Ray_t2469606224_Single_t2076509932_Int32_t2071877448PFvvEPK10MethodInfoPvPS4_
ozi:_Color_ToString_m55788918_AdjustorThunk
jqa:__ZN7ApiGLES18ClearBufferSubDataEjN2gl12BufferTargetEll
qO:__ZN8Animator7SetBoolEib
_qc:__Z37Camera_Get_Custom_PropAllCamerasCountv
B9a:__ZN14Texture2DArray8TransferI18StreamedBinaryReadILb0EEEEvRT_
HFj:__ZN6il2cpp6icalls8mscorlib6System5Array9GetLengthEP11Il2CppArrayi
b1b:__Z18ApplyOcclusionMaskR19ProbeOcclusionCacheRK17LightProbeContextRK10RenderNodeb
I2e:_FileStreamAsyncResult__ctor_m1096228032
_5c:_Split_Cubic
eb:invoke_fiiii
Pme:_DBNull_System_IConvertible_ToSByte_m1228193074
Asf:_Collection_1__ctor_m2818834331_gshared
ivh:__Z68RuntimeInvoker_UInt16_t986882611_UInt16_t986882611_UInt16_t986882611PFvvEPK10MethodInfoPvPS4_
VXi:_UnityAction_1_Invoke_m3979091955_gshared
i2e:_FileStream_FlushBuffer_m2594140542
M5c:_ft_black_render
tTj:__ZN6il2cpp2vm8Profiler12GCHeapResizeEx
D7j:dynCall_viiifi
Mxa:__ZN18GfxFramebufferGLES20ActiveContextChangedEPP17RenderSurfaceBaseS2_
zxa:__Z19PluginsRenderMarkeri
JN:__ZN10HumanTrait18InitializeBoneNameEv
HHi:_X509CertificateEnumerator_get_Current_m3129374511
hLj:__ZNSt3__214__split_bufferIN6il2cpp2vm5Image20EmbeddedResourceDataERNS_9allocatorIS4_EEEC2EjjS7_
qXd:_HorizontalOrVerticalLayoutGroup_get_spacing_m2859152439
Uyg:__ZL57DispIdAttribute_t607560947_CustomAttributesCacheGeneratorP21CustomAttributesCache
EQ:__ZN12AudioManager17RemoveAudioSourceEP11AudioSource
kdd:__ZN7Tilemap17RemoveFromManagerEv
VUi:_GUILayoutEntry_SetVertical_m861127195
H$i:_AesManaged_get_KeySize_m2773901127
NIe:_Array_InternalArray__get_Item_TisUInt64_t2909196914_m2580870875_gshared
Wec:__ZN13ProduceHelperI14SpriteRendererLb0EE7ProduceE18MemLabelIdentifier18ObjectCreationMode
SZ:__ZN5physx14PxLightCpuTask12addReferenceEv
KTc:__Z10b2DistanceP16b2DistanceOutputP14b2SimplexCachePK15b2DistanceInput
J4a:__ZN21EnlightenSceneMapping8TransferI19StreamedBinaryWriteILb0EEEEvRT_
IMj:__ZN6il2cpp2gc16GarbageCollector19InitializeFinalizerEv
bE:__ZN7mecanim8skeleton18CreateSkeletonMaskEjPKNS0_19SkeletonMaskElementERNS_6memory9AllocatorE
Ezc:__ZN10GUIManager10DoGUIEventER10InputEventb
jDb:__Z35Transfer_Blittable_FixedBufferFieldI24GenerateTypeTreeTransferxEvRK29SerializationCommandArgumentsR31RuntimeSerializationCommandInfo
obd:_UNITY_TT_Init_Glyph_Loading
WXb:__Z20CalculateSqrDistanceRK8Vector3fRK4AABB
RU:__Z32AudioMixerDuckingProcessCallbackP21UnityAudioEffectStatePfS1_jii
B7g:_CustomAttributeTypedArgument_GetHashCode_m999147081_AdjustorThunk
Efc:__ZN26CustomRenderTextureManagerD2Ev
r2e:_FileStream_Read_m3880951166
x3i:_AudioExtensionManager_Update_m3727859914
uR:__ZN12AudioManager8TransferI24GenerateTypeTreeTransferEEvRT_
Vra:__Z25GetBytesFromTextureFormat13TextureFormat
zGj:__ZN6il2cpp6icalls8mscorlib6System9Threading6Thread20Thread_free_internalEP12Il2CppThreadi
B5j:dynCall_iiffi
EM:__ZN16MecanimAnimation25RegisterIAnimationBindingEPKN5Unity4TypeEiP17IAnimationBinding
Uaa:__Z32scripting_class_get_assemblyname17ScriptingClassPtr
ppd:__ZN11UnityEngine15PlatformWrapper15GetVRDeviceNameEv
Q_h:_Dictionary_2_Resize_m2532139610_gshared
vEi:_Mathf_RoundToInt_m1833913145
Rjg:_TimeSpan_Equals_m2029123271_AdjustorThunk
roj:__ZN6il2cpp2vm13MetadataCache23GetInvokerMethodPointerEPK10MethodInfoPK20Il2CppGenericContext
dDa:__ZN9GfxDevice21RegisterNativeTextureE9TextureIDi16TextureDimension
Rse:_CultureInfo__ctor_m456863818
bZj:__ZN6il2cpp6icalls8mscorlib6System10Reflection4Emit11TypeBuilder20create_generic_classEP27Il2CppReflectionTypeBuilder
bdf:_Enumerator_MoveNext_m2504790928_gshared
wZ:__Z60Register_UnityEngine_AudioListener_GetNumExtensionPropertiesv
Zi:_emscripten_glUniformMatrix4fv
MDj:__ZN15dense_hashtableINSt3__24pairIK10KeyWrapperINS1_IP11Il2CppClassjEEES4_EES6_N6il2cpp8metadata14ArrayClassHashEN14dense_hash_mapIS6_S4_SB_NS6_14EqualsComparerINSA_17ArrayClassCompareEEENS0_9allocatorIS8_EEE9SelectKeyESF_SH_E13set_empty_keyERKS8_
lsb:__ZN12ScriptMapperD2Ev
Xed:__ZNSt3__26__treeINS_12__value_typeIN4math12int3_storageE4TileEENS_19__map_value_compareIS3_S5_20TilemapPosition_LessLb1EEE13stl_allocatorIS5_L18MemLabelIdentifier95ELi16EEE12__find_equalIS3_EERPNS_16__tree_node_baseIPvEENS_21__tree_const_iteratorIS5_PNS_11__tree_nodeIS5_SF_EEiEESI_RKT_
AHi:_X509Certificate_PEM_m49854707
DYf:_X509BasicConstraintsExtension__ctor_m3320418592
KGi:_ExtendedKeyUsageExtension_Decode_m901297139
$vc:__Z52Register_UnityEngine_RenderTexture_Internal_GetWidthv
gWj:_GC_check_leaked
Dqb:__ZN9ShaderLab20SerializedSubProgram16TextureParameter8TransferI19StreamedBinaryWriteILb0EEEEvRT_
wDe:_Array_InternalArray__Insert_TisVector4_t2243707581_m1643342708_gshared
lGa:__ZNK7Hash12812PackToUInt32Ev
Jca:__ZNSt3__227__insertion_sort_incompleteIRNS_6__lessI14ObjectLoadDataS2_EEPS2_EEbT0_S6_T_
e2:__ZN11UnityEngine15CloudWebService16SessionContainer8AddEventEPNS0_14CloudEventInfoE
MBa:__Z4TrimRKN4core12basic_stringIcNS_20StringStorageDefaultIcEEEES5_
rSh:_Text_set_resizeTextMaxSize_m4034967714
Ntg:__ZL55GuidAttribute_t222072359_CustomAttributesCacheGeneratorP21CustomAttributesCache
m7g:_CustomAttributeNamedArgument_Equals_m2691468532
_7a:__ZN10VertexData8TransferI14SafeBinaryReadEEvRT_
JS:__ZN4FMOD8ChannelI8setDelayE14FMOD_DELAYTYPEjj
hee:_Stack__ctor_m2410583781
aXj:_GC_malloc_atomic
M6g:_Default_GetBetterMethod_m4255740863
o8g:_ConstructorBuilder_GetILGenerator_m1731893569
jLj:__ZNSt3__214__split_bufferIN6il2cpp2vm5Image20EmbeddedResourceDataERNS_9allocatorIS4_EEED2Ev
V8:__ZL20SortItemByInstanceIDRKN18AwakeFromLoadQueue4ItemES2_
sdh:_TypeBuilder_create_runtime_class_m2719530260
Dzd:_RNGCryptoServiceProvider_RngClose_m2921734810
nE:__ZNK34AnimationStateMachineMixerPlayable26GetInterruptedPosePlayableEv
lsd:__ZN20UnityConnectSettings8TransferI24GenerateTypeTreeTransferEEvRT_
GG:__ZN34BlobWriteTransferSTLStyleArrayImplI22OffsetPtrArrayTransferIbEEclERS1_17TransferMetaFlagsR9BlobWrite
EKe:_SimpleCollator_IsHalfKana_m4255579023
yqf:_Collection_1_System_Collections_IList_Contains_m3365884450_gshared
uKa:__Z16FlaggedAsSkippedIN4core12basic_stringIcNS0_20StringStorageDefaultIcEEEEEbRK13FileEntryInfoRKT_19FileEnumerationFlag
Dea:__ZL31InitializeRendererUpdateManagerPv
Qsh:__Z106RuntimeInvoker_RuntimeObject_Int16_t4041245914_RuntimeObject_BooleanU26_t3168250738_BooleanU26_t3168250738PFvvEPK10MethodInfoPvPS4_
PNf:_ClientSessionInfo_Dispose_m2571428025
w0d:_LayoutGroup_DelayedSetDirty_m4276695617
$Qf:_RecordProtocol_decryptRecordFragment_m2510859489
YWi:_InvokableCall_1__ctor_m975753341_gshared
ggb:__ZN11TimeManager8TransferI19StreamedBinaryWriteILb0EEEEvRT_
Z2e:_DelegatePInvokeWrapper_ReadDelegate_t3184826381
V6c:_compare_uni_maps
aqd:__ZN11UnityEngine15PlatformWrapper27GetGraphicsCapsSupportFlagsEv
doe:_Decimal_Equals_m1115043331
MGb:__ZN12NativeBufferI16Converter_StringE15SetupForWritingER9ArrayInfo
m9j:___cxa_end_catch__wrapper
PZh:_ValueCollection_System_Collections_Generic_ICollectionU3CTValueU3E_Clear_m231380274_gshared
xLd:_Entry__ctor_m1176697586
UNb:__ZN13MonoBehaviour22DoScriptRebuildWarningEv
arc:__Z38Camera_CUSTOM_INTERNAL_CALL_RaycastTryP12Il2CppObjectRK3Rayfi
ASh:_Text_get_verticalOverflow_m3134063496
BFj:__ZN6il2cpp6icalls8mscorlib6System5Array13ClearInternalEP11Il2CppArrayii
lmi:_GCHandle_get_Target_m2327042781
ZPd:_Button_OnFinishSubmit_m1646528571
_4j:_llvm_cttz_i32
YYf:_PublicKey_DecodeDSA_m1169363495
HAc:__ZN11IMGUIModule25GetGUIStyleScriptingClassEv
N9c:_tt_get_interface
IFe:_Array_Sort_TisRuntimeObject_m143182644_gshared
kGj:__ZN6il2cpp5utils9PathUtils7CombineIcEENSt3__212basic_stringIT_NS3_11char_traitsIS5_EENS3_9allocatorIS5_EEEERKSA_SC_
jVf:_NameObjectCollectionBase_BaseGet_m667273025
Kph:__Z104RuntimeInvoker_RuntimeObject_Byte_t3683104436_RuntimeObject_SByte_t454417549_RuntimeObject_RuntimeObjectPFvvEPK10MethodInfoPvPS4_
mGc:__ZN9JSONWrite8TransferI13dynamic_arrayIiLj4EEEEvRT_PKc17TransferMetaFlags
sjc:__ZN13PlayableGraph21InvalidateMultithreadEv
Z7:__Z18ConvertUTF16toUTF8PPKtS0_PPhS2_15ConversionFlags
OVi:_GUIStyleState__ctor_m3673085649
snc:__Z24GetActualTargetFrameRatev
flg:_TypeLoadException__ctor_m1903359728
qej:__ZL16my_g_bit_nth_msfj
gwd:_KeySizes__ctor_m3526899007
vXe:_Int16_System_IConvertible_ToInt32_m191782913_AdjustorThunk
SM:__ZN9Animation12CleanupClassEv
_Rg:__ZL69ArgumentCache_t4810721_CustomAttributesCacheGenerator_m_FloatArgumentP21CustomAttributesCache
fdg:_EncoderReplacementFallback__ctor_m2208438262
fWb:__Z23SetupStereoFlareElementP11FlareVertexRK8Vector2fS3_S3_RK11ColorRGBA32RK10Matrix4x4fRK8Vector3fb
ta:invoke_iiiifiiii
oNi:_RectTransform_set_anchoredPosition_m4223859262
j1e:_Directory_GetFiles_m4036267478
xqe:_Enum_System_IConvertible_ToType_m2669300536
oya:__ZL19BlitFramebufferImplRN4gles23BlitFramebufferDrawQuadER9GfxDevice9TextureIDRK8Vector4f
Hxj:__ZN15dense_hashtableINSt3__24pairIK10KeyWrapperIPK10Il2CppTypeEjEES6_N6il2cpp8metadata14Il2CppTypeHashEN14dense_hash_mapIS6_jSB_NS6_14EqualsComparerINSA_26Il2CppTypeEqualityComparerEEENS0_9allocatorIS8_EEE9SelectKeyESF_SH_E4findERS7_
yPi:_StackTraceUtility_ExtractStringFromExceptionInternal_m234524721
oAf:_ReadOnlyCollection_1_System_Collections_IList_Add_m2333231354_gshared
C0c:_UNITY_FT_List_Add
Nch:_OpCodes__cctor_m939885911
bgc:__ZN14Texture2DArray11InitTextureEiii13TextureFormatb
cxi:_UriParser_InitializeAndValidate_m251943319
QBd:_SymmetricAlgorithm_set_Padding_m3081984460
yCj:__ZN15dense_hashtableINSt3__24pairIK10KeyWrapperINS1_IPK11Il2CppImageP11Il2CppClassEEEjEES9_17ReflectionMapHashIS8_EN14dense_hash_mapIS9_jSD_NS9_14EqualsComparerINS0_8equal_toIS8_EEEENS0_9allocatorISB_EEE9SelectKeyESI_SK_E14squash_deletedEv
Rfb:__ZN9InputAxis8TransferI18StreamedBinaryReadILb0EEEEvRT_
k_b:__ZNK6Camera26GetStereoSingleCullEnabledEv
bag:_StreamingContext_t1417235061_marshal_pinvoke_back
ijb:__Z14resize_trimmedINSt3__26vectorIN4core12basic_stringIcNS2_20StringStorageDefaultIcEEEE13stl_allocatorIS6_L18MemLabelIdentifier13ELi16EEEEEvRT_j
t8d:_ArrayList_RemoveAt_m2578928333
ayb:__Z18Transfer_BlittableI14SafeBinaryReadLb0EaEvRK29SerializationCommandArgumentsR31RuntimeSerializationCommandInfo
uXi:_InvokableCall_3__ctor_m4270240248_gshared
uzf:_ReadOnlyCollection_1_System_Collections_IList_set_Item_m1233322304_gshared
RGi:_GeneralNames_get_DNSNames_m2721668874
nqe:_Enum_System_IConvertible_ToByte_m38374586
czf:_ReadOnlyCollection_1_System_Collections_Generic_IListU3CTU3E_RemoveAt_m1592158292_gshared
x8j:_emscripten_glFrustum__wrapper
rRf:_ReceiveRecordAsyncResult_get_CompletedWithError_m2670396551
Qne:_Decimal_Equals_m1798565377
jdd:__ZN7Tilemap12AddToManagerEv
Lpb:__ZN15SerializeTraitsINSt3__26vectorIN9ShaderLab20SerializedSubProgram15MatrixParameterENS0_9allocatorIS4_EEEEE8TransferI24GenerateTypeTreeTransferEEvRS7_RT_
A9g:_TypeBuilder_check_created_m2929267877
zx:__ZN19StreamedBinaryWriteILb0EE8TransferIKN4math7_float3EEEvRT_PKc17TransferMetaFlags
rUb:__Z20SyncFenceCullResultsR11CullResults
AAa:__ZN15TextureTFMethod20IsBoneCountSupportedEi
zXa:__ZN14RenderSettings23VirtualRedirectTransferER24GenerateTypeTreeTransfer
wke:_DateTime_System_IConvertible_ToSByte_m2575078084_AdjustorThunk
uCb:__Z22TransferField_NonArrayI17RemapPPtrTransfer27Converter_SimpleNativeClassI8GUIStyleEEvRK23StaticTransferFieldInfoR31RuntimeSerializationCommandInfoRT0_
cgj:_CustomEventData_AddUInt64_m1392334967
vec:__ZNK17AnimationCurveTplIfE20EvaluateWithoutCacheEfRf
ZQj:__ZN6il2cpp2os6Thread12QueueUserAPCEPFvPvES2_
QXa:__ZN19ShaderPropertySheet10SetTextureERK23FastTexturePropertyNameP7Texture
gtf:_Collection_1_IsValidItem_m1304951912_gshared
Olc:__ZN4Mesh10SetNormalsEPK8Vector3fj
bZc:__Z66Register_UnityEngine_Physics2D_INTERNAL_CALL_GetRayIntersectionAllv
Jge:_Convert_ToDateTime_m4161927553
Qdd:__ZN7Tilemap8TransferI14SafeBinaryReadEEvRT_
xSj:__ZNSt3__212basic_stringIDsNS_11char_traitsIDsEENS_9allocatorIDsEEE9__grow_byEjjjjjj
$u:__ZN17AnimationCurveTplIfE8TransferI14SafeBinaryReadEEvRT_
u7b:__Z29StdTemplateConversionFunctionIybEbPvR14SafeBinaryRead
z6a:__ZNSt3__26vectorIN15QualitySettings14QualitySettingENS_9allocatorIS2_EEE6assignIPS2_EENS_9enable_ifIXaasr21__is_forward_iteratorIT_EE5valuesr16is_constructibleIS2_NS_15iterator_traitsIS9_E9referenceEEE5valueEvE4typeES9_S9_
WUb:__ZNK19ShaderPropertySheet11HasPropertyERKN9ShaderLab16FastPropertyNameE
hke:_DateTime_System_IConvertible_ToByte_m2670443498_AdjustorThunk
JHf:_BigInteger_op_Addition_m1734797151
O8a:__ZN15dense_hashtableINSt3__24pairIKN4core12basic_stringIcNS2_20StringStorageDefaultIcEEEE13dynamic_arrayI4PPtrI6SpriteELj4EEEES6_20StringHash32FunctionIS6_EN14dense_hash_mapIS6_SC_SF_NS0_8equal_toIS6_EE13stl_allocatorISD_L18MemLabelIdentifier81ELi16EEE9SelectKeyESI_SL_E4findERS7_
$9g:_EnumBuilder_CreateNotSupportedException_m62763134
cud:__ZNK12HeaderHelper3GetERKN4core12basic_stringIcNS0_20StringStorageDefaultIcEEEE
$6e:_Math_Log_m3371716878
Ifb:__ZN9InputAxis8TransferI14SafeBinaryReadEEvRT_
i9:__ZNK21ExecutionOrderManager30GetCustomAwakeFromLoadQueueForEPKN5Unity4TypeE
Ctd:__Z27RegisterModule_UnityConnectv
Zbe:_Hashtable__ctor_m4280223555
ohh:_ParameterInfo_get_IsRetval_m1881464570
j6f:_RealProxy__ctor_m3041043303
sYe:_NumberFormatter_Init_m2654758994
rxd:_HMACSHA1__ctor_m1168389339
UWc:__ZNK17Physics2DSettings22GetTypeVirtualInternalEv
Zak:_glBindRenderbuffer__wrapper
bU:__ZN10ObjectPoolIN4FMOD12ChannelGroupENS0_13ChannelGroupIEE7SetSizeEi
xNe:_PrimalityTest_BeginInvoke_m966469054
yyi:_Bounds_get_max_m1939845278_AdjustorThunk
rCf:_ReadOnlyCollection_1_System_Collections_Generic_ICollectionU3CTU3E_Clear_m1785953911_gshared
dog:_UInt64_System_IConvertible_ToInt16_m2797150165_AdjustorThunk
xIe:_Array_InternalArray__get_Item_TisLabelData_t3712112744_m863115768_gshared
g_e:_Int32_Parse_m753946802
Vbc:__ZN9Polygon2D7SetPathEiRK13dynamic_arrayI8Vector2fLj4EE
E3i:_AudioConfigurationChangeHandler_Invoke_m653824108
fnf:_List_1_RemoveAt_m2331128844_gshared
ECj:__ZN14dense_hash_mapI10KeyWrapperINSt3__24pairIPK9EventInfoP11Il2CppClassEEEj17ReflectionMapHashIS8_ENS9_14EqualsComparerINS1_8equal_toIS8_EEEENS1_9allocatorINS2_IKS9_jEEEEE15set_deleted_keyERSH_
Qdh:_UnmanagedMarshal_ToMarshalAsAttribute_m3695569337
Mzb:__Z14resize_trimmedINSt3__26vectorI17AnimationCurveTplIfE13stl_allocatorIS3_L18MemLabelIdentifier1ELi16EEEEEvRT_j
Q3b:__ZN25CameraStackRenderingState19SetupLastEyeCamerasERK11CameraStack
vMa:__Z12GUIDToStringRK9UnityGUID
bQ:__ZN11SoundHandleC2ERKS_
dD:__ZN17AnimationPlayableC2E18DirectorPlayerType
Bnj:__ZNK6il2cpp5utils11collections13ArrayValueMapIPK10Il2CppType17Il2CppInteropData26InteropDataToTypeConverterNS_8metadata14Il2CppTypeLessENS8_26Il2CppTypeEqualityComparerEE10find_firstERKS5_
sVa:__ZN15SerializeTraitsI12fixed_bitsetILi24EjEE8TransferI18StreamedBinaryReadILb0EEEEvRS1_RT_
cNe:_BigInteger_op_Addition_m1196561843
Ibj:_CanvasRenderer_INTERNAL_CALL_GetColor_m3192682614
Moi:_FormatterData__ctor_m3974986124
Pyd:_RijndaelManagedTransform_get_CanReuseTransform_m3735256596
vbe:_Comparer__cctor_m1327316974
e1e:_MonoIO_ExistsFile_m1421941572
Vle:_DateTime_op_GreaterThanOrEqual_m3818963848
eB:__ZN17AnimationPlayable18DeallocateBindingsEv
x5b:__ZN6Camera25StandaloneRenderToCubemapEP7TextureiPFvPK9SceneNodePK4AABBR9IndexListPvESA_j
PSd:_DefaultControls_SetDefaultTextValues_m1707718380
QOd:_TouchInputModule_UseFakeInput_m2112019004
Qfj:_UnityAnalyticsHandler_SendCustomEventName_m2082986888
PKd:_EventSystem_get_baseEventDataCache_m4294741599
EXa:__ZN14RenderSettings18TransferDeprecatedI14SafeBinaryReadEEvRT_
VLi:_Rect_get_center_m2903917731_AdjustorThunk
k5:__ZN12TLSAllocatorI14StackAllocatorE8AllocateEji
iaa:__ZN16ScriptingManager18GetMonoScriptCacheEi
xlh:__Z62RuntimeInvoker_Void_t1841601450_RuntimeObject_Int64_t909078037PFvvEPK10MethodInfoPvPS4_
Qjj:__ZN15dense_hashtableINSt3__24pairIK10KeyWrapperIPK11Il2CppClassEPKcEES6_N6il2cpp5utils11PointerHashIS3_EEN14dense_hash_mapIS6_S9_SE_NS6_14EqualsComparerINS0_8equal_toIS5_EEEENS0_9allocatorISA_EEE9SelectKeyESJ_SL_E15set_deleted_keyERKSA_
WWd:_GridLayoutGroup_CalculateLayoutInputHorizontal_m2355123124
hyb:__Z18Transfer_BlittableI14SafeBinaryReadLb1EyEvRK29SerializationCommandArgumentsR31RuntimeSerializationCommandInfo
iDc:__ZN8JSONRead8TransferIfEEvRT_PKc17TransferMetaFlagsb
orb:__ZN9ShaderLab7Program22ComputeSupportsShadowsEv
L3j:__ZNSt3__212basic_stringIcNS_11char_traitsIcEENS_9allocatorIcEEE6appendEPKcj
cxg:__ZL54TypeBuilder_t3308873219_CustomAttributesCacheGeneratorP21CustomAttributesCache
gva:__ZN6prcoreL17RemapGenericFloatI18TexFormatARGBFloat17TexFormatRGBAHalfEEvPKNS_9InnerInfoE
Vtf:_Collection_1_CheckWritable_m691269733_gshared
zV:__ZN11AudioSource21ApplyCachedParametersE12SoundChannel
Dah:_GenericTypeParameterBuilder_GetAttributeFlagsImpl_m3338182267
o_:__ZN13Simd4iFactoryIN6detail9FourTupleEEC2Eiiii
w5e:_SynchronizedReader__ctor_m1408327515
WJi:_X509Store_LoadCrl_m1146720614
jEf:_ReadOnlyCollection_1_System_Collections_IList_Clear_m1858417639_gshared
nYi:_UnityAction_3_Invoke_m1025098032_gshared
l4a:__ZN15SerializeTraitsI33EnlightenTerrainChunksInformationE8TransferI14SafeBinaryReadEEvRS0_RT_
ZRc:__ZN6b2Body12SetTransformERK6b2Vec2f
Qgc:__ZNK32RendererMaterialAnimationBinding9BindValueER6ObjectRKN11UnityEngine9Animation14GenericBindingERNS3_10BoundCurveE
M0a:__Z13GetIAnimationv
pta:__ZL18stbir__support_onef
Vgf:_List_1_System_Collections_IList_Remove_m2040310137_gshared
Cyi:_Bounds_SetMinMax_m2094075031_AdjustorThunk
VEc:__Z26Transfer_UnityEngineObjectI9JSONWriteLb0EEvRK29SerializationCommandArgumentsR31RuntimeSerializationCommandInfo
f$a:__ZNSt3__26vectorIN4core12basic_stringIcNS1_20StringStorageDefaultIcEEEE13stl_allocatorIS5_L18MemLabelIdentifier1ELi16EEE6assignINS_11__wrap_iterIPS5_EEEENS_9enable_ifIXaasr21__is_forward_iteratorIT_EE5valuesr16is_constructibleIS5_NS_15iterator_traitsISF_E9referenceEEE5valueEvE4typeESF_SF_
kng:_UInt32_System_IConvertible_ToInt16_m2251335934_AdjustorThunk
Rid:__ZNSt3__27__sort5IRNS_6__lessIN2UI14DepthSortEntryES3_EEPS3_EEjT0_S7_S7_S7_S7_T_
U3d:_Boolean_System_IConvertible_ToType_m3990189691
PVc:__ZN17PolygonCollider2D12SetPolygon2DEP9Polygon2D
Ca:invoke_vdd
jia:__ZN14dense_hash_mapIN4core12basic_stringIcNS0_20StringStorageDefaultIcEEEE13dynamic_arrayI4PPtrI6SpriteELj4EE20StringHash32FunctionIS4_ENSt3__28equal_toIS4_EE13stl_allocatorINSC_4pairIKS4_S9_EEL18MemLabelIdentifier81ELi16EEE15set_deleted_keyERSH_
Npe:_Double_System_IConvertible_ToUInt32_m624993430
ffc:__ZNK30SpriteRendererAnimationBinding12GetPPtrValueERKN11UnityEngine9Animation10BoundCurveE
ncd:__ZZ29InitializeTextRenderingModulevEN27cleanupAfterLoadRegistrator7ForwardEv
Nig:_Scheduler_Add_m376749205
DC:__ZN27AnimationLayerMixerPlayable24ProcessAnimationLayerMixEP33AnimationPlayableEvaluationOutputP35AnimationPlayableEvaluationConstantP32AnimationPlayableEvaluationInputS1_if
B3b:__Z29PluginsIssueRenderingExtEvent26UnityRenderingExtEventTypePv
upj:_WebRequestUtils_RedirectTo_m675215376
Rfc:__Z14RandomRotationP9Texture2DPhiiii
NKe:_SimpleCollator_IsIgnorable_m2485013022
Tej:_Physics2D_GetColliderFromInstanceID_m2716839224
Ikf:_List_1_System_Collections_IList_Insert_m2036969360_gshared
w_d:_InputField_GetUnclampedCharacterLineFromPosition_m1912794077
rme:_DateTimeOffset_ToString_m2121173678_AdjustorThunk
pth:__Z74RuntimeInvoker_RuntimeObject_RuntimeObject_Int16_t4041245914_RuntimeObjectPFvvEPK10MethodInfoPvPS4_
lj:_JS_WebRequest_SetResponseHandler
Cek:_glDeleteProgram__wrapper
hrc:__Z50Register_UnityEngine_Camera_INTERNAL_get_pixelRectv
yua:__ZN6prcoreL18BlitFloatToIntegerERK14ImageReferenceRS0_
XSe:_X509CertificateCollection_get_Item_m410866272
z1:__ZN11UnityEngine15CloudWebService14RestDownloader17OnCompleteContentEv
oXd:_LayoutGroup_SetChildAlongAxis_m1615929339
tth:__Z75RuntimeInvoker_RuntimeObject_RuntimeObject_Double_t4078015681_RuntimeObjectPFvvEPK10MethodInfoPvPS4_
Hsh:__Z200RuntimeInvoker_Boolean_t3825574718_RuntimeObject_RuntimeObject_RuntimeObject_Int32_t2071877448_DateTimeU26_t3448131235_SByte_t454417549_BooleanU26_t3168250738_SByte_t454417549_ExceptionU26_t1467204777PFvvEPK10MethodInfoPvPS4_
Sa:invoke_viffi
zE:__ZN17AnimationPlayable28UpdateInternalStateRecursiveILi1ELb0EEEvPK35AnimationPlayableEvaluationConstant
VMj:__ZN6il2cpp2gcL10CleanupCCWEPvS1_
Va:invoke_vifff
I5d:_Byte_System_IConvertible_ToInt16_m1575115635_AdjustorThunk
odk:_glGetVertexAttribiv__wrapper
Se:_emscripten_request_fullscreen
QOb:__ZN20LocalFileSystemWebGL6DeleteER13FileEntryDatab
Cne:_Decimal_System_IConvertible_ToUInt16_m1621568250
Ue:_emscripten_glDisableVertexAttribArray
Zm:FUNCTION_TABLE_iiiifiiii
Hjg:_TimeSpan_get_TotalMinutes_m1645177229_AdjustorThunk
pc:invoke_fifffi
Uqa:__ZN4gles23ClearCurrentFramebufferEP7ApiGLESbbbRK10ColorRGBAffi
ZC:__ZN7mecanim12statemachine20CreateStateWorkspaceEjjjRNS_6memory9AllocatorE
W8h:_InternalEnumerator_1_System_Collections_IEnumerator_get_Current_m3680087284_gshared
df:_emscripten_glDeleteObjectARB
_f:_IMG_Load
m6e:_UnexceptionalStreamReader_Read_m3839775235
tDi:_Input_get_compositionCursorPos_m1028058884
awc:__Z53Register_UnityEngine_RenderTexture_Internal_GetHeightv
rJe:_Dropdown_GetOrAddComponent_TisRuntimeObject_m2875934266_gshared
zva:__ZN6prcoreL17RemapGenericFloatI17TexFormatRGBAHalf18TexFormatARGBFloatEEvPKNS_9InnerInfoE
tqe:_Enum_System_IConvertible_ToInt32_m2459904362
wth:__Z61RuntimeInvoker_RuntimeObject_Double_t4078015681_RuntimeObjectPFvvEPK10MethodInfoPvPS4_
AUc:__ZNSt3__27__sort4IRN18Overlap2DQueryBase29ColliderHitsByDepthComparitorEPP10Collider2DEEjT0_S7_S7_S7_T_
xAc:__Z14GetBuiltinSkini
IKf:_ContentInfo__ctor_m3871771681
LJd:_BaseInput_set_compositionCursorPos_m2632248731
K1i:_Enumerator_System_Collections_IEnumerator_Reset_m2573763156_gshared
qGh:__Z74RuntimeInvoker_Void_t1841601450_Int32_t2071877448_MonoResource_t3127387157PFvvEPK10MethodInfoPvPS4_
U0e:_DirectoryInfo_Initialize_m2216118894
sEd:_WindowsIdentity_Dispose_m2649088337
Ysb:__ZN2UI13RectTransform23VirtualRedirectTransferER14SafeBinaryRead
ipb:__ZNSt3__26vectorIN9ShaderLab20SerializedSubProgramENS_9allocatorIS2_EEE6assignIPS2_EENS_9enable_ifIXaasr21__is_forward_iteratorIT_EE5valuesr16is_constructibleIS2_NS_15iterator_traitsIS9_E9referenceEEE5valueEvE4typeES9_S9_
fHc:__Z18Transfer_BlittableI8JSONReadLb0E8BitFieldEvRK29SerializationCommandArgumentsR31RuntimeSerializationCommandInfo
r7f:_SoapServices_RegisterInteropXmlType_m2949236705
eIb:__ZL17Transfer_GUIStyleI18StreamedBinaryReadILb1EELb0EEvRK29SerializationCommandArgumentsR31RuntimeSerializationCommandInfo
wId:_String_CharCopy_m2550399897
huh:__Z234RuntimeInvoker_RuntimeObject_Int16_t4041245914_RuntimeObject_Int32_t2071877448_Int32_t2071877448_Int32_t2071877448_SByte_t454417549_SByte_t454417549_SByte_t454417549_SByte_t454417549_Int16_t4041245914_SByte_t454417549_SByte_t454417549PFvvEPK10MethodInfoPvPS4_
onb:__ZN9ShaderLab14SerializedPass8TransferI14SafeBinaryReadEEvRT_
pBc:__Z71Register_UnityEngine_GUILayoutUtility_INTERNAL_CALL_Internal_MoveWindowv
gY:__ZN12AudioManager16SetListenerPauseEb
SVc:__ZThn160_N17PolygonCollider2DD0Ev
EOc:__ZNSt3__26__sortIRN10ClipperLib12LocMinSorterEPNS1_12LocalMinimumEEEvT0_S6_T_
kfd:__ZN15TilemapRenderer10SmartResetEv
kHj:__ZN6il2cpp2vm9Exception25RaiseOutOfMemoryExceptionERKNS_5utils10StringViewIDsEE
vsf:_Collection_1_IsValidItem_m2254106115_gshared
P9g:_TypeBuilder_GetEvent_m3876348075
HRh:_Slider_OnMove_m641164662
ea:invoke_viiiiiiiiiii
k0j:___syscall_ret
Qig:_Scheduler__ctor_m3716265742
aQe:_MACAlgorithm_Final_m4076939925
_bc:__ZN14qsort_internal30FindAndMovePivotToLastPositionIP8Vector2fi26PointDistanceSortPredicateEEvT_S4_T0_T1_
yod:__Z56Register_UnityEngine_Analytics_CustomEventData_AddDoublev
E8a:__ZN11ChannelInfo8TransferI19StreamedBinaryWriteILb0EEEEvRT_
C8h:_InternalEnumerator_1_System_Collections_IEnumerator_get_Current_m3583252352_gshared
qGi:_Object_op_Implicit_m1757773010
q9g:_EnumBuilder_get_FullName_m2818393911
WWb:__ZN14qsort_internal13Partition3WayIP17RODataReplacementi19ROSorterReplacementEENSt3__24pairIT_S6_EES6_S6_T0_T1_
qsc:__Z34Register_UnityEngine_Gradient_Initv
mKd:_BaseInputModule_GetAxisEventData_m3903709281
OIe:_Array_InternalArray__get_Item_TisUriScheme_t1876590943_m1821482697_gshared
MGf:_BigInteger__ctor_m3239748086
z7a:__ZN13ScreenManager23SetIsOrientationEnabledE18EnabledOrientationb
er:__ZN9Animation13AwakeFromLoadE17AwakeFromLoadMode
JC:__ZN7mecanim5human25HumanPoseAddOverrideLayerERNS0_9HumanPoseERKS1_fRKNS_6bitsetILj70EEE
pec:__ZN13ProduceHelperI9TransformLb0EE7ProduceE18MemLabelIdentifier18ObjectCreationMode
eBe:_Array_InternalArray__ICollection_Add_TisHitInfo_t1761367055_m2956071622_gshared
yNa:__ZN10GameObject23VirtualRedirectTransferER18StreamedBinaryReadILb0EE
vg:_glFrontFace
o9f:_ObjectRecord_get_IsUnsolvedObjectReference_m2202692850
J0f:_FactoryCache_Cleanup_m4130035987
LNi:_Vector2_op_Addition_m4229571528
odc:__ZN13ProduceHelperI19LowerResBlitTextureLb0EE7ProduceE18MemLabelIdentifier18ObjectCreationMode
X$b:__ZNSt3__26vectorI16ShadowCasterData13stl_allocatorIS1_L18MemLabelIdentifier2ELi16EEE21__push_back_slow_pathIKS1_EEvRT_
Ong:_UInt32_ToString_m1783596809
kbk:_glUniform1i__wrapper
Wcd:__Z51Register_UnityEngine_TextGenerator_GetLinesInternalv
d2i:_HashSet_1_Init_m1258286688_gshared
qJi:_X509ExtensionCollection_get_Item_m4212651995
uAf:_ReadOnlyCollection_1_System_Collections_IList_RemoveAt_m525136953_gshared
Qua:__ZN6prcoreL17RemapGenericFloatI17TexFormatRGBFloat18TexFormatRGBAFloatEEvPKNS_9InnerInfoE
nwj:__ZN6il2cpp2vm4Type15IsSystemDecimalEPK10Il2CppType
Tng:_UInt64_System_IConvertible_ToBoolean_m3012279573_AdjustorThunk
Ilg:_Type_get_IsGenericTypeDefinition_m2147901038
utd:__ZN20UnityConnectSettings10InitializeEv
EUe:_GregorianCalendar__ctor_m3794576475
Jng:_UInt32_TryParse_m4283512434
tQi:_TrackedReference_GetHashCode_m1278837032
tRc:__ZN16PhysicsManager2D12BeginContactEP9b2Contact
UP:__ZN9AudioClip11CreateSoundEv
jWh:_ShimEnumerator_MoveNext_m3313047792_gshared
mkg:_TimeSpan_op_Inequality_m257547441
SCj:__ZN14dense_hash_mapI10KeyWrapperINSt3__24pairIPK9FieldInfoP11Il2CppClassEEEj17ReflectionMapHashIS8_ENS9_14EqualsComparerINS1_8equal_toIS8_EEEENS1_9allocatorINS2_IKS9_jEEEEEC2EjRKSB_RKSF_
syj:__ZNK15dense_hashtableINSt3__24pairIK10KeyWrapperINS1_IPK10MethodInfoP11Il2CppClassEEEjEES9_17ReflectionMapHashIS8_EN14dense_hash_mapIS9_jSD_NS9_14EqualsComparerINS0_8equal_toIS8_EEEENS0_9allocatorISB_EEE9SelectKeyESI_SK_E13find_positionERSA_
I9b:__Z10tesvertLeqP10TESSvertexS0_
qna:__ZN13GfxDeviceGLES20CreateComputeProgramEPKhj
Bge:_DateTimeFormatInfo_get_RoundtripPattern_m562440017
Ksd:__ZN11UnityEngine7Connect16PersistentValues13RestoreValuesER8JSONRead
QKa:__ZN20ArchiveStorageReader31TryToReadDirectoryFromBlockDataEyPKvj
spe:_Double_System_IConvertible_ToByte_m3004284950_AdjustorThunk
AJj:__ZN6il2cpp2vmL11GetIdentityEP14Il2CppIUnknown
RVj:_GC_push_gc_structures
SVf:_ServicePointManager_get_ServerCertificateValidationCallback_m1409951209
Brj:__ZN6il2cpp6icalls8mscorlib6SystemL8IsPublicEPK9EventInfo
bee:_Enumerator_get_Current_m1271212567
bTj:__ZThn4_N6il2cpp2vm13ComObjectBase18ReleaseMarshalDataEP13Il2CppIStream
gv:__ZNSt3__26vectorIN13AnimationClip10FloatCurveE13stl_allocatorIS2_L18MemLabelIdentifier26ELi16EEE6resizeEj
Nkc:__ZNK15dense_hashtableINSt3__24pairIK12TriangleEdgeiEES2_16TriangleEdgeHashN14dense_hash_mapIS2_iS5_NS0_8equal_toIS2_EENS0_9allocatorIS4_EEE9SelectKeyES8_SA_E23find_position_with_hashERS3_j
ZYc:__Z41Rigidbody2D_CUSTOM_INTERNAL_CALL_AddForceP12Il2CppObjectRK13Vector2fIcallN11Rigidbody2D9ForceModeE
CWf:_IPAddress_ParseIPV6_m2209709575
lOh:_U3CClickRepeatU3Ec__Iterator0_MoveNext_m1747924386
eGf:_Comparison_1_Invoke_m1670081898_gshared
aTh:_Toggle_set_group_m3833595685
Q0d:_LayoutRebuilder_ForceRebuildLayoutImmediate_m566681977
X8a:__ZNSt3__213__stable_sortIRNS_4lessI4PPtrI11SpriteAtlasEEENS_11__wrap_iterIPS4_EEEEvT0_SA_T_NS_15iterator_traitsISA_E15difference_typeEPNSD_10value_typeEi
mBe:_Array_InternalArray__ICollection_Add_TisVector4_t2243707581_m698578249_gshared
WKi:_PropertyName_ToString_m1129982609_AdjustorThunk
a6:__ZN8keywords6CreateEPKc
S:Math_imul
$cb:__ZN14SpriteRenderer15SetupPropertiesEv
N6a:__ZN11PlayerPrefs6GetIntERKN4core12basic_stringIcNS0_20StringStorageDefaultIcEEEEi
mmj:__ZN6il2cpp5utils13dynamic_arrayIPK10Il2CppTypeLj4EEC2ERKS5_
Ecd:__Z45TextGenerator_CUSTOM_INTERNAL_get_rectExtentsP12Il2CppObjectP5RectTIfE
eLf:_CertificateValidationCallback_Invoke_m2500463874
lwe:_SetPropertyUtility_SetStruct_TisChar_t3454481338_m2333420724_gshared
ysf:_Collection_1_IsSynchronized_m2601980439_gshared
yce:_Hashtable_ContainsKey_m2716576664
eJa:__Z18ReadStringFromFilePN4core17string_with_labelILi1EEERKNS_12basic_stringIcNS_20StringStorageDefaultIcEEEE
Rri:_PatternCompiler_EmitCategory_m1696942454
Nne:_Decimal_decimalFloorAndTrunc_m3655683429
GBe:_Array_InternalArray__ICollection_CopyTo_TisInt32_t2071877448_m984622488_gshared
O7:__ZN18ScriptingArguments9AddObjectE18ScriptingObjectPtr
Ykd:__Z39CanvasGroup_Get_Custom_PropInteractableP12Il2CppObject
L_:__ZN11UnityEngine15CloudWebService16SessionContainerD2Ev
Vsd:__ZL38InitializeUnityConnectScriptingClassesv
k4b:__ZN13ProbeRenderer8ConvolveEbijjb
ira:__ZN17GenericDynamicVBOC2ER9GfxDevice13GfxBufferModejj
kpi:_Context_get_HasDynamicSinks_m1998518649
OUc:__Z28GetPhysics2DScriptingClassesv
yzc:__ZZN10GUIManager14InitGUIManagerEvEN41PreUpdateIMGUISendQueuedEventsRegistrator7ForwardEv
RXi:_UnityAction_1_Invoke_m2903588655_gshared
c0:__ZN11UnityEngine15CloudWebService17SessionEventQueue10PurgeItemsEj
R4b:__ZN6Camera16StandaloneRenderENS_10RenderFlagEP6ShaderRKN4core12basic_stringIcNS3_20StringStorageDefaultIcEEEE
i1d:_Array_System_Collections_IList_get_Item_m2088124007
C1d:_Array_GetLength_m2083296647
b$i:_SymmetricTransform_OFB_m397918932
iae:_SynchronizedArrayListWrapper_ToArray_m1522185111
yHb:__Z18Transfer_BlittableI18StreamedBinaryReadILb1EELb1EtEvRK29SerializationCommandArgumentsR31RuntimeSerializationCommandInfo
zla:__ZN9GfxDevice20DeallocRenderSurfaceEP17RenderSurfaceBase
kpg:_ValueType_ToString_m3796301715
hxa:__ZN20GpuProgramParameters36UpdatePrepareValuesMaximumBufferSizeEv
TLj:__ZNK15dense_hashtableI10KeyWrapperIP18Il2CppGenericClassES3_N6il2cpp8metadata22Il2CppGenericClassHashEN14dense_hash_setIS3_S6_NS3_14EqualsComparerINS5_25Il2CppGenericClassCompareEEENSt3__29allocatorIS3_EEE8IdentityESA_SD_E12test_deletedEj
Xtc:__Z53Register_UnityEngine_Quaternion_INTERNAL_CALL_Inversev
zOi:_Screen_get_height_m3831644396
mPa:__ZN12BaseRenderer23RendererBecameInvisibleEv
T_c:__ZN20TextRenderingPrivate8FontImpl13CharacterInfo8TransferI18StreamedBinaryReadILb0EEEEvRT_
NEb:__Z29Transfer_Blittable_ArrayFieldI24GenerateTypeTreeTransferfEvRT_R9ArrayInfoRK23StaticTransferFieldInfo
Jda:__ZNSt3__26__treeINS_12__value_typeIN4core12basic_stringIcNS2_20StringStorageDefaultIcEEEES6_EENS_19__map_value_compareIS6_S7_NS_4lessIS6_EELb1EEE13stl_allocatorIS7_L18MemLabelIdentifier13ELi16EEE7destroyEPNS_11__tree_nodeIS7_PvEE
Tlh:__Z76RuntimeInvoker_RuntimeObject_RuntimeObject_SByte_t454417549_SByte_t454417549PFvvEPK10MethodInfoPvPS4_
e6b:__ZN19CustomRenderTexture9AddParentE4PPtrIS_E
A5a:__ZN8Gradient8TransferI14SafeBinaryReadEEvRT_
hZi:_UnityEvent_1_Invoke_m1533100983_gshared
e$a:__ZNSt3__26vectorIN4core12basic_stringIcNS1_20StringStorageDefaultIcEEEE13stl_allocatorIS5_L18MemLabelIdentifier1ELi16EEE7reserveEj
WVf:_FileWebRequest__ctor_m4003648606
b3g:__ZL71SpriteState_t1353336012_CustomAttributesCacheGenerator_m_DisabledSpriteP21CustomAttributesCache
vqe:_Enum_System_IConvertible_ToSByte_m3488526280
rnj:__ZNK15dense_hashtableI10KeyWrapperIPK19Il2CppGenericMethodES4_N6il2cpp8metadata23Il2CppGenericMethodHashEN14dense_hash_setIS4_S7_NS4_14EqualsComparerINS6_26Il2CppGenericMethodCompareEEENSt3__29allocatorIS4_EEE8IdentityESB_SE_E4findERKS4_
avb:__ZNK20LocalFileSystemPosix9IsSymLinkERK13FileEntryData
LUj:_GC_new_free_list_inner
l2h:_DefaultComparer_Equals_m85211180_gshared
v8e:_MonoType_InternalGetEvent_m532443236
tuf:_Collection_1_IndexOf_m2700825189_gshared
jTi:_MathfInternal__cctor_m2774058555
VHc:__ZN8JSONRead8TransferI10RectOffsetEEvRT_PKc17TransferMetaFlagsb
M$:__ZN9JSONWrite8TransferIN11UnityEngine15CloudWebService14DataErrorEvent15FileErrorDetailEEEvRT_PKc17TransferMetaFlags
XId:_Decoder__ctor_m2623573910
XS:__ZN12SoundManager20RegisterModifiedClipEP10SampleClip
IAi:_Logger__ctor_m1903664092
sV:__ZN11AudioSource4PlayEd
MNj:__ZN6il2cpp2vm6Object16GetVirtualMethodEP12Il2CppObjectPK10MethodInfo
l2i:_HashSet_1_Add_m199171953_gshared
ilj:__ZN15dense_hashtableI10KeyWrapperIPK17Il2CppGenericInstES4_N6il2cpp8metadata21Il2CppGenericInstHashEN14dense_hash_setIS4_S7_NS4_14EqualsComparerINS6_24Il2CppGenericInstCompareEEENSt3__29allocatorIS4_EEE8IdentityESB_SE_E13set_empty_keyERKS4_
f5h:_EqualityComparer_1_System_Collections_IEqualityComparer_Equals_m3589836321_gshared
NPe:_SmallXmlParser_IsNameChar_m1561000202
jIi:_X501__cctor_m2610532554
pVh:_Enumerator_VerifyState_m3173176371_gshared
cnf:_List_1_CheckCollection_m2220107869_gshared
t2a:__ZN7Cubemap23VirtualRedirectTransferER18StreamedBinaryReadILb0EE
tNf:_RecordProtocol_EncodeRecord_m3884270352
MAd:_SHA256_Create_m896954069
rad:_Read_CVT
vje:_Convert_ToUInt32_m776714429
bLa:__ZN12FileAccessor4SeekEx10FileOrigin
BDb:__ZL26Transfer_SimpleNativeClassI24GenerateTypeTreeTransfer17AnimationCurveTplIfELb0EEvRK29SerializationCommandArgumentsR31RuntimeSerializationCommandInfo
VIc:__ZN8JSONRead21TransferSTLStyleArrayI13dynamic_arrayI9BoundsIntLj4EEEEvRT_17TransferMetaFlags
v4a:__ZN24GenerateTypeTreeTransfer8TransferI13dynamic_arrayI33EnlightenTerrainChunksInformationLj4EEEEvRT_PKc17TransferMetaFlags
Mea:__ZN16LightmapSettings20DidChangeActiveSceneEP10UnitySceneS1_
K6g:_Default_ReorderParameters_m1877749093
p5g:__ZL59g_AssemblyU2DCSharp_Assembly_CustomAttributesCacheGeneratorP21CustomAttributesCache
Xrj:__ZN6il2cpp5utils9PathUtils8BasenameIcEENSt3__212basic_stringIT_NS3_11char_traitsIS5_EENS3_9allocatorIS5_EEEERKSA_
bBc:__Z35Register_UnityEngine_Event_get_typev
AQe:_PrivateKeyInfo_DecodeRSA_m1427048948
wHj:__ZN6il2cpp2vm9Exception23GetInvalidCastExceptionERKNS_5utils10StringViewIDsEE
U5g:_Assembly_FillName_m1934025015
rHd:_String_IndexOf_m2126171214
w$e:_Int64_ToString_m1544341651_AdjustorThunk
AE:__ZN8Animator28BuildControllerPlayableCacheEv
nWe:_Guid_CheckNull_m2903986431
Z8:__Z63ThreadAndSerializationSafeCheckGetMonoBehaviourBeingTransferredv
vXj:_GC_enable
oPf:_TlsClientCertificateVerify_ProcessAsSsl3_m3377063356
kRj:__GLOBAL__sub_I_GenericMethod_cpp
pBj:__ZN15dense_hashtableINSt3__24pairIK10KeyWrapperIPK14Il2CppAssemblyEPK22Il2CppMonoAssemblyNameEES6_N6il2cpp5utils11PointerHashIS4_EEN14dense_hash_mapIS6_SA_SF_NS6_14EqualsComparerINS0_8equal_toIS5_EEEENS0_9allocatorISB_EEE9SelectKeyESK_SM_EC2ERKSP_j
hOd:_StandaloneInputModule_set_repeatDelay_m2820945738
Tmg:_UInt16_ToString_m4213290405
wtc:__Z37Register_UnityEngine_Input_GetAxisRawv
PJ:__ZNK18AnimatorController28HasMultiThreadedStateMachineEv
Cqe:_Enum_GetName_m1226611481
w9i:_Func_2_Invoke_m4121137703_gshared
eV:__ZN11AudioSource5ResetEv
tWb:__ZN12ImageFilters27SetSurfaceUseResolvedBufferEP13RenderTextureb
k9a:__ZN14Texture2DArray23VirtualRedirectTransferER18StreamedBinaryReadILb0EE
sui:_Literal_CompileLiteral_m276843152
Psb:__ZN2UI13RectTransform13AwakeFromLoadE17AwakeFromLoadMode
u$b:__ZN14qsort_internal30FindAndMovePivotToLastPositionIP20ShadowCasterSortDatai26ShadowCasterSortDataSorterEEvT_S4_T0_T1_
Olj:__ZNK15dense_hashtableI10KeyWrapperIPK19Il2CppGenericMethodES4_N6il2cpp8metadata23Il2CppGenericMethodHashEN14dense_hash_setIS4_S7_NS4_14EqualsComparerINS6_26Il2CppGenericMethodCompareEEENSt3__29allocatorIS4_EEE8IdentityESB_SE_E3endEv
$wb:__Z18Transfer_BlittableI14SafeBinaryReadLb1EiEvRK29SerializationCommandArgumentsR31RuntimeSerializationCommandInfo
ylb:__ZN17PersistentManager13GetAllFileIDsERKN4core12basic_stringIcNS0_20StringStorageDefaultIcEEEER13dynamic_arrayIxLj8EE
C2d:_Array_LastIndexOf_m4096535198
j8d:_ArrayList_Add_m1719188324
Ipe:_Double_System_IConvertible_ToSByte_m1653690240_AdjustorThunk
fuh:__Z59RuntimeInvoker_RuntimeObject_Byte_t3683104436_RuntimeObjectPFvvEPK10MethodInfoPvPS4_
pyi:_Bounds_get_size_m3951110137
Gk:_glGetStringi
FLj:__ZNK15dense_hashtableI10KeyWrapperIP18Il2CppGenericClassES3_N6il2cpp8metadata22Il2CppGenericClassHashEN14dense_hash_setIS3_S6_NS3_14EqualsComparerINS5_25Il2CppGenericClassCompareEEENSt3__29allocatorIS3_EEE8IdentityESA_SD_E10test_emptyERK30dense_hashtable_const_iteratorIS3_S3_S6_SF_SA_SD_E
jte:_CultureInfo_set_NumberFormat_m1618950525
r_f:_X509Store__ctor_m1573680316
G_f:_X509Chain_get_CertificateCollection_m324631835
s5h:_EqualityComparer_1__cctor_m1011898363_gshared
gPd:_AnimationTriggers__ctor_m2623627182
Uye:_Array_InternalArray__IndexOf_TisClientCertificateType_t4001384466_m1168139450_gshared
hG:__ZN8Animator9WriteStepEy
y0:__ZN11UnityEngine15CloudWebService20WebRequestRestClient18GetResponseHeadersEv
Hjc:__ZN16PropertyAccessorC2Ev
W6a:__ZNSt3__23mapIN4core12basic_stringIcNS1_20StringStorageDefaultIcEEEE9PrefValueNS_4lessIS5_EENS_9allocatorINS_4pairIKS5_S6_EEEEEixERSB_
jjc:__ZN15DirectorManager22ConstructPlayableGraphEv
JBd:_SymmetricAlgorithm_set_IV_m4262655606
aSh:_StencilMaterial__cctor_m2963056855
v7g:_CustomAttributeNamedArgument_GetHashCode_m3715408876_AdjustorThunk
Lcd:__Z38Register_UnityEngine_Font_HasCharacterv
LZf:_X509Certificate2_AppendBuffer_m3517242299
t3b:__Z35IntersectSpherePlaneBoundsOptimizedRKN4math7_float4EPS1_i
fte:_CultureInfo_get_IsNeutralCulture_m3874876470
Boe:_Delegate_CreateDelegate_m3813023227
Dwi:_Uri_get_AbsoluteUri_m2120317928
rOj:__ZN6il2cpp2os5posix15PosixWaitObject13InterruptWaitEv
gSd:_ColorTween_TweenValue_m3279916815
lea:__Z22CleanupLODGroupManagerPv
fBe:_Array_InternalArray__ICollection_Add_TisContentType_t1028629049_m2984242302_gshared
ZAc:__Z21Event_CUSTOM_PopEventP12Il2CppObject
ql:_glUniform3fv
D_j:__ZNK6il2cpp8metadata24Il2CppGenericInstCompareclERK10KeyWrapperIPK17Il2CppGenericInstES8_
jib:__ZNSt3__218__insertion_sort_3IRN15ResourceManager10Dependency6SorterEPS2_EEvT0_S6_T_
Ddf:_Enumerator_System_Collections_IEnumerator_Reset_m3796537546_AdjustorThunk
xbd:_UNITY_FT_Init_Class_tt_service_gx_multi_masters
Eth:__Z53RuntimeInvoker_Int32_t2071877448_TimeSpan_t3430258949PFvvEPK10MethodInfoPvPS4_
Vjh:__Z64RuntimeInvoker_RuntimeObject_Int32_t2071877448_Int16_t4041245914PFvvEPK10MethodInfoPvPS4_
e8e:_IntComparer_Compare_m3057931085
c_b:__ZNK16LightmapSettings31GetRealtimeLightmapDecodeValuesEv
mU:__ZN5audio5mixer12SetSuspendedERNS0_16AudioMixerMemoryEb
tmb:__ZN17PersistentManager21UnloadNonDirtyStreamsEv
lIj:__ZN6il2cpp2vm13LivenessStateC2EP11Il2CppClassjPFvPP12Il2CppObjectiPvES7_PFvvESB_
HJe:_Array_ConvertAll_TisRuntimeObject_TisRuntimeObject_m2423585546_gshared
YUb:__ZN12ImageFilters4BlitER17ShaderPassContextP7TextureP13RenderTextureiPK18SharedMaterialDataPKcP6ShaderiNS_9BlitFlagsE11CubemapFaceRK8Vector2fSH_
$Xf:_Oid__ctor_m1936781897
m0:__ZN11UnityEngine15CloudWebService10RestClientINS0_23WebRequestRestHeaderMapEED2Ev
pli:_ResourceSet__ctor_m1222864106
Hqf:_Collection_1_System_Collections_IList_get_Item_m3376056117_gshared
Ml:_emscripten_glDepthMask
Cdf:_Enumerator_VerifyState_m3639069574_gshared
tsa:__ZN4crnd25static_huffman_data_model22prepare_decoder_tablesEv
fqf:_Enumerator_MoveNext_m689054299_gshared
qHf:_ModulusRing_Difference_m662924064
KQd:_CanvasUpdateRegistry_ObjectValidForUpdate_m855695984
zZd:_InputField_set_onValueChanged_m2406388125
Yzc:__Z23GUIStatePopDisplayIndexv
d5:__ZL22CleanupUnityWebStreamsPv
OUf:_ListDictionary_Add_m4276262662
Rea:__Znaj
pzd:_RIPEMD160Managed_GGG_m1639995340
afk:_emscripten_glEnableClientState__wrapper
W6:__ZN17MessageIdentifierC2EPKcNS_7OptionsEPKN5Unity4TypeES1_
ZXh:_Enumerator_System_Collections_IEnumerator_get_Current_m1648049763_gshared
XZj:__ZN6il2cpp6icalls8mscorlib4Mono8Security12Cryptography18KeyPairPersistence15_ProtectMachineEP12Il2CppString
q5j:dynCall_viiifiii
EZ:__Z55Register_UnityEngine_AudioSource_get_spatializeInternalv
T8a:__ZN15dense_hashtableINSt3__24pairIKN4core12basic_stringIcNS2_20StringStorageDefaultIcEEEE13dynamic_arrayI4PPtrI6SpriteELj4EEEES6_20StringHash32FunctionIS6_EN14dense_hash_mapIS6_SC_SF_NS0_8equal_toIS6_EE13stl_allocatorISD_L18MemLabelIdentifier81ELi16EEE9SelectKeyESI_SL_E12resize_deltaEjj
Z4e:_TextWriter__ctor_m2225796097
AHa:__ZN14SafeBinaryRead8TransferI14ConstantStringEEvRT_PKc17TransferMetaFlags
Noa:__ZNK6Camera16GetStereoEnabledEv
Xu:__ZN13AnimationClip9PPtrCurveaSERKS0_
rgc:__ZN12LightManager15InitializeClassEv
IQa:__ZN9ShaderLab11shaderprops16GetComputeBufferEPK19ShaderPropertySheetS3_NS_16FastPropertyNameE
a8:__ZN18ScriptingArgumentsC2Ev
ukg:_TimeZone_IsDaylightSavingTime_m875882154
Sfd:__ZN17TilemapCollider2D15InitializeClassEv
wak:_emscripten_glBlendFuncSeparate__wrapper
fMf:_CipherSuiteCollection_System_Collections_IList_set_Item_m750275607
upa:__Z17HasSampledTexture14GraphicsFormat13formatSupport
WVb:__ZNK25CameraStackRenderingState27GetStereoImageEffectTextureEb
rAd:_SHA1CryptoServiceProvider__ctor_m3127563759
lpj:__ZN6il2cpp6icalls6System6System3Net7Sockets6Socket7ReceiveEiP11Il2CppArrayiiNS4_11SocketFlagsEPi
dnc:__ZN13BuildSettings13GetSceneIndexERKN4core12basic_stringIcNS0_20StringStorageDefaultIcEEEE
T4g:__ZL103BaseVertexEffect_t2504093552_CustomAttributesCacheGenerator_BaseVertexEffect_ModifyVertices_m3446986347P21CustomAttributesCache
Fo:FUNCTION_TABLE_ii
WYh:_Enumerator_MoveNext_m335649778_AdjustorThunk
aPa:__ZN10TagManager8TransferI18StreamedBinaryReadILb0EEEEvRT_
vEc:__Z18Transfer_BlittableI9JSONWriteLb0E8BitFieldEvRK29SerializationCommandArgumentsR31RuntimeSerializationCommandInfo
Nng:_UInt32_ToString_m3894907091_AdjustorThunk
FEi:_Matrix4x4__ctor_m828876617_AdjustorThunk
$se:_CultureInfo_get_TextInfo_m1582311326
hAe:_Array_ForEach_TisRuntimeObject_m1849351808_gshared
Kkc:__ZNK6Sprite15GenerateOutlineEfhbRNSt3__26vectorI13dynamic_arrayI8Vector2fLj4EENS0_9allocatorIS4_EEEEi
rPe:_SmallXmlParser_Error_m1832158746
Fk:_glDeleteVertexArrays
AMa:__Z24CreateDirectoryRecursiveRKN4core12basic_stringIcNS_20StringStorageDefaultIcEEEE
O8j:b41
eqb:__ZN9ShaderLab20SerializedSubProgram8TransferI18StreamedBinaryReadILb0EEEEvRT_
z4e:_StreamAsyncResult_get_AsyncWaitHandle_m4218169359
N8j:b40
QIe:_Array_InternalArray__get_Item_TisContactPoint2D_t3659330976_m825151777_gshared
thd:__ZN2UI13CanvasManager9AddCanvasEPNS_6CanvasE
cab:__ZN9Texture3D8TransferI19StreamedBinaryWriteILb0EEEEvRT_
yWb:__ZNK6Camera22CalculateRenderingPathEv
PFc:__ZN9JSONWrite8TransferI5RectTIfEEEvRT_PKc17TransferMetaFlags
RH:__ZN11UnityEngine9Animation37SetGenericRootTransformPropertyValuesERKNS0_30AnimatorGenericBindingConstantERKN7mecanim10ValueArrayER9Transformbb
Jya:__Z13ConvertMipmap14GraphicsFormatPKvS_Pviiii
bBd:_SHA384Managed_processBlock_m3232296629
PSe:_X509Certificate_get_PublicKey_m714501701
Sxi:_AsyncOperation_InternalDestroy_m2067452588
c4c:_tt_sbit_decoder_load_image
Pfd:__Z13RegisterClassI15TilemapRendererEvv
GHd:_String_LastIndexOf_m290475879
zFe:_Array_Sort_TisInt32_t2071877448_m1860415737_gshared
Szc:__ZNSt3__24listIN10GUIManager12SortedScriptE11memory_poolIS2_EE6__sortI13OldSortScriptEENS_15__list_iteratorIS2_PvEESA_SA_jRT_
Xng:_UInt64_System_IConvertible_ToChar_m1930853313_AdjustorThunk
jPf:_TlsClientCertificate_SendCertificates_m1096074091
ide:_SyncHashtable_get_Item_m408601391
Ged:__ZN17TilemapCollider2DD0Ev
lqf:_Stack_1_System_Collections_ICollection_CopyTo_m2104527616_gshared
ofg:_StringBuilder_AppendFormat_m1666670800
dzh:__Z97RuntimeInvoker_Boolean_t3825574718_RuntimeObject_TextGenerationSettings_t2543476768_RuntimeObjectPFvvEPK10MethodInfoPvPS4_
Vqd:__ZN18UnityConnectClient12CloseServiceEv
yw:__ZN13AnimationClip8TransferI17RemapPPtrTransferEEvRT_
yGj:__ZN6il2cpp6icalls8mscorlib6System9ThreadingL11ThreadStartEPv
Kga:__ZN15DirectorManager12OnSampleTimeEv
hDf:_ReadOnlyCollection_1_System_Collections_IList_Remove_m3878418841_gshared
EZd:_InputField_EnforceContentType_m1902926812
u5a:__ZN15dense_hashtableINSt3__24pairIKiiEEi21InstanceIDHashFunctorN14dense_hash_mapIiiS4_NS0_8equal_toIiEE13stl_allocatorIS3_L18MemLabelIdentifier67ELi16EEE9SelectKeyES7_SA_E12resize_deltaEjj
nFa:__ZN12CachedReader10Align4ReadEv
IRc:__ZN15b2WorldManifold10InitializeEPK10b2ManifoldRK11b2TransformfS5_f
Zu:__Z14resize_trimmedINSt3__26vectorIN13AnimationClip10FloatCurveE13stl_allocatorIS3_L18MemLabelIdentifier26ELi16EEEEEvRT_j
_Fa:__ZNK9Behaviour22GetTypeVirtualInternalEv
RDf:_ReadOnlyCollection_1_System_Collections_IList_get_Item_m887129009_gshared
e4b:__Z21GetScriptingArraySize17ScriptingArrayPtr
q_c:__ZN20TextRenderingPrivate8FontImpl8TransferI14SafeBinaryReadEEvRT_
vma:__ZN9GfxDevice17ImmediateTexCoordEifff
Osi:_Parser_ParseRegularExpression_m2390577313
hPc:__ZN10ClipperLib7Clipper13AppendPolygonEPNS_5TEdgeES2_
$2d:_Array_double_swapper_m1175307080
g$f:_X509CertificateEnumerator_System_Collections_IEnumerator_Reset_m327358896
RDd:_Hash__ctor_m2554411450
PYe:_NumberFormatter_AppendDigits_m1308372770
uFd:_Single_System_IConvertible_ToDateTime_m2510003459_AdjustorThunk
Koe:_Delegate_RemoveImpl_m3666700529
p8j:_emscripten_glUniform4f__wrapper
fVf:_NameObjectCollectionBase_OnDeserialization_m3478980442
nN:__ZN25RuntimeAnimatorControllerC2E18MemLabelIdentifier18ObjectCreationMode
qZd:_InputField_set_caretColor_m2252440840
kJ:__ZN8Animator8TransferI19StreamedBinaryWriteILb0EEEEvRT_
HPa:__ZNK6Camera16GetProjectionFarEv
Tq:__Z24InverseTransformRotationRK23TransformAccessReadOnlyRKN4math7_float4E
h7e:_MissingFieldException__ctor_m1161042282
fze:_Array_InternalArray__IndexOf_TisSlot_t2267560602_m1912863273_gshared
rFi:_Mesh_get_uv3_m1531319041
Qtd:__Z31GetPerformanceReportingSettingsv
U0a:__ZNK14PlayableOutput11DerivesFromE17ScriptingClassPtr
g2a:__ZN7Texture34CreateFileTextureUploadInstructionE18TextureUploadFlagsj
Zza:__ZN13ComputeShader14SetBufferParamEjRKN9ShaderLab16FastPropertyNameE15ComputeBufferID
WCf:_ReadOnlyCollection_1_System_Collections_Generic_IListU3CTU3E_Insert_m3054305464_gshared
bJ:__ZN8Animator8TransferI14SafeBinaryReadEEvRT_
yze:_Array_InternalArray__IndexOf_TisTypeTag_t141209596_m2882894956_gshared
mRh:_Slider_get_value_m4182660424
rLc:__ZNK14b2CapsuleShape5CloneEP16b2BlockAllocator
oz:__ZN17AnimationPlayable34CollectAnimatorControllerPlayablesER13dynamic_arrayIP26AnimatorControllerPlayableLj4EE
_X:__ZN16BaseVideoTexture19UpdateVideoTexturesEv
WVa:__Z28BuildSingleStreamChannelInfo17ShaderChannelMaskRK20VertexChannelsLayoutS_S2_P11ChannelInfo
ORa:__ZNK16LightmapSettings23HasLightProbeTetrahedraEv
wOf:_Context_get_WriteSequenceNumber_m243492531
G7a:__ZN6Sprite23VirtualRedirectTransferER19StreamedBinaryWriteILb0EE
oxg:__ZL51Assembly_t4268412390_CustomAttributesCacheGeneratorP21CustomAttributesCache
yHd:_String_LastIndexOfAny_m1473637802
kwc:__Z38Transform_CUSTOM_INTERNAL_set_positionP12Il2CppObjectRK8Vector3f
VFi:_PlayerEditorConnectionEvents_InvokeMessageIdSubscribers_m795891627
vxj:__ZNK15dense_hashtableINSt3__24pairIK10KeyWrapperINS1_IPK9FieldInfoP11Il2CppClassEEEjEES9_17ReflectionMapHashIS8_EN14dense_hash_mapIS9_jSD_NS9_14EqualsComparerINS0_8equal_toIS8_EEEENS0_9allocatorISB_EEE9SelectKeyESI_SK_E5beginEv
i_a:__ZNK9ShaderLab7Program19HasMatchingVariantsERK13dynamic_arrayI16ShaderKeywordSetLj4EE
dqa:__ZN14DataBufferGLES11CopySubDataEPKS_jjj
ke:_emscripten_glVertexPointer
hEa:__ZNSt3__26__treeI20DeviceDepthStateGLES11memcmp_lessIS1_S1_ENS_9allocatorIS1_EEE7destroyEPNS_11__tree_nodeIS1_PvEE
lVd:_Graphic__ctor_m821539719
isj:__ZN6il2cpp2vm7Runtime47RaiseExecutionEngineExceptionIfMethodIsNotFoundEPK10MethodInfo
_$b:__Z17GetFrustumPortionPK8Vector3fffPS_
YIj:__ZN15dense_hashtableINSt3__24pairIK10KeyWrapperIP14Il2CppIUnknownEjEES5_N6il2cpp5utils11PointerHashIS3_EEN14dense_hash_mapIS5_jSB_NS5_14EqualsComparerINS0_8equal_toIS4_EEEENS0_9allocatorIS7_EEE9SelectKeyESG_SI_E14squash_deletedEv
hTd:_DefaultControls_CreateDropdown_m1384069408
$Md:_PointerEventData_get_clickCount_m4064532478
rre:_EventArgs__cctor_m1350395667
rka:__ZNK9GfxDevice27GetPlatformAdjustedViewportEv
Ure:_CCGregorianCalendar_is_leap_year_m567513478
A3d:_Attribute_IsDefined_m2118467641
nRi:_SpriteAtlasManager_Register_m447878083
zQe:_PrivateKeyInfo_Normalize_m3959595934
M8h:_InternalEnumerator_1_System_Collections_IEnumerator_get_Current_m3125080595_gshared
hwf:_Collection_1_System_Collections_IList_Add_m2091889616_gshared
Ljc:__ZN16StreamedResource8TransferI24GenerateTypeTreeTransferEEvRT_
lNc:__ZN11b2GearJoint4DumpEv
DUd:_DropdownItem_OnPointerEnter_m761897861
XAa:__ZN10Matrix3x3f15InvertTransposeEv
Gvj:__ZNSt3__213__vector_baseIN6il2cpp2vm17TypeNameParseInfoENS_9allocatorIS3_EEED2Ev
ave:_Array_InternalArray__ICollection_Remove_TisKeyValuePair_2_t1174980068_m2768765894_gshared
KTb:__Z11IsBatchmodev
Rtf:_Collection_1_set_Item_m2199807215_gshared
JAb:__Z29Transfer_Blittable_ArrayFieldI14SafeBinaryRead8Vector3fEvRT_R9ArrayInfoRK23StaticTransferFieldInfo
Zmg:_UInt32_System_IConvertible_ToBoolean_m91295134
Bhg:_Monitor_Monitor_test_synchronised_m1542589500
mRg:__ZL68RuntimePlatform_t1869584967_CustomAttributesCacheGenerator_WP8PlayerP21CustomAttributesCache
f$c:__ZN20TextRenderingPrivate8FontImpl18ResetCachedTextureEv
mRe:_SymmetricTransform_TransformFinalBlock_m4192185386
aWe:_TextInfo__ctor_m1263401274
tVj:_GC_print_finalization_stats
NZh:_ValueCollection__ctor_m927733289_gshared
$Mc:__ZNK12b2WheelJoint10GetAnchorBEv
Mqc:__Z53Register_UnityEngine_Behaviour_get_isActiveAndEnabledv
TWf:_IPAddress_ToString_m267966740
qq:__ZNSt3__26vectorIN4core12basic_stringIcNS1_20StringStorageDefaultIcEEEENS_9allocatorIS5_EEE8__appendEj
zhb:__ZN26PlayerSettingsSplashScreen8TransferI17RemapPPtrTransferEEvRT_
xci:_InternalEnumerator_1_get_Current_m3922357178_gshared
Lqj:__ZN6il2cpp6icalls8mscorlib6SystemL17CollectTypeFieldsINS_5utils10functional10TrueFilterEEEvP11Il2CppClassPKS7_iRNSt3__26vectorIP9FieldInfoNSB_9allocatorISE_EEEERKT_
G$g:__ZL72ColorBlock_t2652774230_CustomAttributesCacheGenerator_m_HighlightedColorP21CustomAttributesCache
Mkg:_Type_get_IsValueType_m1733572463
Bbc:__Z13GetTagManagerv
IXc:__ZN14PhysicsQuery2D7RaycastERK8Vector2fS2_fRKN10Collider2D13ContactFilterEPKS3_bP12RaycastHit2Di
Eve:_Array_InternalArray__ICollection_Remove_TisUInt16_t986882611_m65494986_gshared
KBf:_ReadOnlyCollection_1_IndexOf_m3054637117_gshared
vej:__ZL10roundUp128PyS_
v_:__ZN11UnityEngine15CloudWebService17CloudJobSchedulerD0Ev
tGd:_String_System_IConvertible_ToBoolean_m2696751322
Ojb:__ZN18LoadSceneOperation7PerformEv
BWi:_CachedInvokableCall_1_Invoke_m687018726_gshared
Thd:__ZNK2UI11CanvasGroup22GetTypeVirtualInternalEv
MEi:_Matrix4x4_MultiplyPoint3x4_m1436516889
BHd:_String_LastIndexOfAny_m4281325295
fPc:__ZN10ClipperLib7Clipper14IntersectEdgesEPNS_5TEdgeES2_RNS_8IntPointE
VBh:__Z163RuntimeInvoker_Void_t1841601450_RuntimeObject_Int32_t2071877448_SByte_t454417549_SByte_t454417549_SingleU26_t4173844468_SingleU26_t4173844468_SingleU26_t4173844468PFvvEPK10MethodInfoPvPS4_
kAc:__Z21CleanupGlobalGUIStatev
pjg:_TimeSpan__ctor_m1888018443_AdjustorThunk
AIh:__Z74RuntimeInvoker_Int32_t2071877448_UIVertex_t1204258818_UIVertex_t1204258818PFvvEPK10MethodInfoPvPS4_
dde:_SyncHashtable_get_Count_m3694444082
ZJb:__Z18Transfer_BlittableI18StreamedBinaryReadILb0EELb1EN4math12int3_storageEEvRK29SerializationCommandArgumentsR31RuntimeSerializationCommandInfo
Jvj:__ZNSt3__26vectorINS_12basic_stringIcNS_11char_traitsIcEENS_9allocatorIcEEEENS4_IS6_EEE8allocateEj
qlc:__ZNSt3__26vectorI14SubstanceInputNS_9allocatorIS1_EEE6assignIPS1_EENS_9enable_ifIXaasr21__is_forward_iteratorIT_EE5valuesr16is_constructibleIS1_NS_15iterator_traitsIS8_E9referenceEEE5valueEvE4typeES8_S8_
FCa:__ZN22VertexDeclarationCache5ClearEv
Fmb:__ZN15CacheWriterBase18GetAddressOfMemoryEv
UB:__Z27ProcessRootMotionEmptyMixerP35AnimationPlayableEvaluationConstantP32AnimationPlayableEvaluationInputP33AnimationPlayableEvaluationOutput
E1b:__ZN6Camera24PrepareCullingParametersERK23CameraCullingParameters13RenderingPathR11CullResults
Fmc:__Z12SetIUISystemP9IUISystem
$jb:__ZN19RuntimeSceneManager22EndIntegrateMainThreadEP10UnitySceneNS_11LoadingModeE
hyc:__Z25SendGridChangedToChildrenP9TransformR11MessageData
jCb:__Z26Transfer_UnityEngineObjectI17RemapPPtrTransferLb0EEvRK29SerializationCommandArgumentsR31RuntimeSerializationCommandInfo
IHd:_String_IsNullOrEmpty_m2802126737
l6d:_Byte_Parse_m1442736478
e$e:_Int64_Parse_m3258022240
sHd:_String_IndexOfOrdinal_m3591623977
Ybg:_CryptoConfig_EncodeLongNumber_m2352037787
plg:_Type_GetMethod_m475234662
cni:_ActivationServices_get_ConstructionActivator_m1726426854
EEb:__Z29Transfer_Blittable_ArrayFieldI24GenerateTypeTreeTransfer4AABBEvRT_R9ArrayInfoRK23StaticTransferFieldInfo
iFg:__ZL52Activator_t1850728717_CustomAttributesCacheGeneratorP21CustomAttributesCache
vWj:_GC_adj_bytes_allocd
aBe:_Array_InternalArray__ICollection_Add_TisKeyframe_t1449471340_m887263954_gshared
HCe:_Array_InternalArray__Insert_TisDateTime_t693205669_m1484996356_gshared
Shf:_List_1_System_Collections_IList_Remove_m3933652540_gshared
L3e:_MonoIO_get_ConsoleInput_m2976499023
Jch:_OpCode_get_Size_m481593949_AdjustorThunk
Cae:_BitArrayEnumerator_checkVersion_m3839504595
Q1d:_Array_GetUpperBound_m1352329707
yNc:__ZN13b2PulleyJoint24SolveVelocityConstraintsERK12b2SolverData
Agj:_CustomEventData_Add_m1145561703
IIj:__ZN6il2cpp6icalls8mscorlib6System10Reflection10MonoMethod19get_base_definitionEP22Il2CppReflectionMethod
Da:invoke_fiiifii
TMf:_RecordProtocol__ctor_m168945279
hme:_DateTimeOffset_Equals_m3728302791_AdjustorThunk
hYa:__ZN20SphericalHarmonicsL219AddDirectionalLightERKN4math7_float3ERKNS0_7_float4E
lkg:_TimeSpan_op_GreaterThanOrEqual_m3997050520
Bga:__Z26ScheduleJobForEachInternalR8JobFencePFvPvjES1_iPFvS1_E11JobPriority
RYf:_OidEnumerator_MoveNext_m1889267785
vTb:__ZZ23InitPlayerLoopCallbacksvEN41PostLateUpdateProfilerEndFrameRegistrator7ForwardEv
pnc:__ZN9Scripting18RaiseMonoExceptionEPKcz
n3a:__ZN9Texture2D8TransferI19StreamedBinaryWriteILb0EEEEvRT_
f_i:_TweenRunner_1_StartTween_m3792842064_gshared
Rgc:__ZN9ShaderLab16FastPropertyName15InitBy28BitHashEj
CFd:_Single_System_IConvertible_ToInt32_m3269519527_AdjustorThunk
E8i:_TextGenerationSettings_Equals_m1603221718
xAd:_SHA1Internal_ProcessBlock_m4070037334
vOa:__ZN17PersistentManager17IsObjectAvailableEi
zmi:_Marshal_copy_from_unmanaged_m98320635
ODe:_Array_InternalArray__set_Item_TisDouble_t4078015681_m24756265_gshared
YAi:_Display_RelativeMouseAtImpl_m700362000
WRi:_Vector2_get_right_m4262310679
Ydc:__ZN13ProduceHelperIN2UI13RectTransformELb0EE7ProduceE18MemLabelIdentifier18ObjectCreationMode
Iab:__ZN17PackedFloatVector12UnpackFloatsEPfiiii
Bzf:_ReadOnlyCollection_1__ctor_m3671019970_gshared
YE:__ZN17AnimationPlayable28UpdateInternalStateRecursiveILi3ELb0EEEvPK35AnimationPlayableEvaluationConstant
rna:__ZN13GfxDeviceGLES21DestroyComputeProgramER12ObjectHandleI18ComputeProgram_TagPvE
ahe:_Convert_ToDecimal_m2007036836
NFj:__ZN6il2cpp6icalls8mscorlib6System5Array12SetValueImplEP11Il2CppArrayP12Il2CppObjecti
pea:__ZN17UniqueIDGenerator16DestroyPureIndexEj
Vaa:__ZL21AppendNestedClassName17ScriptingClassPtrRN4core17string_with_labelILi1EEE
Qnb:__ZN14SafeBinaryRead21TransferSTLStyleArrayINSt3__26vectorIN9ShaderLab20SerializedSubProgram12UAVParameterENS1_9allocatorIS5_EEEEEEvRT_17TransferMetaFlags
jpi:_Context_NotifyDynamicSinks_m1367144344
E$:__ZN24TextDOMTransferWriteBaseI9JSONWriteE12PushMetaFlagEi
SOf:_Context_get_Current_m2717045324
ZMf:_TlsClientCertificateVerify__ctor_m110646389
Sva:__ZN6prcoreL26RemapGenericIntegerToFloatI17TexFormatARGB888815TexFormatRFloatEEvPKNS_9InnerInfoE
spi:_Context_GetServerContextSinkChain_m390126977
wvj:__ZN6il2cpp2vm17TypeNameParseInfoD2Ev
vS:__ZN4FMOD7Channel7setModeEj
s5e:_StringReader_Read_m513112775
a5a:__ZNK8Renderer8GetLayerEv
pUa:__ZN12FlareManager11DeleteFlareEi
gYb:__ZNK6Camera20GetReplacementShaderEv
Z9j:_glProgramBinary__wrapper
$me:_Decimal__ctor_m569480123_AdjustorThunk
mWf:_HttpWebRequest__cctor_m3013631978
xZj:__ZNSt3__26__treeINS_12__value_typeINS_12basic_stringIcNS_11char_traitsIcEENS_9allocatorIcEEEEPFvvEEENS_19__map_value_compareIS7_SA_NS_4lessIS7_EELb1EEENS5_ISA_EEE4findIS7_EENS_15__tree_iteratorISA_PNS_11__tree_nodeISA_PvEEiEERKT_
cob:__ZNSt3__26vectorIN9ShaderLab20SerializedSubProgram14ConstantBufferENS_9allocatorIS3_EEE7reserveEj
fta:__ZL23stbir__calculate_memoryP11stbir__info
$ph:__Z83RuntimeInvoker_Void_t1841601450_Int64_t909078037_Int32_t2071877448_Int64_t909078037PFvvEPK10MethodInfoPvPS4_
cOh:_Scrollbar_FindSelectableOnRight_m3219495255
MDi:_Logger_IsLogTypeAllowed_m243840823
jVb:__ZNK6Camera18GetRenderRectangleEv
Hyj:__ZNK15dense_hashtableINSt3__24pairIK10KeyWrapperINS1_IPK10MethodInfoP11Il2CppClassEEEjEES9_17ReflectionMapHashIS8_EN14dense_hash_mapIS9_jSD_NS9_14EqualsComparerINS0_8equal_toIS8_EEEENS0_9allocatorISB_EEE9SelectKeyESI_SK_E3endEv
R8a:__ZN13sorted_vectorIN4core12basic_stringIcNS0_20StringStorageDefaultIcEEEENSt3__24lessIS4_EE13stl_allocatorIS4_L18MemLabelIdentifier81ELi16EEE4findIS4_EENS5_11__wrap_iterIPS4_EERKT_
qCe:_Array_InternalArray__ICollection_CopyTo_TisVector3_t2243707580_m509487340_gshared
oHc:__ZL26Transfer_SimpleNativeClassI8JSONRead10RectOffsetLb1EEvRK29SerializationCommandArgumentsR31RuntimeSerializationCommandInfo
eld:__Z44CanvasRenderer_CUSTOM_INTERNAL_CALL_SetColorP12Il2CppObjectRK10ColorRGBAf
f7g:_CustomAttributeData_GetCustomAttributes_m119332220
qni:_UrlAttribute_Equals_m1587451932
dEc:__Z18Transfer_BlittableI9JSONWriteLb1EsEvRK29SerializationCommandArgumentsR31RuntimeSerializationCommandInfo
ZOc:__ZN10ClipperLib8JoinHorzEPNS_5OutPtES1_S1_S1_NS_8IntPointEb
Bod:__Z48UnityAnalyticsHandler_CUSTOM_SendCustomEventNameP12Il2CppObjectP12Il2CppString
twd:_DSAParameters_t1872138834_marshal_pinvoke_cleanup
eoc:__ZN9Transform16SetLocalRotationERK11Quaternionf
dUb:__ZN13RenderManager37RenderCamerasWithScriptableRenderLoopEi
PNe:_ASN1_Element_m2600236165
Zaj:_Canvas_get_renderMode_m3398547532
q6:__ZN23InstancedPropInfoStaticL16RegisterCallbackEPv
eH:__ZN7mecanim8skeleton25SkeletonPoseComputeLocalQEPKNS0_8SkeletonEPKNS0_13SkeletonPoseTIN4math4trsXEEEPS7_ii
dNj:__ZN6il2cpp2os19ReleaseSocketHandleEj
oX:__ZN11AudioModule16GetDSPSampleRateEv
z8g:_TypeBuilder_get_next_table_index_m1415870184
O4j:___cxa_can_catch
bIf:_SequentialSearchPrimeGeneratorBase_GenerateNewPrime_m296245934
q7d:_Char_GetUnicodeCategory_m4273361321
X6e:_Math_Round_m565516458
api:_Identity_get_ClientDynamicProperties_m767245959
kOj:__ZN6il2cpp2os5posix15PosixWaitObjectC2ENS2_4TypeE
sWb:__ZN6Camera21PostMultiCustomRenderENS_10RenderFlagEb
odh:_TypeBuilder_create_generic_class_m986834171
Fza:__ZN12_GLOBAL__N_112UploadImagesEP7ApiGLESjji14GraphicsFormatPKhjS2_iiii16TextureUsageModePh
hRb:__ZN23ShaderVariantCollection13WarmupShadersEv
HQi:_Transform_set_rotation_m2824446320
jOf:_Context_set_ProtocolNegotiated_m1177527245
bng:_UInt32_System_IConvertible_ToChar_m1056040486
Aaa:__Z25GetCommonScriptingClassesv
STf:_TlsStream_get_Length_m1562309511
Dkb:__Z27scripting_gc_collect_unsafei
tX:__ZN11AudioModule20SuspendVideoTexturesEv
uZ:__Z59Register_UnityEngine_AudioExtensionManager_GetAudioListenerv
mgc:__ZN12CubemapArrayC2E18MemLabelIdentifier18ObjectCreationMode
nfe:_Convert_ToByte_m395020137
XDb:__Z26Transfer_UnityEngineObjectI24GenerateTypeTreeTransferLb0EEvRK29SerializationCommandArgumentsR31RuntimeSerializationCommandInfo
R1c:_UNITY_FT_GlyphLoader_CheckPoints
f6e:_TextWriter_WriteLine_m1754475888
lUa:__ZN15SharedLightData7PrecalcEv
APa:__ZN10Matrix4x4fmLERKS_
pIe:_Array_InternalArray__get_Item_TisDouble_t4078015681_m2215331088_gshared
tHb:__Z35Transfer_Blittable_FixedBufferFieldI18StreamedBinaryReadILb1EEsEvRK29SerializationCommandArgumentsR31RuntimeSerializationCommandInfo
K_h:_Dictionary_2_Init_m3666073812_gshared
mSi:_Vector3_get_magnitude_m4021906415
CKa:__ZN15ArchiveReadFileD0Ev
fRe:_SymmetricTransform_TransformBlock_m1524716432
XVi:_GUIUtility_TakeCapture_m1786193394
bye:_Array_compare_TisColor32_t874517518_m3842009370_gshared
gqd:__ZN11UnityEngine15PlatformWrapper18GetOperatingSystemEv
bEf:_ReadOnlyCollection_1_System_Collections_Generic_ICollectionU3CTU3E_Remove_m974176789_gshared
yoe:_Delegate_return_type_match_m4278947849
e$d:_InputField_GenerateHightlight_m1346735465
jfj:_Physics2D_Raycast_m1275014335
pCi:_UnityEventBase_ToString_m2323130098
cwi:_Uri_ParseNoExceptions_m1151989845
Gee:_GC_SuppressFinalize_m953228702
G1c:_FT_MSB
aN:__ZN29AnimationStateNetworkProvider24SetNetworkAnimationStateER9AnimationPK24AnimationStateForNetworki
CEj:__ZN15dense_hashtableINSt3__24pairIK10KeyWrapperINS1_IP11Il2CppClassjEEES4_EES6_N6il2cpp8metadata14ArrayClassHashEN14dense_hash_mapIS6_S4_SB_NS6_14EqualsComparerINSA_17ArrayClassCompareEEENS0_9allocatorIS8_EEE9SelectKeyESF_SH_E3endEv
q7f:_SoapServices_PreLoad_m490411755
OMi:_RectOffset__ctor_m2517237351
rnh:__Z63RuntimeInvoker_RuntimeObject_Int32_t2071877448_SByte_t454417549PFvvEPK10MethodInfoPvPS4_
VZj:__ZN6il2cpp6icalls8mscorlib4Mono8Security12Cryptography18KeyPairPersistence10_CanSecureEP12Il2CppString
y6h:_Action_1_Invoke_m4180501989_gshared
WQh:_Slider__ctor_m3124136916
Mja:__ZN13GfxDeviceGLES14SetRasterStateEPK17DeviceRasterState
WZd:_InputField_set_caretPositionInternal_m231166704
FNf:_TlsServerHello__ctor_m3032108168
DEa:__ZN14SafeBinaryRead11EndTransferEv
Rwg:__ZL98ILGenerator_t99948092_CustomAttributesCacheGenerator_ILGenerator_Mono_GetCurrentOffset_m3553856682P21CustomAttributesCache
Kyb:__ZN14SafeBinaryRead8TransferI8MonoPPtrEEvRT_PKc17TransferMetaFlags
Ugi:_InternalEnumerator_1_System_Collections_IEnumerator_get_Current_m1533037706_gshared
FAa:__ZN21UniformBufferTFMethod13MapBoneBufferEj
vRf:_RecordProtocol_SendChangeCipherSpec_m3542001341
xs:__Z27InsertAnimationClipCurveIDsR14dense_hash_mapI7CurveIDj10hash_curveNSt3__28equal_toIS0_EE13stl_allocatorINS2_4pairIKS0_jEEL18MemLabelIdentifier1ELi16EEER13AnimationClip
AEe:_Array_InternalArray__set_Item_TisVector3_t2243707580_m1390667454_gshared
tzc:__ZN12GUIClipState10BeginOnGUIER10InputEvent
aGj:__ZNSt3__26vectorIcNS_9allocatorIcEEEC2Ej
Krb:__ZNSt3__26vectorIN9ShaderLab20SerializedSubProgram12UAVParameterENS_9allocatorIS3_EEE21__push_back_slow_pathIKS3_EEvRT_
cPe:_KeyPairPersistence_CanSecure_m2251009700
KC:__ZN7mecanim5human14HumanPoseClearERNS0_9HumanPoseERKNS_6bitsetILj70EEE
X4f:_ReturnMessage_get_Properties_m531965085
Aah:_GenericTypeParameterBuilder_IsSubclassOf_m563999142
Gre:_Exception_ToString_m627574695
Wdh:_AddEventAdapter_Invoke_m3970567975
TAc:__Z30Event_Get_Custom_PropModifiersP12Il2CppObject
Fz:__ZN7mecanim9animation16CreateClipOutputEPKNS0_4ClipERNS_6memory9AllocatorE
ICe:_Array_InternalArray__Insert_TisDecimal_t724701077_m1429254816_gshared
Lqh:__Z191RuntimeInvoker_Int32_t2071877448_RuntimeObject_Int32_t2071877448_Int32_t2071877448_RuntimeObject_Int32_t2071877448_SByte_t454417549_Int32U26_t455636984_BooleanU26_t3168250738_SByte_t454417549PFvvEPK10MethodInfoPvPS4_
tjg:_TimeSpan_get_Days_m1002111510
hMb:__ZNSt3__218__stable_sort_moveIRN10vector_mapI17ScriptingClassPtrPKN5Unity4TypeENS_4lessIS2_EENS_9allocatorINS_4pairIS2_S6_EEEEE13value_compareENS_11__wrap_iterIPSB_EEEEvT0_SJ_T_NS_15iterator_traitsISJ_E15difference_typeEPNSM_10value_typeE
Kmb:__ZN6Shader21AwakeFromLoadThreadedEv
Uua:__ZN6prcoreL17RemapGenericFloatI17TexFormatRGBFloat17TexFormatRGBAHalfEEvPKNS_9InnerInfoE
e1g:__ZL70InputField_t1631627530_CustomAttributesCacheGenerator_m_CharacterLimitP21CustomAttributesCache
c$j:__ZN6il2cpp2os9SemaphoreC2Eii
I8h:_InternalEnumerator_1_get_Current_m2960188445_AdjustorThunk
Myb:__ZNSt3__26vectorI8MonoPPtr13stl_allocatorIS1_L18MemLabelIdentifier1ELi16EEE8__appendEj
vSh:_Text_set_alignByGeometry_m1514652028
YWb:__ZN14qsort_internal30FindAndMovePivotToLastPositionIP17RODataReplacementi19ROSorterReplacementEEvT_S4_T0_T1_
QAa:__ZN15UniformTFMethod20IsBoneCountSupportedEi
k2e:_FileStream_get_Position_m465478322
Zfc:__Z12BuildTextureIA4_tPFvP9Texture2DPS0_iiiiEES2_PKcii13TextureFormatRKT0_17TextureColorSpaceb
_5j:dynCall_viidi
MCe:_Array_InternalArray__Insert_TisInt64_t909078037_m3039874636_gshared
fTh:_ToggleGroup_NotifyToggleOn_m997426227
FRf:_RSASslSignatureDeformatter_SetKey_m1150106904
m8:__ZN24ScriptingMethodFiltering17FilterOnSignatureENS_18MethodSearchFilterE
ONh:_Scrollbar_ClickRepeat_m3403943364
zRc:__ZThn4_N16PhysicsManager2D12BeginContactEP9b2Contact
D6b:__ZN18ScreenManagerWebGL13SetLockCursorE14CursorLockMode
l8c:_cf2_arrstack_finalize
B8e:_MonoType_GetMethodsByName_m1854415088
EUh:_Enumerator_get_CurrentValue_m3147984131_gshared
I8g:_DerivedType_GetMethods_m165266904
MQe:_RSAManaged_EncryptValue_m4089823119
Jdc:__ZN13MonoBehaviour19HandleNotificationsEPviR11MessageData
Jzi:_Component_get_gameObject_m2159020946
I$j:__ZN6il2cpp2os9EventImpl5ResetEv
Ynj:__ZN6il2cpp2vm13MetadataCache23GetMethodGenericContextEPK10MethodInfo
BPg:__ZL78Object_t1021602117_CustomAttributesCacheGenerator_Object_Instantiate_m86013740P21CustomAttributesCache
DTi:_Event_get_keyCode_m4176847855
_2e:_ReadDelegate_Invoke_m2091885836
R9g:_TypeBuilder_GetField_m2112455315
x9j:b58
y9j:b59
hUb:__ZN25CameraStackRenderingState18EndStereoRenderingEv
f9j:b52
g9j:b53
d9j:b50
e9j:b51
v9j:b56
w9j:b57
h9j:b54
s9j:b55
bke:_DateTime__ctor_m3604679583_AdjustorThunk
$Pe:_MACAlgorithm_Core_m2390605245
Ofi:_InternalEnumerator_1_System_Collections_IEnumerator_get_Current_m30488070_gshared
iic:__ZN10GameObject12CleanupClassEv
Aka:__ZN9GfxDevice25SetShaderPropertiesSharedERK19ShaderPropertySheet
zZi:_IndexedSet_1_GetEnumerator_m3646001838_gshared
cbc:__ZN19SpriteMeshGenerator4path9clip_edgeEi
$Lh:_VertexHelper_AddUIVertexTriangleStream_m4009409241
Ahc:__ZL25InitializeDefaultMaterialv
Eld:__Z53Register_UnityEngine_CanvasRenderer_get_materialCountv
G4:__GLOBAL__sub_I_runtime_graphics_lod_0_cpp
JTh:_VertexHelper_AddVert_m3290455716
IIa:__ZN17PersistentManager12UnloadStreamERKN4core12basic_stringIcNS0_20StringStorageDefaultIcEEEEb
iM:__ZN15SerializeTraitsI9OffsetPtrIN7mecanim9animation17BlendTreeConstantEEE8TransferI19StreamedBinaryWriteILb0EEEEvRS4_RT_
WVc:__ZN19CompositeCollider2D22SimplifyCompositePathsERKNSt3__26vectorINS1_IN10ClipperLib8IntPointENS0_9allocatorIS3_EEEENS4_IS6_EEEERS8_
$6a:__ZN13ScreenManager17RequestResolutionEiibi
tcg:_DESTransform__ctor_m4096028381
Etj:_il2cpp_unity_liveness_calculation_from_statics
nD:__ZNK26AnimatorControllerPlayable11DerivesFromE17ScriptingClassPtr
Iig:_Scheduler_get_Instance_m1989471839
N5a:__ZN8Renderer8TransferI17RemapPPtrTransferEEvRT_
nJh:__Z76RuntimeInvoker_Boolean_t3825574718_UIVertex_t1204258818_UIVertex_t1204258818PFvvEPK10MethodInfoPvPS4_
quf:_Collection_1_Contains_m1299140035_gshared
u9j:_glBlitFramebuffer__wrapper
gBe:_Array_InternalArray__ICollection_Add_TisUICharInfo_t3056636800_m968274080_gshared
J_i:_ObjectPool_1__ctor_m1532275833_gshared
h5i:__ZL24UnresolvedVirtualCall_71P12Il2CppObjectS0_S0_iS0_S0_S0_PK10MethodInfo
$lf:_List_1_GetIndex_m3262928832_gshared
KWc:__ZN16PhysicsManager2D19AddRigidbodyUpdatesEP11Rigidbody2D
E4b:__Z24LookRotationToQuaternionRK8Vector3fS1_P11Quaternionf
C4b:__ZN16ReflectionProbes9GetCameraEv
rrb:__ZL18IsGpuProgramUsable20ShaderGpuProgramTypePK6Shader
mUe:_ArgumentException__ctor_m2105824819
hkd:__ZN2UI6Canvas17SetSortingLayerIDEi
MPd:_BaseMeshEffect_get_graphic_m3358796463
hOj:__ZN6il2cpp2vm11MethodStack23CleanupForCurrentThreadEv
daj:_Predicate_1_Invoke_m695569038_gshared
Pbf:_Enumerator_VerifyState_m825848279_AdjustorThunk
hVa:__ZN20TierGraphicsSettings8TransferI24GenerateTypeTreeTransferEEvRT_
QVi:_GUIStyleState_Cleanup_m824895509
wAb:__ZN14SafeBinaryRead21TransferSTLStyleArrayI13dynamic_arrayI4AABBLj4EEEEvRT_17TransferMetaFlags
C$a:__ZN18UnityPropertySheet8TransferI19StreamedBinaryWriteILb0EEEEvRT_
TPf:_TlsServerCertificate_checkServerIdentity_m3836435780
tha:__ZNSt3__26__treeINS_12__value_typeIiN11TypeManager18TypeCallbackStructEEENS_19__map_value_compareIiS4_NS_4lessIiEELb1EEENS_9allocatorIS4_EEE7destroyEPNS_11__tree_nodeIS4_PvEE
ORe:_PKCS12_Decrypt_m2353135969
Fzi:_Color32_ToString_m685380321
Zed:__ZN13dynamic_arrayIS_I8Vector2fLj4EELj4EE9push_backERKS1_
OPc:__ZN16PhysicsManager2D42RegisterTransformChangeInterestForColliderEP10Collider2D
FFe:_Array_Sort_TisRuntimeObject_m3309514378_gshared
Ooa:__ZL19GetCameraTargetRectRK6Camerabb
gpd:__ZN11UnityEngine7Connect17XRDeviceInfoEventD0Ev
XWh:_Transform_1_BeginInvoke_m1786442111_gshared
SXe:_Int32_GetFormatException_m1729046182
XNa:__ZN13dynamic_arrayIN10GameObject13ComponentPairELj4EE6insertEPS1_RKS1_
Q2:__ZN21UnityDefaultAllocatorI17LowLevelAllocatorE10DeallocateEPv
Cv:__ZN15PackedIntVector8TransferI14SafeBinaryReadEEvRT_
$dh:_FieldInfo_get_IsLiteral_m267898096
ulh:__Z45RuntimeInvoker_RuntimeObject_Int64_t909078037PFvvEPK10MethodInfoPvPS4_
TSf:_SslStreamBase_EndNegotiateHandshake_m1732321201
tXh:_Transform_1_BeginInvoke_m1167293475_gshared
_Q:__ZN13AudioListener8DoUpdateEv
vCc:__ZN5Unity9rapidjson13GenericReaderINS0_4UTF8IcEES3_13JSONAllocatorE9ParseTrueILj1ENS0_25GenericInsituStringStreamIS3_EENS0_15GenericDocumentIS3_S4_S4_EEEEvRT0_RT1_
ife:__Z13bankers_roundd
ohb:__ZN14SafeBinaryRead8TransferI5RectTIfEEEvRT_PKc17TransferMetaFlags
vi:_emscripten_glGenFramebuffers
qce:_Hashtable_CopyTo_m2778915805
oha:__ZN17BaseObjectManager16StaticInitializeEPv
Y7g:_ConstructorBuilder_get_IsCompilerContext_m2796899803
Pye:_Array_IndexOf_TisUIVertex_t1204258818_m613887160_gshared
Jfe:_DateTime_CoreParse_m2014268103
LEc:__Z18Transfer_BlittableI9JSONWriteLb0EyEvRK29SerializationCommandArgumentsR31RuntimeSerializationCommandInfo
MZa:__ZN13RenderTexture15ThreadedCleanupEv
Txe:_Array_BinarySearch_TisRuntimeObject_m3361740551_gshared
s1a:__ZN12CubemapArray23VirtualRedirectTransferER14SafeBinaryRead
qf:___cxa_free_exception
iEf:_ReadOnlyCollection_1_System_Collections_IList_Add_m616574295_gshared
TXe:_Int32_ProcessTrailingWhitespace_m2812079777
Euc:__Z43RectTransform_CUSTOM_INTERNAL_set_sizeDeltaP12Il2CppObjectRK13Vector2fIcall
PXf:_WebProxy__ctor_m3679722173
qKj:__ZN15dense_hashtableINSt3__24pairIK10KeyWrapperINS1_IPKcS4_EEEiEES6_24NamespaceAndNamePairHashN14dense_hash_mapIS6_iS9_NS6_14EqualsComparerI26NamespaceAndNamePairEqualsEENS0_9allocatorIS8_EEE9SelectKeyESD_SF_E6insertERKS8_
vGa:__ZN24GenerateTypeTreeTransfer18BeginArrayTransferEPKcS1_Ri17TransferMetaFlags
Wra:__Z16DecompressCrunchPKhRjR13TextureFormatiiii18MemLabelIdentifier
Cgd:__ZZN15TilemapRenderer15InitializeClassEvEN36FunctorImpl_159kOnTilemapTileChanged4CallEPviR11MessageData
qm:___syscall51
um:___syscall54
esb:__ZN9ShaderLab9SubShader19CreateFromSubShaderERKS0_
$I:__ZNK8Animator20IsAnyRendererVisibleEv
S8c:_cff_builder_add_point1
kLj:__ZN6il2cpp2vm5Image21GetCachedResourceDataEPK11Il2CppImageRKNSt3__212basic_stringIcNS5_11char_traitsIcEENS5_9allocatorIcEEEE
JVa:__ZN4Mesh10CreateMeshEv
WAe:_Array_InternalArray__ICollection_Add_TisUInt32_t2149682021_m2629016323_gshared
txb:__Z18Transfer_BlittableI14SafeBinaryReadLb0E10ColorRGBAfEvRK29SerializationCommandArgumentsR31RuntimeSerializationCommandInfo
Aa:invoke_iiiiiiiiii
XY:__ZN11AudioSource25GetNumExtensionPropertiesEv
ACe:_Array_InternalArray__Insert_TisKeyValuePair_2_t888819835_m975554221_gshared
Zph:__Z59RuntimeInvoker_RuntimeObject_Int64_t909078037_RuntimeObjectPFvvEPK10MethodInfoPvPS4_
Pjb:__ZN18LoadSceneOperation19IntegrateTimeSlicedEi
Tig:_Scheduler_SchedulerThread_m2209572785
TKe:_SortKeyBuffer_GetResultAndReset_m2516956577
K8b:__ZN10FileSystem19SetCurrentDirectoryERKN4core12basic_stringIcNS0_20StringStorageDefaultIcEEEE
Waa:__ZN16ScriptingManager24NotifyScriptCacheReleaseEi
Eqc:__Z47Register_UnityEngine_Coroutine_ReleaseCoroutinev
LR:__ZN15AudioReverbZone13SetFMODValuesEv
v7:__ZL19StaticDestroyShaderPv
fe:_glRenderbufferStorageMultisample
BLi:_Ray_GetPoint_m2427899009
vE:__ZN23AnimationPlayableOutput17SetTargetAnimatorEP8Animator
gGc:__ZN9JSONWrite8TransferI13dynamic_arrayIN4math12int3_storageELj4EEEEvRT_PKc17TransferMetaFlags
_Ii:_X509Chain__ctor_m1113875360
OAb:__Z35Transfer_Blittable_SingleValueFieldI14SafeBinaryReadfEvRT_R17GeneralMonoObjectRK23StaticTransferFieldInfo
mQf:_TlsServerHello_processProtocol_m1241336522
$ue:_Array_InternalArray__ICollection_Remove_TisKeyValuePair_2_t888819835_m1287715465_gshared
Qpi:_ContextAttribute_IsContextOK_m3281216012
j4e:_PathTooLongException__ctor_m3212099251
s9f:_ObjectManager_RaiseDeserializationEvent_m1611173032
ax:__ZN17PackedFloatVector8TransferI18StreamedBinaryReadILb0EEEEvRT_
u2a:__ZN7Cubemap23VirtualRedirectTransferER17RemapPPtrTransfer
zsc:__Z37Register_UnityEngine_Screen_get_widthv
Akc:__ZN22BlockMemoryCacheWriter11GetPathNameEv
SVd:_Graphic_Rebuild_m2617722358
loc:__ZN23TransformChangeDispatch38CheckAndClearChangedForMultipleSystemsEyP19ProfilerInformation
Qle:_DateTime_ToString_m3108726445_AdjustorThunk
I_:__ZN19CloudServiceHandlerD2Ev
_He:_Array_InternalArray__get_Item_TisTableRange_t2011406615_m602485977_gshared
Z_d:_InputField_Append_m2623574152
gUe:_ApplicationException__ctor_m1120437222
ip:stackAlloc
Xqc:__Z44Camera_CUSTOM_INTERNAL_CALL_ScreenPointToRayP12Il2CppObjectRK8Vector3fR3Ray
NLa:__ZN25SingleBlockMemoryFileData4LockEPPv
Ybh:_MethodBuilder_GetHashCode_m1713271764
Okc:__ZN15dense_hashtableINSt3__24pairIK12TriangleEdgeiEES2_16TriangleEdgeHashN14dense_hash_mapIS2_iS5_NS0_8equal_toIS2_EENS0_9allocatorIS4_EEE9SelectKeyES8_SA_E12resize_deltaEjj
brf:_Collection_1_IsSynchronized_m1319022347_gshared
aKe:_MSCompatUnicodeTable_GetResource_m3816716847
Ksc:__Z32RectOffset_Get_Custom_PropBottomP12Il2CppObject
d2d:_Array_CreateInstance_m15016505
Ozb:__ZNSt3__26vectorI17AnimationCurveTplIfE13stl_allocatorIS2_L18MemLabelIdentifier1ELi16EEE6assignINS_11__wrap_iterIPS2_EEEENS_9enable_ifIXaasr21__is_forward_iteratorIT_EE5valuesr16is_constructibleIS2_NS_15iterator_traitsISC_E9referenceEEE5valueEvE4typeESC_SC_
P1j:_stat
Xyd:_RijndaelTransform_Decrypt128_m1282993908
_aj:_Canvas_get_isRootCanvas_m3746337338
_Be:_Array_InternalArray__ICollection_CopyTo_TisUInt16_t986882611_m3228377237_gshared
P1g:__ZL68Navigation_t1571958496_CustomAttributesCacheGenerator_m_SelectOnDownP21CustomAttributesCache
hOc:__ZN15b2DistanceJoint23InitVelocityConstraintsERK12b2SolverData
rRb:__ZNSt3__218__insertion_sort_3IRNS_4lessIN22BuiltinResourceManager8ResourceEEEPS3_EEvT0_S7_T_
pyd:_RC2_set_KeySize_m2015782960
ma:invoke_iiiiiiiiiiii
CRe:_StrongName_get_PublicKey_m3777577320
YBi:_PersistentCallGroup_Initialize_m3729167844
zU:__ZN10AudioMixer12RebindOutputEv
aEj:__ZNK15dense_hashtableINSt3__24pairIK10KeyWrapperIP11Il2CppClassES4_EES5_N6il2cpp8metadata16SZArrayClassHashEN14dense_hash_mapIS5_S4_SA_NS5_14EqualsComparerINS9_19SZArrayClassCompareEEENS0_9allocatorIS7_EEE9SelectKeyESE_SG_E5beginEv
oij:__ZN6il2cpp2vm17SetupFieldsLockedEP11Il2CppClassRKNS_2os12FastAutoLockE
aV:__ZN11AudioSourceD0Ev
Rvb:__ZN16MemoryFileSystem4NameEv
zKd:_BaseRaycaster_OnEnable_m3641767070
n7e:_MissingMemberException_get_Message_m2763732423
YHf:_PrimeGeneratorBase_get_PrimalityTest_m308005118
oxc:__Z13SetCopyBufferRKN4core12basic_stringIcNS_20StringStorageDefaultIcEEEE
vgf:_List_1_CheckIndex_m2328469916_gshared
uth:__Z75RuntimeInvoker_RuntimeObject_RuntimeObject_Decimal_t724701077_RuntimeObjectPFvvEPK10MethodInfoPvPS4_
Rmd:__ZN14UnityAnalyticsD2Ev
Woc:__Z42ScriptingGetComponentsOfTypeFromGameObjectRK26ScriptingGetComponentsArgs
STi:_GUI_set_changed_m3199207797
ipf:_List_1_get_Item_m3157283227_gshared
$ie:_Convert_ToString_m2915777777
Z$a:__ZNSt3__27__sort4IRPFbRKNS_4pairIN9ShaderLab16FastPropertyNameEN18UnityPropertySheet11UnityTexEnvEEES8_EPS6_EEjT0_SD_SD_SD_T_
h8c:_cf2_hintmap_build
b6c:_Line_Up
h9e:_MonoType_GetGenericTypeDefinition_m2363776160
tOf:_Context_set_SentConnectionEnd_m2641458842
me:_emscripten_glBufferSubData
o5d:_Buffer_BlockCopyInternal_m2627156229
LVd:_Graphic_set_material_m329335629
iKd:_ExecuteEvents_get_pointerExitHandler_m3250605428
Wta:__ZN6prcoreL12RemapGenericI15TexFormatRGB88817TexFormatARGB8888EEvPKNS_9InnerInfoE
_p:__Z17CalculateGlobalRS23TransformAccessReadOnly
CMe:_Kernel_multiByteDivide_m735279869
r1h:_Dictionary_2_ToTValue_m542772656_gshared
rig:_Thread_GetNewManagedId_internal_m3211695465
bgj:_CustomEventData_AddInt64_m890154679
tcj:_UISystemProfilerApi_EndSample_m3264820872
sra:__ZN17GenericDynamicVBO17DrawChunkInternalERK21DynamicVBOChunkHandle17ShaderChannelMaskS3_P17VertexDeclarationP16DrawBuffersRangeij
sAb:__ZN14SafeBinaryRead21TransferSTLStyleArrayI13dynamic_arrayI9BoundsIntLj4EEEEvRT_17TransferMetaFlags
xmb:__ZN22MemoryCacherReadBlocks14LockCacheBlockEjPPhS1_
p4d:_Boolean_System_IConvertible_ToChar_m2637404801_AdjustorThunk
wEd:_SecurityContext_Capture_m2535194991
tmg:_UInt16_System_IConvertible_ToSByte_m3044765342_AdjustorThunk
Es:__ZN15dense_hashtableINSt3__24pairIK7CurveIDjEES2_10hash_curveN14dense_hash_mapIS2_jS5_NS0_8equal_toIS2_EE13stl_allocatorIS4_L18MemLabelIdentifier1ELi16EEE9SelectKeyES8_SB_E12resize_deltaEjj
iVb:__ZNK9GfxDevice26GetSinglePassStereoEyeMaskEv
psh:__Z66RuntimeInvoker_Void_t1841601450_Int64_t909078037_Int32_t2071877448PFvvEPK10MethodInfoPvPS4_
D$c:__ZN20TextRenderingPrivate8FontImpl16CacheFontForTextEPtiifjPK13dynamic_arrayINS_16TextFormatChangeELj4EE
TEe:_Array_qsort_TisUIVertex_t1204258818_TisUIVertex_t1204258818_m512606409_gshared
ewd:__Z21ArrayElementTypeCheckP11Il2CppArrayPv
Mck:_emscripten_glTexSubImage2D__wrapper
AVf:_NameValueCollection_AsSingleString_m10599052
A$b:__ZN14qsort_internal30FindAndMovePivotToLastPositionIP21ForwardRenderPassDataiN23ForwardShaderRenderLoop18RenderObjectSorterILb0EEEEEvT_S6_T0_T1_
haf:_Object_InternalGetHashCode_m1371384246
SLh:_Navigation_get_defaultNavigation_m2185194207
ZXc:__ZN16PhysicsManager2D20WorldContactFilter2D13ShouldCollideEP9b2FixtureS2_
NZe:_Int32_System_IConvertible_ToSByte_m1449623243_AdjustorThunk
ATe:_AccessViolationException__ctor_m1270251537
Kmd:__Z42Register_UnityEngine_Canvas_get_rootCanvasv
rJi:_X509ExtensionCollection_IndexOf_m3972100651
Jyb:__Z14resize_trimmedINSt3__26vectorI8MonoPPtr13stl_allocatorIS2_L18MemLabelIdentifier1ELi16EEEEEvRT_j
Ve:_TTF_RenderText_Solid
nng:_UInt32_System_IConvertible_ToInt64_m3091851828
q7e:_MissingMethodException__ctor_m3898429715
R6f:_RemotingConfiguration_RegisterClientProviderTemplate_m514821425
rVh:_Enumerator_System_Collections_IEnumerator_Reset_m3085583937_gshared
Cha:__ZN15dense_hashtableINSt3__24pairIKPKcPK4RTTIEES3_N11TypeManager23ConstCharPtrHashFunctorEN14dense_hash_mapIS3_S7_SA_NS9_19ConstCharPtrEqualToE13stl_allocatorIS8_L18MemLabelIdentifier7ELi16EEE9SelectKeyESC_SF_E15insert_noresizeERKS8_
NQe:_RSAManaged_ExportParameters_m2873993187
Jee:_Convert__cctor_m926133987
_pf:_Enumerator__ctor_m2816143215_AdjustorThunk
mtd:__ZN11UnityEngine7Connect16PersistentValuesC2Ev
B_f:_X509Chain_FindParent_m404663796
pEc:__Z18Transfer_BlittableI9JSONWriteLb0E5RectTIiEEvRK29SerializationCommandArgumentsR31RuntimeSerializationCommandInfo
p7e:_MissingMemberException__ctor_m2164043278
Eej:__ZL7log2_32j
g1f:_Interpreter_GetGroupInfo_m312421921
Zxa:__Z15IsIEEE754Format14GraphicsFormat
oCb:__Z19TransferField_ArrayI17RemapPPtrTransfer27Converter_UnityEngineObjectEvRK23StaticTransferFieldInfoR31RuntimeSerializationCommandInfoRT0_
$a:invoke_iifiii
E_b:__ZN19ShaderPropertySheet24SetTextureFromTextureRefERK23FastTexturePropertyNamePK10TextureRef
p$e:_NumberFormatter_InitDecHexDigits_m1612588520
Pla:__ZN13GfxDeviceGLES15UploadTexture2DE9TextureID16TextureDimensionPKhiii14GraphicsFormati18TextureUploadFlags16TextureUsageMode
CT:__ZN4FMOD6System9createDSPEP20FMOD_DSP_DESCRIPTIONPPNS_3DSPE
TD:__ZN7mecanim9animation26DestroyControllerWorkspaceEPNS0_19ControllerWorkspaceERNS_6memory9AllocatorE
FP:__ZN4FMOD8ChannelI11EndCallbackEv
_Bd:_ToBase64Transform_TransformBlock_m2201454137
wAc:__ZN8GUIStyle14SetDefaultFontEPN13TextRendering4FontE
Kch:_OpCode_get_StackBehaviourPop_m3787015663_AdjustorThunk
Ori:_PatternCompiler_EmitCount_m3609178511
t6a:__ZN15QualitySettings23VirtualRedirectTransferER24GenerateTypeTreeTransfer
juj:__ZN6il2cpp2os10FileHandleC2Ev
_kj:__ZN30dense_hashtable_const_iteratorINSt3__24pairIK10KeyWrapperIPK19Il2CppGenericMethodEPK26Il2CppGenericMethodIndicesEES6_N6il2cpp8metadata23Il2CppGenericMethodHashEN14dense_hash_mapIS6_SA_SE_NS6_14EqualsComparerINSD_26Il2CppGenericMethodCompareEEENS0_9allocatorISB_EEE9SelectKeyESI_SK_EppEv
uUf:_HybridDictionary_Add_m1037587952
g0c:_UNITY_FT_Request_Metrics
OIj:__ZN6il2cpp6icalls8mscorlib6System10Reflection10MonoMethod29get_IsGenericMethodDefinitionEP22Il2CppReflectionMethod
uFj:__ZN6il2cpp2vm6Thread21AllocThreadStaticDataEi
Mfe:_DateTime_YearMonthDayFormats_m4204607055
rRd:_ColorBlock_set_disabledColor_m3502887543_AdjustorThunk
CRj:__ZN30dense_hashtable_const_iteratorINSt3__24pairIK10KeyWrapperIPK19Il2CppGenericMethodEP10MethodInfoEES6_N6il2cpp8metadata23Il2CppGenericMethodHashEN14dense_hash_mapIS6_S9_SD_NS6_14EqualsComparerINSC_26Il2CppGenericMethodCompareEEENS0_9allocatorISA_EEE9SelectKeyESH_SJ_EppEv
iY:__Z13RegisterClassI13AudioListenerEvv
v$i:_Aes__ctor_m4020215067
ODc:__Z18Transfer_BlittableI9JSONWriteLb0E8Vector3fEvRK29SerializationCommandArgumentsR31RuntimeSerializationCommandInfo
Uf:_emscripten_glUniform4i
QVd:_Graphic_OnDisable_m2360886868
P_i:_ObjectPool_1_Release_m1615270002_gshared
ef:_emscripten_glUniform4f
Aj:___unlock
wJa:__ZN15dense_hashtableINSt3__24pairIKN4core12basic_stringIcNS2_20StringStorageDefaultIcEEEEP20ArchiveStorageReaderEES6_20StringHash32FunctionIS6_EN14dense_hash_mapIS6_S9_SC_NS0_8equal_toIS6_EE13stl_allocatorISA_L18MemLabelIdentifier55ELi16EEE9SelectKeyESF_SI_ED2Ev
vPh:_ScrollRect_InternalCalculateOffset_m3083065267
c7b:__ZN13sorted_vectorINSt3__24pairIN4core12basic_stringIcNS2_20StringStorageDefaultIcEEEES6_EEN10vector_mapIS6_S6_27compare_tstring_insensitiveIS6_E13stl_allocatorIS7_L18MemLabelIdentifier38ELi16EEE13value_compareESD_E9erase_oneIS6_EEjRKT_
Jae:_Comparer_Compare_m4132969818
LV:__ZN20SoundChannelInstance19setReverbPropertiesEP29FMOD_REVERB_CHANNELPROPERTIES
f3h:_DefaultComparer_Equals_m2171836276_gshared
KHj:__ZN6il2cpp2vm9Exception18GetFormatExceptionEPKc
Xwc:__Z40Register_UnityEngine_Transform_IsChildOfv
rEi:_Mathf_Floor_m484333823
B8d:_ArrayList_Sort_m923359189
rgd:__ZN15dense_hashtableINSt3__24pairIKN4math12int2_storageEPN19TilemapRendererJobs18TilemapRenderChunkEEES3_NS5_22TilemapRenderChunkHashEN14dense_hash_mapIS3_S7_S9_NS0_8equal_toIS3_EE13stl_allocatorIS8_L18MemLabelIdentifier95ELi16EEE9SelectKeyESC_SF_E12maybe_shrinkEv
UCi:_Gradient_Init_m3042650694
Lrc:__Z45Register_UnityEngine_Display_GetSystemExtImplv
IA:__ZN7mecanim9animation23TransformValuesFromClipEiiiRKNS_10ValueArrayERKNS0_10ClipOutputERKNS0_12ClipBindingsERS1_RNS_14ValueArrayMaskEb
Bej:__ZL17log2withScale_128yyi
Sid:__ZNSt3__218__insertion_sort_3IRNS_6__lessIN2UI14DepthSortEntryES3_EEPS3_EEvT0_S7_T_
Zdc:__ZN2UI13RectTransform15InitializeClassEv
Bfa:__ZN13RuntimeStaticI15DirectorManagerLb0EE16StaticInitializeEPv
KHc:__ZN8JSONRead8TransferI23ManagedObjectTransfererEEvRT_PKc17TransferMetaFlagsb
sig:_Thread_get_ManagedThreadId_m1995754972
TJd:_BaseInput_get_touchCount_m998724785
dgb:__ZN11TimeManager6UpdateEv
r$d:_InputField_get_preferredWidth_m3185355225
jig:_Thread_SetState_m3198426726
V8d:_ArrayListWrapper_Contains_m1158465965
W1j:_fflush
kQa:__ZN17LightProbeContext4InitERK16LightmapSettingsRK14RenderSettings
$$j:__GLOBAL__sub_I_Error_cpp
Y2i:_AudioSource_INTERNAL_CALL_ReadExtensionPropertyName_m3694806886
Zti:_Alternation_GetWidth_m4218808325
D9a:__ZN9Texture3DD2Ev
Y1c:_ft_bitmap_glyph_bbox
HVf:_TypeConverterAttribute__ctor_m4061167050
Bpf:_Enumerator_MoveNext_m3315718998_gshared
uK:__ZN14SafeBinaryRead21TransferSTLStyleArrayI22OffsetPtrArrayTransferI9OffsetPtrIN7mecanim12statemachine21SelectorStateConstantEEEEEvRT_17TransferMetaFlags
eWj:_GC_reclaim_uninit
R2b:__Z34ProcessIndexListIsNodeVisibleStep2RK22SceneCullingParametersPK9SceneNodePK4AABBR9IndexList
hOb:__ZN10MonoScriptD2Ev
Dw:__ZN18StreamedBinaryReadILb0EE8TransferINSt3__26vectorIN13AnimationClip12Vector3CurveE13stl_allocatorIS5_L18MemLabelIdentifier26ELi16EEEEEEvRT_PKc17TransferMetaFlags
wed:__ZN17TileAnimationData8TransferI18StreamedBinaryReadILb0EEEEvRT_
CRh:_Slider_OnRectTransformDimensionsChange_m4109401172
LXf:_WebHeaderCollection_Get_m3391944907
htc:__Z39Input_CUSTOM_INTERNAL_get_mousePositionP8Vector3f
c5c:_tt_cmap13_char_next
bsb:__ZN9ShaderLab4Pass16SetupPassOptionsEv
hh:_JS_Sound_ReleaseInstance
YQg:__ZL72IL2CPPStructAlignmentAttribute_t130316838_CustomAttributesCacheGeneratorP21CustomAttributesCache
Oka:__ZN13GfxDeviceGLES19DrawBuffersIndirectEP9GfxBufferPK18VertexStreamSourceiP17VertexDeclaration17ShaderChannelMask16GfxPrimitiveType15ComputeBufferIDj
ZSd:_DefaultControls_CreateScrollbar_m770089625
xbk:_emscripten_glPixelStorei__wrapper
rWc:__Z20GetRigidbodyChildrenRK9Transform13dynamic_arrayIP11Rigidbody2DLj4EE
Hm:FUNCTION_TABLE_diddi
$uc:__Z26Material_CUSTOM_SetIntImplP12Il2CppObjectii
BXe:_Int16_System_IConvertible_ToSingle_m3277935657_AdjustorThunk
mid:__ZNK2UI14CanvasRenderer22GetTypeVirtualInternalEv
pqi:_InternalRemotingServices__cctor_m3821625125
Xsc:__Z42Register_UnityEngine_RectOffset_get_bottomv
pfg:_StringBuilder_Insert_m3322917127
o2h:_DefaultComparer_Equals_m724229128_gshared
gWh:_Enumerator_VerifyCurrent_m1702320752_AdjustorThunk
tAb:__ZN9BoundsInt8TransferI14SafeBinaryReadEEvRT_
Bhe:_Convert_ToDouble_m3520060872
Rak:_emscripten_glUniform1f__wrapper
I5j:dynCall_di
LRf:_SslCipherSuite_ComputeServerRecordMAC_m1876572367
vDc:__Z28RegisterModule_JSONSerializev
yhg:_Interlocked_CompareExchange_m3227034792
Qwd:_HashAlgorithm_get_Hash_m931854461
kji:_DefaultComparer_Compare_m3564013922_gshared
dtb:__ZN2UI13RectTransform8TransferI14SafeBinaryReadEEvRT_
HEc:__Z35Transfer_Blittable_FixedBufferFieldI9JSONWriteaEvRK29SerializationCommandArgumentsR31RuntimeSerializationCommandInfo
Uyh:__Z63RuntimeInvoker_RuntimeObject_Ray_t2469606224_Single_t2076509932PFvvEPK10MethodInfoPvPS4_
wmc:__Z20IsHumanControllingUsv
EUb:__ZNK19RenderEventsContext21ExecuteCommandBuffersEijR17ShaderPassContextR15RenderNodeQueueP19ProfilerInformationi
F3:__ZNK20DynamicHeapAllocatorI17LowLevelAllocatorE10GetPtrSizeEPKv
Iu:__ZN7mecanim5human9HumanGoal8TransferI14SafeBinaryReadEEvRT_
MPi:_Texture2D_GetPixelBilinear_m3514551520
dB:__ZN17AnimationPlayable16AllocateBindingsEPK35AnimationPlayableEvaluationConstant
KTd:_Dropdown_set_value_m2945561009
Fka:__ZN13GfxDeviceGLES17DestroyGpuProgramEPK10GpuProgram
LUe:_GregorianCalendar_GetMonth_m523739832
Twb:__Z44InitializeTransferFunctionScriptingTraitsForI18StreamedBinaryReadILb0EEEvR31TransferFunctionScriptingTraits
Q_b:__ZNSt3__218__insertion_sort_3IR23CompareReflectionProbesP31RuntimeReflectionProbeBlendInfoEEvT0_S5_T_
yCb:__ZN12NativeBufferI27Converter_SimpleNativeClassI8GradientEE15SetupForWritingER9ArrayInfo
ria:__ZNSt3__213__stable_sortIRNS_4lessIN4core12basic_stringIcNS2_20StringStorageDefaultIcEEEEEENS_11__wrap_iterIPS6_EEEEvT0_SC_T_NS_15iterator_traitsISC_E15difference_typeEPNSF_10value_typeEi
p5:__ZN12_GLOBAL__N_113StaticDestroyEPv
_We:_Guid_ToString_m51661589
hSh:_Text_set_font_m1095513810
Cfk:_glUnmapBuffer__wrapper
Qke:_DateTime_System_IConvertible_ToUInt32_m1363211018_AdjustorThunk
KYd:_InputField_get_cachedInputTextGenerator_m881618486
cuc:__Z32Mesh_CUSTOM_ExtractArrayFromListP12Il2CppObject
D6g:_Binder_get_DefaultBinder_m965620943
nIc:__ZN8JSONRead21TransferSTLStyleArrayINSt3__26vectorI8Gradient13stl_allocatorIS3_L18MemLabelIdentifier1ELi16EEEEEEvRT_17TransferMetaFlags
Agb:__ZNSt3__218__insertion_sort_3IRNS_6__lessINS_4pairIPKN5Unity4TypeE7Hash128EES8_EEPS8_EEvT0_SC_T_
gEb:__ZN10RectOffset8TransferI24GenerateTypeTreeTransferEEvRT_
d3d:_SimpleEnumerator_get_Current_m482975946
A2j:_srand
JRc:__ZNK10Collider2D15GetAttachedBodyEv
sDb:__Z18Transfer_BlittableI24GenerateTypeTreeTransferLb1E5RectTIiEEvRK29SerializationCommandArgumentsR31RuntimeSerializationCommandInfo
eSa:__ZNSt3__24listI4PPtrI6CameraENS_9allocatorIS3_EEE6removeERKS3_
Bid:__ZN2UI13CanvasManager19RemoveDirtyRendererEPNS_6CanvasEPNS_14CanvasRendererE
Zlj:__ZN15dense_hashtableI10KeyWrapperIPK17Il2CppGenericInstES4_N6il2cpp8metadata21Il2CppGenericInstHashEN14dense_hash_setIS4_S7_NS4_14EqualsComparerINS6_24Il2CppGenericInstCompareEEENSt3__29allocatorIS4_EEE8IdentityESB_SE_E12resize_deltaEjj
Xnc:__ZN8Material14DisableKeywordERKN4core12basic_stringIcNS0_20StringStorageDefaultIcEEEE
Upd:__ZN11UnityEngine15PlatformWrapper25GetGraphicsRendererStringEv
F_d:_InputField_KeyPressed_m3066588581
HQh:_Selectable_DoStateTransition_m539253088
hBd:_SHA512_Create_m439875055
m2:__ZN11UnityEngine15CloudWebService17WebFileDownloaderINS0_20WebRequestRestClientENS0_23WebRequestRestHeaderMapEED2Ev
Vb:invoke_vi
$Ad:_SHA384Managed_update_m2629600295
yPc:__ZNSt3__26vectorINS0_IN10ClipperLib8IntPointENS_9allocatorIS2_EEEENS3_IS5_EEE7reserveEj
WFc:__ZN9JSONWrite8TransferI13dynamic_arrayI9BoundsIntLj4EEEEvRT_PKc17TransferMetaFlags
Tb:invoke_vd
tb:invoke_vf
Nca:__ZNK10GameObject8IsActiveEv
A9e:_NumberFormatter__cctor_m1641464619
lXg:__ZL67g_UnityEngine_PhysicsModule_Assembly_CustomAttributesCacheGeneratorP21CustomAttributesCache
cbg:_SByte_System_IConvertible_ToUInt32_m4256495110
xMd:_PointerEventData_set_eligibleForClick_m2036057844
Nxa:__ZN18GfxFramebufferGLES23SetupDefaultFramebufferEPP17RenderSurfaceBaseS2_N2gl6HandleILNS3_10ObjectTypeE9EEE
c2j:_mbsinit
eZg:__ZL70EventSystem_t3466835263_CustomAttributesCacheGenerator_m_FirstSelectedP21CustomAttributesCache
w7a:__ZN13ScreenManager18RequestOrientationE17ScreenOrientation
Nij:__ZN6il2cpp2vm5Class12SetupMethodsEP11Il2CppClass
soc:__Z39DeleteLastPathNameComponentWithAnySlashRKN4core12basic_stringIcNS_20StringStorageDefaultIcEEEE
wzc:__ZN10GUIManager14InitGUIManagerEv
a1g:__ZL68InputField_t1631627530_CustomAttributesCacheGenerator_m_KeyboardTypeP21CustomAttributesCache
NTh:_VerticalLayoutGroup_CalculateLayoutInputHorizontal_m497637066
H3f:_MethodCall__ctor_m4106494862
Rmh:__Z167RuntimeInvoker_Void_t1841601450_SByte_t454417549_SByte_t454417549_SByte_t454417549_SByte_t454417549_SByte_t454417549_SByte_t454417549_SByte_t454417549_SByte_t454417549PFvvEPK10MethodInfoPvPS4_
FBc:__Z37Register_UnityEngine_GUIStyle_Cleanupv
Oa:invoke_iiifii
vrj:__ZN6il2cpp6icalls8mscorlib6System8MonoType13IsPointerImplEP20Il2CppReflectionType
lhe:_Convert_ToDecimal_m2284596541
Ti:_emscripten_glFramebufferRenderbuffer
G1b:__ZN19CullingGroupManager17CullAndSendEventsERK22SceneCullingParametersiRK13CullingOutputRK8JobFence
a$e:_Int64_GetHashCode_m4047499913
YNa:__ZN9Transform30EnsureTransformHierarchyExistsEv
otj:_il2cpp_field_get_flags
EX:__ZN11AudioModule26SetDefaultMicrophoneDriverEPv
B3d:_Attribute_IsDefined_m216577166
F7d:_Char_ToUpper_m109978609
dci:_InternalEnumerator_1_get_Current_m1089848479_gshared
Fpe:_Double_System_IConvertible_ToInt64_m3798425616
gOd:_StandaloneInputModule_get_repeatDelay_m3025279
Q8a:__ZN14dense_hash_mapIN4core12basic_stringIcNS0_20StringStorageDefaultIcEEEE13dynamic_arrayI4PPtrI6SpriteELj4EE20StringHash32FunctionIS4_ENSt3__28equal_toIS4_EE13stl_allocatorINSC_4pairIKS4_S9_EEL18MemLabelIdentifier81ELi16EEEixERSH_
V6b:__ZNSt3__26vectorINS_4pairIN4core12basic_stringIcNS2_20StringStorageDefaultIcEEEEPK17MessageIdentifierEENS_9allocatorISA_EEE12__move_rangeEPSA_SE_SE_
sOi:_SceneManager_LoadSceneAsyncNameIndexInternal_m1250496078
ZWb:__ZN14qsort_internal17MedianOfThreeSwapIP17RODataReplacement19ROSorterReplacementEEvT_S4_S4_T0_
Ehj:__ZNK15dense_hashtableINSt3__24pairIK10KeyWrapperIPK22Il2CppGenericParameterEP11Il2CppClassEES6_N6il2cpp5utils11PointerHashIS4_EEN14dense_hash_mapIS6_S9_SE_NS6_14EqualsComparerINS0_8equal_toIS5_EEEENS0_9allocatorISA_EEE9SelectKeyESJ_SL_E3endEv
noc:__ZN17TransformInternal36OnScaleChangedCalculateTransformTypeE15TransformAccess
Z9d:_SynchronizedArrayListWrapper_InsertRange_m709359548
PJa:__ZN17ArchiveFileSystem10ToAbsoluteEPKc
MHf:_BigInteger_op_Modulus_m13450242
Hqd:__ZN19UnityConnectService15GetPlayerUserIdEv
bie:_Convert_ToInt32_m2988544165
iFe:_Array_Resize_TisColor32_t874517518_m2219502085_gshared
DF:__ZN7mecanim6CRCKeyENS_7eStringE
DTf:_SslStreamBase_get_CanWrite_m2069502593
dlc:__ZL12SetPrefValueRKN4core12basic_stringIcNS_20StringStorageDefaultIcEEEERK9PrefValue
lSj:__ZN6il2cpp5utils11StringUtils6PrintfEPKcz
l0a:__ZN15NameToObjectMapI6ShaderNSt3__23mapI4PPtrIS0_EN4core12basic_stringIcNS5_20StringStorageDefaultIcEEEENS1_4lessIS4_EENS1_9allocatorINS1_4pairIKS4_S9_EEEEEENS1_8multimapIS9_S4_NSA_IS9_EENSC_INSD_IKS9_S4_EEEEEEE4FindERSK_
oWh:_ShimEnumerator_Reset_m98005789_gshared
T1a:__ZN24GenerateTypeTreeTransfer21TransferResourceImageE19ActiveResourceImagePKcR13StreamingInfoPvjiPKN5Unity4TypeE
MCf:_ReadOnlyCollection_1_System_Collections_IList_set_Item_m1377990618_gshared
wbh:_ILGenerator_make_room_m373147874
R1h:_Dictionary_2_Init_m1045257495_gshared
Y4d:_Boolean_CompareTo_m3691698947_AdjustorThunk
$ye:_Array_InternalArray__IndexOf_TisKeyValuePair_2_t888819835_m2660446234_gshared
mQe:_PKCS1_Verify_v15_m2571212635
nXa:__ZNSt3__212__deque_baseI18ReflectionProbeJobNS_9allocatorIS1_EEED2Ev
$E:__ZN11UnityEngine9Animation27DestroyAnimationSetBindingsEPNS0_20AnimationSetBindingsERN7mecanim6memory9AllocatorE
Hnb:__ZN15dense_hashtableINSt3__24pairIKiN4core17string_with_labelILi1EEEEEi18SInt32HashFunctionN14dense_hash_mapIiS5_S7_NS0_8equal_toIiEE13stl_allocatorIS6_L18MemLabelIdentifier1ELi16EEE9SelectKeyESA_SD_E13set_empty_keyERKS6_
rN:__ZN8Animator12CleanupClassEv
Mcg:_DecoderReplacementFallbackBuffer__ctor_m1305504326
lIc:__Z13TransferFieldI8JSONReadLb0E27Converter_SimpleNativeClassI10RectOffsetEEvRK23StaticTransferFieldInfoR31RuntimeSerializationCommandInfoRT1_
qHd:_String_IndexOf_m570401060
pqe:_Enum_System_IConvertible_ToDateTime_m2924690746
kUd:_Dropdown_CreateBlocker_m4109366440
Lwd:_HashAlgorithm_System_IDisposable_Dispose_m2106335965
lLj:__GLOBAL__sub_I_GenericMetadata_cpp
Jqj:__ZN6il2cpp6icalls8mscorlib6System8MonoType18GetFields_internalEP20Il2CppReflectionTypeiS5_
s2b:__Z24CalculateSpotLightBoundsffRK10Matrix4x4fR15SpotLightBounds
dKe:_TailoringInfo__ctor_m2248501932
D_:__ZN23CloudWebServicesManager23VirtualRedirectTransferER14SafeBinaryRead
wmh:__Z150RuntimeInvoker_Int32_t2071877448_RuntimeObject_Int32_t2071877448_Int32_t2071877448_RuntimeObject_Int32_t2071877448_Int32_t2071877448_Int32_t2071877448PFvvEPK10MethodInfoPvPS4_
v9d:_FixedSizeArrayListWrapper_InsertRange_m2690348965
MNb:__Z19ShouldTransferFieldR32SerializationCommandQueueBuilder17ScriptingClassPtriR18TransferField_InfoRK20CoreScriptingClasses
tdh:_FieldInfo_get_IsStatic_m1411173225
y3e:_MemoryStream_Read_m2289595005
pCa:__ZN26SinglePassStereoSupportExt21SetStereoMatrixCommonE21MonoOrStereoscopicEye24BuiltinShaderMatrixParamRK10Matrix4x4f
iU:__ZN5audio5mixer22UpdateAudioMixerMemoryERKNS0_18AudioMixerConstantERNS0_16AudioMixerMemoryEfPN4FMOD6SystemEf
VZc:__ZL21InitializeCachedStripPv
BGj:__ZN6il2cpp6icalls8mscorlib6System9Threading6Thread23GetCachedCurrentCultureEP12Il2CppThread
aQh:_Selectable_get_allSelectables_m3045831006
LPa:__ZNK6Camera22GetWorldToCameraMatrixEv
ZNj:__ZN6il2cpp2vm12GenericClass11IsValueTypeEP18Il2CppGenericClass
JMb:__ZN13MonoBehaviour7SetNameEPKc
GKf:_ContentInfo__ctor_m3579805263
nkj:__ZN15dense_hashtableINSt3__24pairIK10KeyWrapperIPKcEP11Il2CppClassEES5_N6il2cpp5utils11StringUtils12StringHasherIS4_EEN14dense_hash_mapIS5_S8_SE_NS5_14EqualsComparerINSB_13VmStringUtils21CaseSensitiveComparerEEENS0_9allocatorIS9_EEE9SelectKeyESJ_SL_E15set_deleted_keyERKS9_
iPh:_ScrollRect_get_verticalNormalizedPosition_m1701804869
U4:__GLOBAL__sub_I_runtime_shaders_shaderimpl_0_cpp
dkb:__ZN18AwakeFromLoadQueue5ClearEv
CYh:_Enumerator_get_Current_m2986380627_AdjustorThunk
X0b:__ZNSt3__27__sort5IR15ReflProbeSorterPP15ReflectionProbeEEjT0_S6_S6_S6_S6_T_
Zfa:__ZN8Playable10DisconnectEPS_i
u9h:_InternalEnumerator_1_get_Current_m1526874475_AdjustorThunk
wk:_glGenTransformFeedbacks
zIa:__ZN13LoadOperationD2Ev
UOe:_KeyPairPersistence__ctor_m1817312194
bbj:_Canvas_set_scaleFactor_m3986864146
xue:_Array_InternalArray__ICollection_Contains_TisMark_t2724874473_m1640201705_gshared
AQb:__Z21PlayerStartFirstSceneb
l9g:_TypeBuilder_get_AssemblyQualifiedName_m2097258567
_$a:__ZNSt3__27__sort5IRPFbRKNS_4pairIN9ShaderLab16FastPropertyNameEN18UnityPropertySheet11UnityTexEnvEEES8_EPS6_EEjT0_SD_SD_SD_SD_T_
Gpa:__ZNK7ApiGLES18GetExtensionStringEv
TAa:__ZN31TransformFeedbackSkinPoseBufferD0Ev
Sak:_emscripten_glVertexAttrib1f__wrapper
qfd:__ZN15TilemapRenderer23VirtualRedirectTransferER14SafeBinaryRead
_tb:__ZNK12HandlerChain4SizeERK13FileEntryData
M2h:_DefaultComparer_Equals_m1281232537_gshared
gp:FUNCTION_TABLE_iiiiiiiii
SZd:_InputField_set_asteriskChar_m619206227
ocg:_DES_IsSemiWeakKey_m3967392585
ZLc:__Z22GetPhysicsGroundBody2Dv
HXe:_Int16_System_IConvertible_ToUInt32_m883204517_AdjustorThunk
Mgh:_MonoProperty_get_PropertyType_m1921201152
ESd:_FloatTween_TweenValue_m3881535116_AdjustorThunk
UUj:_GC_allochblk
skb:__Z15UnloadGameScenev
xfk:_glCheckFramebufferStatus__wrapper
_ib:__ZNSt3__26vectorIN30RuntimeInitializeOnLoadManager15ClassMethodInfoE13stl_allocatorIS2_L18MemLabelIdentifier13ELi16EEE7reserveEj
CYj:__ZN6il2cpp2vm6Atomic9IncrementEPVi
Ixj:__ZN15dense_hashtableINSt3__24pairIK10KeyWrapperIPK10Il2CppTypeEjEES6_N6il2cpp8metadata14Il2CppTypeHashEN14dense_hash_mapIS6_jSB_NS6_14EqualsComparerINSA_26Il2CppTypeEqualityComparerEEENS0_9allocatorIS8_EEE9SelectKeyESF_SH_E3endEv
RGf:_BigInteger_get_Rng_m2525288368
_$f:_X509ExtensionEnumerator_Reset_m3200687545
Kae:_CaseInsensitiveHashCodeProvider__ctor_m3775398833
tsc:__Z36Renderer_Get_Custom_PropSortingOrderP12Il2CppObject
KUi:_GUIContent__cctor_m976962423
Nxj:__ZNK15dense_hashtableINSt3__24pairIK10KeyWrapperIPK10Il2CppTypeEjEES6_N6il2cpp8metadata14Il2CppTypeHashEN14dense_hash_mapIS6_jSB_NS6_14EqualsComparerINSA_26Il2CppTypeEqualityComparerEEENS0_9allocatorIS8_EEE9SelectKeyESF_SH_E13find_positionERS7_
PYa:__ZN7Texture5ResetEv
oLc:__ZNK14b2CapsuleShape7RayCastEP15b2RayCastOutputRK14b2RayCastInputRK11b2Transformi
JCb:__Z18Transfer_BlittableI24GenerateTypeTreeTransferLb1EhEvRK29SerializationCommandArgumentsR31RuntimeSerializationCommandInfo
_pc:__ZNK16TypeTreeIterator10ByteOffsetEv
vVd:_Graphic_get_rectTransform_m2697395074
gfa:__ZnwjRKSt9nothrow_t
wI:__ZN8Animator11ClearObjectEv
bZf:_X500DistinguishedName_Decode_m3070515374
H_a:__ZN14SafeBinaryRead19TransferSTLStyleMapINSt3__23mapI39DeprecatedFastPropertyNameSerializationN18UnityPropertySheet11UnityTexEnvENS1_4lessIS3_EENS1_9allocatorINS1_4pairIKS3_S5_EEEEEEEEvRT_17TransferMetaFlags
UWf:_IPv6Address_set_ScopeId_m1442934355
t9f:_ObjectManager_RaiseOnDeserializedEvent_m512850179
Upc:__Z35UnregisterSerializationCacheBuilderPFv17ScriptingClassPtrR23CachedSerializationDataRbE
BQa:__Z30GetBuiltinVectorParamArraySize24BuiltinShaderVectorParam
QJe:_CodePointIndexer__ctor_m797342079
E4a:__ZN18StreamedBinaryReadILb0EE21TransferSTLStyleArrayI13dynamic_arrayI7Hash128Lj8EEEEvRT_17TransferMetaFlags
t5a:__ZN21RendererUpdateManager11AddRendererER8Renderer
Vcc:__Z13RegisterClassI15ResourceManagerEvv
Bxb:__Z35Transfer_Blittable_FixedBufferFieldI14SafeBinaryReadsEvRK29SerializationCommandArgumentsR31RuntimeSerializationCommandInfo
Qab:__ZN14SafeBinaryRead21TransferSTLStyleArrayI13dynamic_arrayIfLj4EEEEvRT_17TransferMetaFlags
mSj:__ZN6il2cpp5utils11StringUtils11Utf16ToUtf8EPKDs
Dib:__ZN18StreamedBinaryReadILb0EE21TransferSTLStyleArrayINSt3__26vectorIN15ResourceManager10DependencyE13stl_allocatorIS5_L18MemLabelIdentifier52ELi16EEEEEEvRT_17TransferMetaFlags
jqd:__ZN11UnityEngine15PlatformWrapper20IsRootedOrJailbrokenEv
DTb:__ZZ23InitPlayerLoopCallbacksvEN52PreLateUpdateScriptRunBehaviourLateUpdateRegistrator7ForwardEv
DZf:_X509Certificate2_GetNameInfo_m402390219
o2b:__Z33IntersectAABBPlaneBoundsOptimizedRK4AABBPKN4math7_float4Ei
i3d:_Swapper_BeginInvoke_m2652511022
MMi:_RectOffset_t3387826427_marshal_pinvoke_back
Ska:__ZN9GfxDevice19EndGeometryJobFrameEv
DCb:__ZN27Converter_SimpleNativeClassI17AnimationCurveTplIfEE17ScriptingToNativeER18ScriptingObjectPtrPS1_
E_j:__ZN6il2cpp8metadata24Il2CppGenericInstCompare7CompareERK10KeyWrapperIPK17Il2CppGenericInstES8_
Xkj:__ZNK15dense_hashtableINSt3__24pairIK10KeyWrapperIPK19Il2CppGenericMethodEPK26Il2CppGenericMethodIndicesEES6_N6il2cpp8metadata23Il2CppGenericMethodHashEN14dense_hash_mapIS6_SA_SE_NS6_14EqualsComparerINSD_26Il2CppGenericMethodCompareEEENS0_9allocatorISB_EEE9SelectKeyESI_SK_E5beginEv
MVd:_Graphic_get_materialForRendering_m2600868951
Sy:__ZN27AnimationLayerMixerPlayable21UpdateLayerParametersEv
Ukc:__ZN9Polygon2D7DefaultEv
buf:_Collection_1_System_Collections_IList_Contains_m3210868188_gshared
tec:__ZNK17AnimationCurveTplIfE8EvaluateEfPNS0_5CacheE
HSb:__Z31ManagerContextInitializeClassesv
KYe:_NumberFormatter_AppendIntegerString_m868842252
fvg:__ZL53SortedList_t3004938869_CustomAttributesCacheGeneratorP21CustomAttributesCache
K0c:_UNITY_FT_List_Finalize
aYb:__Z20LightAttenuateApproxRKfS0_
DFa:__ZN9Scripting30SetCachedPtrOnScriptingWrapperE18ScriptingObjectPtrP6Object
$Fb:__Z18Transfer_BlittableI19StreamedBinaryWriteILb0EELb0EdEvRK29SerializationCommandArgumentsR31RuntimeSerializationCommandInfo
MId:_ASCIIEncoding_GetBytes_m3649277167
ONc:__ZN16b2PrismaticJoint4DumpEv
jM:__ZN7mecanim9animation21BlendTreeNodeConstant8TransferI19StreamedBinaryWriteILb0EEEEvRT_
zUa:__ZN18BlockRangeInternal16PopLastNodeIndexEP10BlockRangeji
npg:_Version__ctor_m2972638031
hNe:_Kernel_MultiplyByDword_m155008287
kab:__ZN4MeshD0Ev
Tph:__Z121RuntimeInvoker_Void_t1841601450_Int64_t909078037_RuntimeObject_RuntimeObject_Int64_t909078037_RuntimeObject_RuntimeObjectPFvvEPK10MethodInfoPvPS4_
Hvd:__ZL42RequestRecreateEyeTexturesBeforeNextUpdatev
Ioa:__ZNK6Camera20IsCurrentlyRenderingEv
HA:__ZN21AnimationClipPlayable23ProcessRootMotionNoClipEPK35AnimationPlayableEvaluationConstantPK32AnimationPlayableEvaluationInputP33AnimationPlayableEvaluationOutput
nld:__Z36CanvasRenderer_CUSTOM_SetPopMaterialP12Il2CppObjectS0_i
Huj:_UpdatedEventHandler_Invoke_m4240581743
OEc:__Z18Transfer_BlittableI9JSONWriteLb0EdEvRK29SerializationCommandArgumentsR31RuntimeSerializationCommandInfo
jNc:__ZNK11b2GearJoint16GetReactionForceEf
jL:__ZN15SerializeTraitsI9OffsetPtrIN7mecanim9animation17BlendTreeConstantEEE8TransferI24GenerateTypeTreeTransferEEvRS4_RT_
oTh:_Toggle_OnDidApplyAnimationProperties_m325835214
T0j:_wctomb
$qc:__Z27Camera_CUSTOM_GetAllCamerasP11Il2CppArray
Kee:_Convert_InternalFromBase64String_m3682756716
ad:___cxa_rethrow
rGc:__Z18Transfer_BlittableI8JSONReadLb1EhEvRK29SerializationCommandArgumentsR31RuntimeSerializationCommandInfo
HUc:__ZN18Overlap2DQueryBase13ReportFixtureEP9b2Fixture
Jjg:_TimeSpan_Add_m3228293154
P2h:_DefaultComparer_Equals_m4098991076_gshared
i5b:__ZN13MonoBehaviour8SetClassE17ScriptingClassPtr18ScriptingObjectPtr
lKf:_RC4__cctor_m523650203
Upi:_CrossContextDelegate_Invoke_m2908136830
Oub:__ZN20LocalFileSystemPosix4ReadER13FileEntryDatayyPvPy
C$b:__ZNSt3__211__sift_downIRN23ForwardShaderRenderLoop18RenderObjectSorterILb0EEEP21ForwardRenderPassDataEEvT0_S7_T_NS_15iterator_traitsIS7_E15difference_typeES7_
B6e:_UnmanagedMemoryStream_get_Position_m4093669769
ZMb:__ZN13MonoBehaviour5DoGUIENS_13GUILayoutTypeEii
f9g:_DerivedType_IsDefined_m555719351
_qi:_Mark_get_IsDefined_m3332701456
oHa:__ZNK12TLSAllocatorI14StackAllocatorE8ContainsEPKv
fgb:__ZN11TimeManager8TransferI18StreamedBinaryReadILb0EEEEvRT_
Mgd:__ZN14qsort_internal13Partition3WayIP22TilemapRenderChunkTimeiPFbRKS1_S4_ES6_EENSt3__24pairIT_S9_EES9_S9_T0_T1_T2_
Asb:__ZN15SerializeTraitsINSt3__23mapI4PPtrI6ShaderEN4core12basic_stringIcNS5_20StringStorageDefaultIcEEEENS0_4lessIS4_EENS0_9allocatorINS0_4pairIKS4_S9_EEEEEEE8TransferI24GenerateTypeTreeTransferEEvRSH_RT_
zcg:_DESTransform__cctor_m1179482644
xab:__ZN14BlendShapeData8TransferI14SafeBinaryReadEEvRT_
Vfj:_CustomEventData_AddString_m1682987767
Aqe:_Enum_Format_m2294492821
E1a:__ZN7Texture25ReloadFromStorageIfNeededEPvb
IDc:__Z35Transfer_Blittable_FixedBufferFieldI9JSONWritehEvRK29SerializationCommandArgumentsR31RuntimeSerializationCommandInfo
yWh:_ShimEnumerator_get_Entry_m2332479818_gshared
wle:_DateTime_CheckDateTimeKind_m329345155_AdjustorThunk
Yad:_Update_Max
PFj:__ZN6il2cpp6icalls8mscorlib6SystemL15ThrowNoWideningEv
Bec:__ZNK23TransformChangeDispatch24GetChangeMaskForInterestENS_12InterestTypeE
ywc:__Z45Transform_CUSTOM_INTERNAL_CALL_TransformPointP12Il2CppObjectRK8Vector3fRS1_
Ltf:__ZN23InterfaceActionInvoker2Ii18Color32_t874517518E6InvokeEjP11Il2CppClassP12Il2CppObjectiS0_
g9b:__ZL10KeyHandleriPK23EmscriptenKeyboardEventPv
ORc:__ZN15dense_hashtableINSt3__24pairIKNS1_IPK10Collider2DS4_EE11Collision2DEES5_NS2_23ColliderPairHashFunctorEN14dense_hash_mapIS5_S7_S9_NS0_8equal_toIS5_EE13stl_allocatorIS8_L18MemLabelIdentifier67ELi16EEE9SelectKeyESC_SF_EC2ERKSI_j
Z_a:__ZNSt3__26__treeINS_12__value_typeI39DeprecatedFastPropertyNameSerializationfEENS_19__map_value_compareIS2_S3_NS_4lessIS2_EELb1EEENS_9allocatorIS3_EEE7destroyEPNS_11__tree_nodeIS3_PvEE
H4c:_tt_cmap4_char_index
ikg:_TimeSpan_op_Addition_m3421801803
iub:__ZNK12HandlerChain8IsHiddenERK13FileEntryData
v0g:__ZL50Graphic_t2426225576_CustomAttributesCacheGeneratorP21CustomAttributesCache
TBb:__ZL26Transfer_SimpleNativeClassI17RemapPPtrTransfer10RectOffsetLb0EEvRK29SerializationCommandArgumentsR31RuntimeSerializationCommandInfo
l1c:__Z14ValidateFormatR13dynamic_arrayIN20TextRenderingPrivate16TextFormatChangeELj4EE
Tv:__ZNSt3__26vectorIN13AnimationClip15QuaternionCurveE13stl_allocatorIS2_L18MemLabelIdentifier26ELi16EEE6assignINS_11__wrap_iterIPS2_EEEENS_9enable_ifIXaasr21__is_forward_iteratorIT_EE5valuesr16is_constructibleIS2_NS_15iterator_traitsISC_E9referenceEEE5valueEvE4typeESC_SC_
rdk:_glUniform1fv__wrapper
ske:_DateTime_System_IConvertible_ToInt32_m2789391054_AdjustorThunk
Hwh:__Z73RuntimeInvoker_Single_t2076509932_Vector3_t2243707580_Vector3_t2243707580PFvvEPK10MethodInfoPvPS4_
RNe:_ASN1Convert_FromInt32_m1541043489
ANd:_PointerInputModule_ProcessMove_m3200120346
rfe:_Convert_ToByte_m1008221737
mJf:_MD2Managed_MD2Transform_m3825201358
b2g:__ZL69Scrollbar_t3248359358_CustomAttributesCacheGenerator_m_OnValueChangedP21CustomAttributesCache
WOc:__ZN10ClipperLib14PointInPolygonERKNS_8IntPointEPNS_5OutPtE
PTd:_Dropdown_AddOptions_m835420907
xQa:__ZNK9ShaderLab20ShaderBlendStateDesc15ToGfxBlendStateEPK19ShaderPropertySheetS3_R13GfxBlendState
$Qd:_CanvasUpdateRegistry_IsRebuildingLayout_m1677873278
EE:__ZN11UnityEngine9AnimationL22GenericBindingCallbackEPvS1_i
DH:__ZN12_GLOBAL__N_121ProcessAnimationBeginER35AnimationPlayableEvaluationConstantR32AnimationPlayableEvaluationInputR33AnimationPlayableEvaluationOutput
hsb:__ZN9ShaderLab9IntShaderC2Ev
Crj:__ZN6il2cpp6icalls8mscorlib6SystemL9IsPrivateEPK9EventInfo
eZj:__ZN6il2cpp6icalls8mscorlib6System10Reflection4Emit11TypeBuilder20setup_internal_classEP27Il2CppReflectionTypeBuilderS7_
I7h:_ArrayReadOnlyList_1_IndexOf_m1809425308_gshared
wtj:_il2cpp_gc_disable
SCc:__ZN5Unity9rapidjson6WriterI16TempBufferWriterNS0_4UTF8IcEES4_13JSONAllocatorE11WriteUint64Ey
hMd:_ExecuteEvents_U3Cs_HandlerListPoolU3Em__0_m2903690915
zce:_Hashtable_Clone_m165405752
RNc:__ZN16b2PrismaticJoint24SolveVelocityConstraintsERK12b2SolverData
ohj:__ZN13Il2CppHashMapIPK22Il2CppGenericParameterP11Il2CppClassN6il2cpp5utils11PointerHashIS1_EENSt3__28equal_toIS2_EENS9_9allocatorINS9_4pairIK10KeyWrapperIS2_ES4_EEEEEC2EjRKS8_RKSB_
JHc:__ZN8JSONRead21TransferSTLStyleArrayI31ArrayOfManagedObjectsTransfererEEvRT_17TransferMetaFlags
yMa:__Z15CreateDirectoryRKN4core12basic_stringIcNS_20StringStorageDefaultIcEEEE
cYa:__Z21CalculateGlobalMatrix23TransformAccessReadOnly
Stg:__ZL70InternalsVisibleToAttribute_t1037732567_CustomAttributesCacheGeneratorP21CustomAttributesCache
kgb:__ZNK13BuildSettings22GetTypeVirtualInternalEv
i1e:_MonoIO_GetCurrentDirectory_m1509324201
Yfg:_UTF32Encoding_GetHashCode_m4205784236
mge:_DateTime_ToUniversalTime_m1815024752
Tcc:__Z13RegisterClassI14RenderSettingsEvv
R3b:__ZNK25CameraStackRenderingState25CalculateCameraTargetTypeEv
DXj:_GC_set_on_event
iJh:__Z80RuntimeInvoker_Boolean_t3825574718_Navigation_t1571958496_Navigation_t1571958496PFvvEPK10MethodInfoPvPS4_
$qf:_Collection_1_ConvertItem_m3563206219_gshared
fkg:_TimeSpan_Subtract_m3597791685_AdjustorThunk
WC:__ZN7mecanim12statemachine24CreateStateMachineOutputEPKNS0_20StateMachineConstantEjRNS_6memory9AllocatorE
XNj:__ZN6il2cpp2vm12GenericClass8GetClassEP18Il2CppGenericClass
rla:__ZNK9GfxDevice27GetActiveRenderSurfaceWidthEv
Wpd:__ZN11UnityEngine15PlatformWrapper28GetCleanGraphicsFixedVersionEv
w:tempBigIntP
Xvj:__ZN6il2cpp2vm4Type7GetTypeEPK10Il2CppType
Dac:__ZN16SpriteRenderData28PrepareRenderingDataIfNeededEv
n3d:_AssemblyLoadEventHandler_Invoke_m108373765
deb:__ZN18ProceduralMaterial17MainThreadCleanupEv
zNd:_PointerInputModule_ShouldStartDrag_m4163638715
m5i:__ZL24UnresolvedVirtualCall_76P12Il2CppObjectPK10MethodInfo
$ua:__ZN6prcoreL17RemapGenericFloatI18TexFormatRGBAFloat17TexFormatRGBAHalfEEvPKNS_9InnerInfoE
eUb:__Z16FindCameraStacksRKNSt3__24listI4PPtrI6CameraENS_9allocatorIS3_EEEERNS_6vectorI11CameraStackNS4_ISA_EEEE
c4a:__ZN10GISettings8TransferI14SafeBinaryReadEEvRT_
An:FUNCTION_TABLE_vifff
XCf:_ReadOnlyCollection_1_System_Collections_Generic_ICollectionU3CTU3E_Remove_m2957273994_gshared
a6b:__ZN19CustomRenderTexture12ClearGPUDataEv
pKd:_BaseInputModule_ShouldActivateModule_m2899747874
tIh:__Z86RuntimeInvoker_Int32_t2071877448_DateTimeOffset_t1362988906_DateTimeOffset_t1362988906PFvvEPK10MethodInfoPvPS4_
YYa:__ZN13RenderTexture13ApplySettingsEv
gyc:__ZN4Grid11CellToLocalERKNS_9GridStateERKN4math5_int3E
Ze:_JS_Sound_SetListenerPosition
sn:FUNCTION_TABLE_fiffi
wch:_ModuleBuilderTokenGenerator_GetToken_m3427457873
dld:__Z55Register_UnityEngine_CanvasGroup_get_ignoreParentGroupsv
pQh:_Selectable_get_isPointerInside_m3162215687
zye:_Array_FindIndex_TisRuntimeObject_m4149904176_gshared
Zef:_List_1_System_Collections_IList_Contains_m149594880_gshared
Uog:_UnauthorizedAccessException__ctor_m3480402128
eNe:_BigInteger_op_Modulus_m3788401748
kga:__ZZN15DirectorManager15InitializeClassEvEN45FixedUpdateDirectorFixedSampleTimeRegistrator7ForwardEv
uqi:_ArgInfo_GetInOutArgs_m3184132151
nmb:__ZNK8Material16MarkDependenciesER27GarbageCollectorThreadState
RRc:__ZN15dense_hashtableINSt3__24pairIKNS1_IPK10Collider2DS4_EE11Collision2DEES5_NS2_23ColliderPairHashFunctorEN14dense_hash_mapIS5_S7_S9_NS0_8equal_toIS5_EE13stl_allocatorIS8_L18MemLabelIdentifier67ELi16EEE9SelectKeyESC_SF_E5clearEv
REc:__ZL17Transfer_GUIStyleI9JSONWriteLb0EEvRK29SerializationCommandArgumentsR31RuntimeSerializationCommandInfo
UYb:__Z28GetHaloVertexPositionsStereoP8Vector3fRKS_S2_f
Qva:__ZN6prcoreL27StretchGenericFloatBilinearI15TexFormatRGHalfEEvPKNS_9InnerInfoE
bcf:_Enumerator_MoveNext_m598197344_AdjustorThunk
P4:__GLOBAL__sub_I_runtime_misc_0_cpp
Bt:__ZN13AnimationClip23VirtualRedirectTransferER18StreamedBinaryReadILb0EE
eId:_String_JoinUnchecked_m1880555587
DQa:__ZNK9ShaderLab7Program21GetMatchingSubProgramEPK6ShaderPKNS_4PassERK16ShaderKeywordSetjPS7_R19ShaderSnippetResult
BCe:_Array_InternalArray__Insert_TisKeyValuePair_2_t1174980068_m2464431954_gshared
Tuc:__Z49Register_UnityEngine_Resources_GetBuiltinResourcev
T4c:_tt_cmap10_char_index
LTd:_Dropdown_Awake_m335654827
u1h:_Dictionary_2_U3CCopyToU3Em__0_m1479035402_gshared
rae:_BitArray_set_Item_m3801461194
Shj:__ZN15dense_hashtableINSt3__24pairIK10KeyWrapperIPK22Il2CppGenericParameterEP11Il2CppClassEES6_N6il2cpp5utils11PointerHashIS4_EEN14dense_hash_mapIS6_S9_SE_NS6_14EqualsComparerINS0_8equal_toIS5_EEEENS0_9allocatorISA_EEE9SelectKeyESJ_SL_E3endEv
QNi:_RectTransform_SetSizeWithCurrentAnchors_m861800242
PHd:_String_Remove_m3580114465
bWi:_GUIUtility_EndGUIFromException_m3100752188
$Y:__ZN11AudioSource24ClearExtensionPropertiesE12PropertyName
Aqb:__ZN9ShaderLab22SerializedBindChannels8TransferI19StreamedBinaryWriteILb0EEEEvRT_
cAb:__ZN15SerializeTraitsI5RectTIiEE8TransferI14SafeBinaryReadEEvRS1_RT_
Psh:__Z82RuntimeInvoker_Int32_t2071877448_RuntimeObject_Int32_t2071877448_Int16_t4041245914PFvvEPK10MethodInfoPvPS4_
zAc:__ZN5IMGUI20MoveWindowFromLayoutER8GUIStateiRK5RectTIfE
Q0c:_UNITY_FT_Stream_ReadUShort
d_d:_InputField_OnEnable_m3797157569
$sc:__Z51Register_UnityEngine_GUILayer_INTERNAL_CALL_HitTestv
myc:__ZN4Grid8TransferI18StreamedBinaryReadILb0EEEEvRT_
G_a:__ZNSt3__26__treeINS_12__value_typeIN4core12basic_stringIcNS2_20StringStorageDefaultIcEEEES6_EENS_19__map_value_compareIS6_S7_NS_4lessIS6_EELb1EEE13stl_allocatorIS7_L18MemLabelIdentifier1ELi16EEE7destroyEPNS_11__tree_nodeIS7_PvEE
P9i:_Nullable_1__ctor_m796575255_gshared
sTj:__ZN6il2cpp2vm8Profiler7GCEventE13Il2CppGCEvent
Cke:_DateTimeUtils_ToString_m3878360633
DEj:__ZN15dense_hashtableINSt3__24pairIK10KeyWrapperIP11Il2CppClassES4_EES5_N6il2cpp8metadata16SZArrayClassHashEN14dense_hash_mapIS5_S4_SA_NS5_14EqualsComparerINS9_19SZArrayClassCompareEEENS0_9allocatorIS7_EEE9SelectKeyESE_SG_E4findERS6_
OFj:__ZN6il2cpp6icalls8mscorlib6SystemL16ThrowInvalidCastEPK11Il2CppClassS5_
Xqa:__Z13IsDepthFormat14GraphicsFormat
uhb:__ZN12AspectRatios8TransferI24GenerateTypeTreeTransferEEvRT_
hyi:_Bounds_GetHashCode_m458298790
yZc:__Z12FormatBufferPciPKcz
ROd:_TouchInputModule_Process_m1373751353
Pbh:_MethodBuilder_Invoke_m1874904900
cij:__ZN6il2cpp2vm5Class13GetArrayClassEP11Il2CppClassj
GQb:__ZN19RuntimeSceneManager18LoadSceneAsyncIntoER10UnitySceneRKN4core12basic_stringIcNS2_20StringStorageDefaultIcEEEENS_11LoadingModeEb
S8g:_DerivedType_InvokeMember_m4149586013
UTf:_TlsStream_SetLength_m1460039587
GAc:__ZN11IMGUIModule12AddGUIScriptER8ListNodeI13MonoBehaviourE
rb:invoke_difi
Jea:__ZL50StaticRegisterSceneLoadedCallback_LightmapSettingsPv
Woh:__Z119RuntimeInvoker_Void_t1841601450_RuntimeObject_RuntimeObject_RuntimeObject_RuntimeObject_Int32_t2071877448_RuntimeObjectPFvvEPK10MethodInfoPvPS4_
Rm:FUNCTION_TABLE_iiffi
OWd:_GridLayoutGroup_get_cellSize_m1061731753
vqa:__ZN21GLESGpuProgramApplier11ApplyVectorERKN20GpuProgramParameters14ValueParameterEPK8Vector4ft
Wod:__ZN22BaseUnityConnectClient17SaveSessionValuesEv
Cvi:_Parser_IsIgnoreCase_m4155598997
lUi:_GUILayoutUtility_LayoutSingleGroup_m3024581181
c7c:_cff_size_done
j2b:__ZN29ExtractProjectionPlanesHelperILb1EE5ApplyERK10Matrix4x4fP5Plane
MUb:__ZN22RenderingCommandBuffer13GetAndCheckRTE24BuiltinRenderTextureTypeRKN9ShaderLab16FastPropertyNameEPKcPP13RenderTexture
q6b:__ZN6Camera34UpdatePreviousViewProjectionMatrixEv
d_a:__ZN9ShaderLab11ShaderState25RemoveUnsupportedProgramsEPK6Shader
urb:__ZL23AddGpuProgramParametersR20GpuProgramParametersRKNSt3__26vectorIN9ShaderLab20SerializedSubProgram15MatrixParameterENS1_9allocatorIS5_EEEERKNS2_INS4_15VectorParameterENS6_ISB_EEEEiP16PropertyNamesSet
ixc:__Z44Register_UnityEngine_Object_DestroyImmediatev
gs:__ZNSt3__26__sortIR12GreaterLayerPP14AnimationStateEEvT0_S6_T_
tzg:__ZL62_ConstructorBuilder_t1236878896_CustomAttributesCacheGeneratorP21CustomAttributesCache
xnc:__Z26scripting_class_has_parent17ScriptingClassPtrS_
H_e:_Int64_System_IConvertible_ToInt16_m2022633688_AdjustorThunk
saf:_OrdinalComparer__ctor_m2952942058
AQi:_Transform_INTERNAL_get_localPosition_m130325652
JZ:__Z71Register_UnityEngine_AudioSource_INTERNAL_CALL_ClearExtensionPropertiesv
Q$j:__ZN6il2cpp8metadata25Il2CppGenericClassCompare7CompareEPK18Il2CppGenericClassS4_
gI:__ZNK8Animator20IsInMatchTargetStateEv
TQ:__ZN13AudioListener23VirtualRedirectTransferER24GenerateTypeTreeTransfer
Gm:FUNCTION_TABLE_viiifiii
lBc:__Z36Register_UnityEngine_GUI_set_changedv
WRd:_ColorTween_get_startColor_m278546349_AdjustorThunk
Zdg:_Encoding_get_Unicode_m1382741113
cyi:_Behaviour_set_enabled_m602406666
Hoi:_LifetimeServices_set_SponsorshipTimeout_m1403222216
K7d:_Char_ToString_m1401375624_AdjustorThunk
iAe:_Array_InternalArray__ICollection_Add_TisTableRange_t2011406615_m147373358_gshared
Kge:_Convert_ToDateTime_m1251728572
kAe:_Array_InternalArray__ICollection_Add_TisBoolean_t3825574718_m1009318882_gshared
SDf:_ReadOnlyCollection_1_System_Collections_IList_set_Item_m1149349508_gshared
rC:__ZN27AnimationLayerMixerPlayable18SetInputConnectionEP8Playablei
aC:__ZN7mecanim28TransformValueArrayBlendNodeEiiiRKNS_10ValueArrayERKNS_14ValueArrayMaskERS0_RS3_RNS_16ValueArrayWeightEf
V8f:_ObjectReader_ReadObjectContent_m3949770110
tFi:_Mesh_get_colors32_m1054093013
Djj:__ZN6il2cpp2vm5Class40GetInterfaceInvokeDataFromVTableSlowPathEPK12Il2CppObjectPK11Il2CppClassj
qVa:__ZN20TierGraphicsSettings8TransferI18StreamedBinaryReadILb0EEEEvRT_
fSh:_Text_get_font_m3115501113
XEj:__GLOBAL__sub_I_Thread_cpp
O_a:__ZN14SafeBinaryRead8TransferINSt3__24pairIN9ShaderLab16FastPropertyNameE10ColorRGBAfEEEEvRT_PKc17TransferMetaFlags
rej:__ZL9rshift128PyS_
S9b:__Z10pqHeapInitP13PriorityQHeap
P8f:_ObjectReader_RecordFixup_m1893348030
QHe:_LayoutGroup_SetProperty_TisRuntimeObject_m1703476175_gshared
M9g:_EnumBuilder_GetElementType_m1228393631
LCj:__ZN14dense_hash_mapI10KeyWrapperINSt3__24pairIPK12PropertyInfoP11Il2CppClassEEEj17ReflectionMapHashIS8_ENS9_14EqualsComparerINS1_8equal_toIS8_EEEENS1_9allocatorINS2_IKS9_jEEEEE13set_empty_keyERSH_
Rg:_glRenderbufferStorage
mKj:__ZNK15dense_hashtableINSt3__24pairIK10KeyWrapperINS1_IPKcS4_EEEiEES6_24NamespaceAndNamePairHashN14dense_hash_mapIS6_iS9_NS6_14EqualsComparerI26NamespaceAndNamePairEqualsEENS0_9allocatorIS8_EEE9SelectKeyESD_SF_E13find_positionERS7_
Htc:__Z45Register_UnityEngine_Input_get_touchSupportedv
_pd:__ZN11UnityEngine15PlatformWrapper28GetTextureFormatSupportFlagsEv
I2c:_UNITY_FT_Create_Class_pshinter_module_class
mHd:_String_CompareOrdinalCaseInsensitiveUnchecked_m2002640463
c5d:_Boolean_GetHashCode_m1894638460
G7c:_cf2_setError
mgg:_UTF7Encoding_InternalGetChars_m4157428055
Ykb:__Z33InterpolateLightProbeCoefficientsRK17LightProbeContextRK29LightProbeSamplingCoordinatesR20SphericalHarmonicsL2
eWh:_Enumerator_Reset_m3129803197_AdjustorThunk
dTb:__ZZ23InitPlayerLoopCallbacksvEN35PreUpdateSendMouseEventsRegistrator7ForwardEv
qPe:_SmallXmlParser_HandleBufferedContent_m3397096753
Loa:__ZNK6Camera25GetNormalizedViewportRectEP13RenderTextureb
ch:_glDisable
l$d:_InputField_OnDeselect_m3963675647
rZa:__ZN13RenderTexture8TransferI24GenerateTypeTreeTransferEEvRT_
kw:__ZN7mecanim9animation9DenseClip8TransferI24GenerateTypeTreeTransferEEvRT_
HSj:__ZN6il2cpp5utils11StringUtils15StringDuplicateEPKDsj
p0f:_BaseMachine_Scan_m122450399
_A:__ZN17AnimationPlayable17ProcessRootMotionEP35AnimationPlayableEvaluationConstantP32AnimationPlayableEvaluationInputP33AnimationPlayableEvaluationOutput
v8d:_ArrayList_CopyTo_m2353632788
MCi:_GameObject_get_activeSelf_m2643917226
Aea:__ZNSt3__26vectorINS_4pairIyP17VertexDeclarationEENS_9allocatorIS4_EEE6assignIPS4_EENS_9enable_ifIXaasr21__is_forward_iteratorIT_EE5valuesr16is_constructibleIS4_NS_15iterator_traitsISB_E9referenceEEE5valueEvE4typeESB_SB_
fgk:b119
aUb:__ZNK8Material12GetPassCountEv
Yde:_Enumerator__cctor_m3784927209
Xfk:b110
Yfk:b111
Zfk:b112
U4j:_bitshift64Ashr
agk:b114
bgk:b115
cgk:b116
dgk:b117
oWc:__ZN11Rigidbody2D23VirtualRedirectTransferER14SafeBinaryRead
nsa:__ZN4crnd12crn_unpacker22decode_alpha_endpointsEv
P2b:__Z23CullDynamicObjectsUmbraPK4AABBPKN5Umbra15OcclusionBufferER9IndexList
QD:__ZThn148_NK26AnimatorControllerPlayable41GetStateMachineBehaviourVectorDescriptionEv
I4c:_tt_cmap4_char_next
AEi:_Mathf_Approximately_m1944881077
azh:__Z444RuntimeInvoker_Boolean_t3825574718_RuntimeObject_RuntimeObject_RuntimeObject_ColorU26_t3402129837_Int32_t2071877448_Single_t2076509932_Single_t2076509932_Int32_t2071877448_SByte_t454417549_SByte_t454417549_Int32_t2071877448_Int32_t2071877448_Int32_t2071877448_Int32_t2071877448_SByte_t454417549_Int32_t2071877448_Single_t2076509932_Single_t2076509932_Single_t2076509932_Single_t2076509932_SByte_t454417549_SByte_t454417549_UInt32U26_t2197289955PFvvEPK10MethodInfoPvPS4_
TGi:_GeneralNames_ToString_m800435094
PPd:_BaseMeshEffect_OnDidApplyAnimationProperties_m2484799839
TId:_ASCIIEncoding_GetString_m3931709239
MDd:_Evidence_GetHashCode_m1260371757
MSi:_Vector4_Equals_m2166390052
NNi:_RectTransform_SetInsetAndSizeFromParentEdge_m2595554673
m4:__GLOBAL__sub_I_runtime_assetbundles_1_cpp
hS:__ZN4FMOD7Channel11setPositionEjj
Wh:_glBindSampler
ZVj:_GC_reclaim_block
fFf:_ReadOnlyCollection_1_System_Collections_Generic_ICollectionU3CTU3E_Clear_m964488020_gshared
_h:_glGetVertexAttribiv
oHd:_String_IndexOfAny_m2027595557
mAe:_Array_InternalArray__ICollection_Add_TisChar_t3454481338_m422084244_gshared
Vhd:__ZN2UI11CanvasGroup23VirtualRedirectTransferER18StreamedBinaryReadILb0EE
DPi:_Texture__ctor_m1220114221
WHc:__ZN8JSONRead8TransferIbEEvRT_PKc17TransferMetaFlagsb
wYf:_X509KeyUsageExtension_Decode_m3292847033
hAh:__Z52RuntimeInvoker_RaycastResult_t21186376_RuntimeObjectPFvvEPK10MethodInfoPvPS4_
Teh:_Module_filter_by_type_name_ignore_case_m3574895736
H3a:__ZN26CustomRenderTextureManager19PreAllocateMaterialEP19CustomRenderTexture
v8f:_ObjectReader_ReadObject_m397855326
CUj:_GC_promote_black_lists
PXd:_Image_get_fillAmount_m3354146540
KIc:__Z29Transfer_Blittable_ArrayFieldI8JSONRead8Vector4fEvRT_R9ArrayInfoRK23StaticTransferFieldInfo
_n:FUNCTION_TABLE_vf
zo:FUNCTION_TABLE_vd
slg:_Type_GetMethod_m1930231379
Bo:FUNCTION_TABLE_vi
V5:__ZN13RuntimeStaticI37UnityShaderCompilerExtPluginConfigureLb0EE16StaticInitializeEPv
yrd:__ZN11UnityEngine7Connect17DeviceStatusEvent20SetDeviceAspectRatioEf
GKe:_SimpleCollator_GetContraction_m1391584430
f5d:_CultureInfo_get_InvariantCulture_m398972276
H4d:_Boolean_System_IConvertible_ToInt64_m4142756949_AdjustorThunk
pO:__ZNK8Animator17HasBoundPlayablesEv
$Wc:__ZN17Physics2DSettings8TransferI24GenerateTypeTreeTransferEEvRT_
jCc:__ZN5Unity9rapidjson13GenericReaderINS0_4UTF8IcEES3_13JSONAllocatorE10ParseFalseILj0ENS0_19GenericStringStreamIS3_EENS0_15GenericDocumentIS3_S4_S4_EEEEvRT0_RT1_
aJf:_HMAC_initializePad_m3828610671
bAd:_RSAParameters_t1462703416_marshal_pinvoke_cleanup
asj:__ZN6il2cpp2vm7Runtime9SetConfigEPKc
OCc:__ZN5Unity9rapidjson12PrettyWriterI16TempBufferWriterNS0_4UTF8IcEES4_13JSONAllocatorE10StartArrayEv
ua:invoke_iiifiii
qHj:__ZN6il2cpp2vm9Exception11FromNameMsgEPK11Il2CppImagePKcS6_S6_
dlg:_Type_internal_from_name_m1506974323
hn:FUNCTION_TABLE_fiiifii
FN:__ZN10HumanTrait15InitializeClassEv
Jga:__Z14GetTimeManagerv
acc:__ZneRK20SpriteTilingPropertyS1_
Qud:__ZN19TransportJavaScript7CleanupEv
xMa:__Z12GUIDToStringRK9UnityGUIDPc
vV:__ZN11AudioSource22UnmuteActiveVideoSinksEv
ESj:__ZN4utf88internal20is_overlong_sequenceIiEEbjT_
Ui:_glReadBuffer
lOa:__Z9SetLocalR15TransformAccessRKN4math7_float4Ey
L9d:_SynchronizedArrayListWrapper_get_Count_m4104930530
H_b:__Z30SetupBakedOcclusionForGeometrybRK26SharedLightmapSettingsDataRK15LightmapIndicesR17ShaderPassContext
cDd:_SecurityPermission_IsSubsetOf_m1087302418
Drc:__Z41Register_UnityEngine_Cursor_get_lockStatev
zTi:_Event_Internal_GetMousePosition_m2992465246
d_b:__Z14SetupLightmapsRK8Vector4fS1_R17ShaderPassContext
jBj:__ZN14dense_hash_mapI10KeyWrapperIPK14Il2CppAssemblyEPK22Il2CppMonoAssemblyNameN6il2cpp5utils11PointerHashIS2_EENS4_14EqualsComparerINSt3__28equal_toIS3_EEEENSD_9allocatorINSD_4pairIKS4_S7_EEEEE13set_empty_keyERSJ_
b2f:_Interval_get_Empty_m3170923997
nYa:__ZL20InitializeGUIShadersv
sec:__Z20DestroyObjectDelayedP6Objectf
z3:__ZN20DynamicHeapAllocatorI17LowLevelAllocatorED0Ev
A_d:_InputField_OnDrag_m726194348
DOc:__ZN10ClipperLib11ClipperBase5ResetEv
OLe:_PreviousInfo__ctor_m1442166472_AdjustorThunk
AXb:__ZN9DepthPassD2Ev
Q8i:_TextGenerator_get_rectExtents_m954923136
aR:__ZN11AudioFilter6GetDSPEv
E8:__ZN19RuntimeSceneManager14CanUnloadSceneEP10UnityScene
Xrh:__Z50RuntimeInvoker_Single_t2076509932_Int64_t909078037PFvvEPK10MethodInfoPvPS4_
CXb:__Z22ExtractRenderNodeQueueRK11CullResults15ExtractionFlagsR15RenderNodeQueue
uEe:_Array_InternalArray__set_Item_TisContentType_t1028629049_m703420360_gshared
jpf:_List_1_set_Item_m1431784996_gshared
hQ:__ZN24AudioScriptBufferManagerC2Ev
SJc:__ZN11UnityEngine9Analytics18SceneLoadTimeEvent12ToJsonStringER9JSONWrite
K$c:__ZNSt3__26vectorIh13stl_allocatorIhL18MemLabelIdentifier1ELi16EEE8__appendEj
Llh:__Z95RuntimeInvoker_Void_t1841601450_RuntimeObject_Int32_t2071877448_Int32_t2071877448_RuntimeObjectPFvvEPK10MethodInfoPvPS4_
aCc:__ZN8JSONRead32GetValueForKeyWithNameConversionEPKN5Unity9rapidjson12GenericValueINS1_4UTF8IcEE13JSONAllocatorEEPKc
N$c:__ZN20TextRenderingPrivate8FontImpl16ResetPackingDataEv
Zye:_Array_InternalArray__IndexOf_TisLink_t865133271_m3612939760_gshared
lDi:_Input_get_mousePresent_m1100327283
JDc:__Z18Transfer_BlittableI9JSONWriteLb0EfEvRK29SerializationCommandArgumentsR31RuntimeSerializationCommandInfo
Fra:__Z21GetAsyncUploadManagerv
Lj:_emscripten_glDetachShader
NJe:_SafeHandleZeroOrMinusOneIsInvalid_get_IsInvalid_m2033528032
w7d:_Char_IsUpper_m4083577610
tra:__ZN17GenericDynamicVBO20ReleaseChunkInternalERK21DynamicVBOChunkHandlejj
wcd:__ZL27CleanupModule_TextRenderingv
MJe:_SafeHandleZeroOrMinusOneIsInvalid__ctor_m3340306667
t1j:_fmodl
V9f:_SerializationInfo_AddValue_m902275108
H1j:_fmodf
oHb:__Z18Transfer_BlittableI18StreamedBinaryReadILb1EELb1E4AABBEvRK29SerializationCommandArgumentsR31RuntimeSerializationCommandInfo
uFa:__ZN12CachedWriter11Align4WriteEv
GYb:__Z20DoDeferredRenderLoopR17RenderLoopContextR13dynamic_arrayI16RenderObjectDataLj4EES4_RK11CullResultsRP13RenderTextureSA_Pb
KQb:__ZN19RuntimeSceneManager11CreateSceneEv
TRi:_Vector2_op_Implicit_m385881926
U6c:_ps_get_standard_strings
G_b:__Z27SetupBakedOcclusionForLightbRK15SharedLightDataR17ShaderPassContext
ow:__ZN24GenerateTypeTreeTransfer8TransferIN13AnimationClip9PPtrCurveEEEvRT_PKc17TransferMetaFlags
tPh:_ScrollRect_OnScroll_m3346515304
Ocf:_Enumerator_System_Collections_IEnumerator_get_Current_m3461301268_gshared
o0h:_Dictionary_2_CopyToCheck_m1638253305_gshared
CUb:__Z18RenderImageFiltersR10RenderLoopb
T3:__Z19free_alloc_internalPv18MemLabelIdentifier
jld:__Z43CanvasRenderer_Get_Custom_PropMaterialCountP12Il2CppObject
R_b:__ZNSt3__227__insertion_sort_incompleteIR23CompareReflectionProbesP31RuntimeReflectionProbeBlendInfoEEbT0_S5_T_
OAf:_ReadOnlyCollection_1_System_Collections_Generic_IListU3CTU3E_set_Item_m25653560_gshared
dJc:__ZN8JSONRead21TransferSTLStyleArrayI13dynamic_arrayI11QuaternionfLj4EEEEvRT_17TransferMetaFlags
fv:__ZNSt3__26vectorIN13AnimationClip10FloatCurveE13stl_allocatorIS2_L18MemLabelIdentifier26ELi16EEE6assignINS_11__wrap_iterIPS2_EEEENS_9enable_ifIXaasr21__is_forward_iteratorIT_EE5valuesr16is_constructibleIS2_NS_15iterator_traitsISC_E9referenceEEE5valueEvE4typeESC_SC_
EL:__ZN18StreamedBinaryReadILb0EE21TransferSTLStyleArrayI22OffsetPtrArrayTransferI9OffsetPtrIN7mecanim12statemachine18TransitionConstantEEEEEvRT_17TransferMetaFlags
G2g:__ZL68Selectable_t1490392188_CustomAttributesCacheGenerator_m_InteractableP21CustomAttributesCache
Nnc:__ZN19RuntimeSceneManager32LoadSceneAsyncByNameOrBuildIndexERKN4core12basic_stringIcNS0_20StringStorageDefaultIcEEEEiNS_11LoadingModeEb
aLf:_CertificateSelectionCallback_Invoke_m2902629105
aea:__ZN10InputEventD2Ev
Ofe:_DateTimeFormatInfo_GetAllDateTimePatternsInternal_m1587126173
Dlc:__ZN24CompressedAnimationCurve18DecompressTimeKeysI11QuaternionfEEvR17AnimationCurveTplIT_E
x9:__ZL23OutOfBoundsReadingErrorPKN5Unity4TypeEiiR6Object
aZe:_NumberFormatter_Append_m3268121457
rqa:__ZN15dense_hashtableINSt3__24pairIK9TextureIDiEES2_N12TextureIdMap20TextureIDHashFunctorEN14dense_hash_mapIS2_iS6_NS0_8equal_toIS2_EE13stl_allocatorIS4_L18MemLabelIdentifier67ELi16EEE9SelectKeyES9_SC_E12resize_deltaEjj
avd:__ZN22UnityWebRequestManagerD2Ev
Mzd:_RSA_ToXmlString_m4145056574
Qpe:_Double_System_IConvertible_ToUInt64_m1318285078_AdjustorThunk
_0j:_isalpha
$Nh:_Selectable_FindSelectable_m2739582497
gMc:__ZNK12b2MotorJoint17GetReactionTorqueEf
Eke:_DateTimeUtils_ZeroPad_m86470512
Rnh:__Z94RuntimeInvoker_Void_t1841601450_RuntimeObject_Int32_t2071877448_RuntimeObject_SByte_t454417549PFvvEPK10MethodInfoPvPS4_
Qpj:__ZN6il2cpp2vmL17IsSocketAsyncCallEP14Il2CppDelegate
yYc:__Z13RegisterClassI11Rigidbody2DEvv
cSj:__ZN6il2cpp2vm6String6NewLenEPKcj
LOb:__ZN17PersistentManager9AddStreamEv
al:_time
pFi:_Mesh_get_uv_m1990385212
AKi:_PlayableOutput_Equals_m2167434642_AdjustorThunk
oWd:_Graphic_UnregisterDirtyLayoutCallback_m1724443555
tOa:__ZN14BatchAllocator6CommitE18MemLabelIdentifier
m8c:_cf2_stack_free
VLd:_ExecuteEvents_get_pointerClickHandler_m713983310
aIc:__ZN8JSONRead21TransferSTLStyleArrayI13dynamic_arrayIyLj8EEEEvRT_17TransferMetaFlags
OA:__ZN7mecanim9animation19EvaluateFloatValuesEPKNS0_18ClipMuscleConstantEPKNS_18ValueArrayConstantEPKNS0_12ClipBindingsEPKNS0_10ClipOutputEPNS0_18AnimationNodeStateEfbb
NI:__ZN8Animator31ClearInternalControllerPlayableEv
Mpg:_WeakReference_Finalize_m3318354542
JNa:__ZN10GameObject8TransferI24GenerateTypeTreeTransferEEvRT_
rdf:_Enumerator_VerifyState_m3913376581_gshared
bxj:__ZN15dense_hashtableINSt3__24pairIK10KeyWrapperINS1_IPK9FieldInfoP11Il2CppClassEEEjEES9_17ReflectionMapHashIS8_EN14dense_hash_mapIS9_jSD_NS9_14EqualsComparerINS0_8equal_toIS8_EEEENS0_9allocatorISB_EEE9SelectKeyESI_SK_E4findERSA_
Uek:_glDeleteSync__wrapper
ihe:_Decimal_op_Implicit_m623319612
bZh:_ValueCollection_System_Collections_Generic_ICollectionU3CTValueU3E_Remove_m98888100_gshared
hLd:_EventTrigger_OnPointerExit_m2119176877
uig:_ThreadAbortException__ctor_m1623816114
qfc:__ZN13ProduceHelperI30RuntimeInitializeOnLoadManagerLb0EE7ProduceE18MemLabelIdentifier18ObjectCreationMode
r4b:__ZN13RenderTexture19SetAutoGenerateMipsEb
Xsa:__Z20GetTextureFormatInfo13TextureFormat
ioh:__Z119RuntimeInvoker_RuntimeObject_RuntimeObject_RuntimeObject_Int32_t2071877448_Int32_t2071877448_MonoIOErrorU26_t1029615899PFvvEPK10MethodInfoPvPS4_
BD:__ZN26AnimatorControllerPlayable8GetFloatEiRf
WLh:_Shadow__ctor_m924057531
XMd:_PointerEventData_set_worldPosition_m192283671
xYj:__ZN6il2cpp5utils10MemoryPool6MallocEj
BP:__ZN11SoundHandle8InstanceD2Ev
jha:__ZN31CanvasBatchIntermediateRenderer13StaticDestroyEPv
VJi:_X509Store_BuildCrlsCollection_m52567568
haa:__ZNSt3__23mapIiP15MonoScriptCacheNS_4lessIiEE13stl_allocatorINS_4pairIKiS2_EEL18MemLabelIdentifier78ELi16EEEixERS7_
wRf:_RecordProtocol_InternalSendRecordCallback_m3984764857
YIe:_Array_InternalArray__get_Item_TisUICharInfo_t3056636800_m3872982785_gshared
vFi:_Mesh_SetNormals_m2780518036
zqe:_Enum_ToString_m662345249
axh:__Z150RuntimeInvoker_Single_t2076509932_Single_t2076509932_Single_t2076509932_SingleU26_t4173844468_Single_t2076509932_Single_t2076509932_Single_t2076509932PFvvEPK10MethodInfoPvPS4_
Arc:__Z41Register_UnityEngine_CullingGroup_Disposev
s2a:__ZN7Cubemap23VirtualRedirectTransferER19StreamedBinaryWriteILb0EE
xWj:_GC_split_block
YKa:__ZN25MultiBlocksMemoryFileData5WriteEyyPKv
sNc:__ZNK13b2PulleyJoint16GetReactionForceEf
Fkf:_List_1_System_Collections_IList_Add_m4271264217_gshared
fCj:__ZN14dense_hash_mapI10KeyWrapperIPK10Il2CppTypeEjN6il2cpp8metadata14Il2CppTypeHashENS4_14EqualsComparerINS6_26Il2CppTypeEqualityComparerEEENSt3__29allocatorINSB_4pairIKS4_jEEEEE13set_empty_keyERSE_
Hwa:__ZL17ProgramUniform2fvPK7ApiGLESjiihPKv
yck:b83
F$c:__ZN20TextRenderingPrivate8FontImpl21HasCharacterInTextureEjijfPj
u2j:_htonl
foa:__Z20GetBufferManagerGLESv
fLb:__ZN18StreamedBinaryReadILb0EE21TransferSTLStyleArrayI31ArrayOfManagedObjectsTransfererEEvRT_17TransferMetaFlags
xgg:_UTF7Decoder_GetChars_m2790530452
UGc:__Z18Transfer_BlittableI8JSONReadLb0EtEvRK29SerializationCommandArgumentsR31RuntimeSerializationCommandInfo
xSh:_Text_set_fontSize_m2101304336
w2c:_pshinter_module_class_pic_free
Q1g:__ZL68Navigation_t1571958496_CustomAttributesCacheGenerator_m_SelectOnLeftP21CustomAttributesCache
Bdd:__ZNK7Tilemap19GetLayoutCellCenterEv
kE:__ZN34AnimationStateMachineMixerPlayable13EndTransitionEv
KR:__ZN12AudioManager21FixMasterGroupRoutingEv
LBd:_SymmetricAlgorithm_set_Key_m2973350820
EWc:__ZN6b2Body9SetActiveEb
h0g:__ZL58FontData_t2614388407_CustomAttributesCacheGenerator_m_FontP21CustomAttributesCache
GXf:_WebHeaderCollection_IsHeaderValue_m1723393133
Bgd:__ZZN15TilemapRenderer15InitializeClassEvEN32FunctorImpl_158kOnTilemapChanged4CallEPviR11MessageData
Eed:__ZNSt3__26__treeIN4math12int3_storageE20TilemapPosition_Less13stl_allocatorIS2_L18MemLabelIdentifier95ELi16EEE7destroyEPNS_11__tree_nodeIS2_PvEE
lPj:__ZN6il2cpp2os10ThreadImpl33UnregisterCurrentThreadForCleanupEv
uC:__ZN27AnimationLayerMixerPlayable22PrepareAnimationEventsEfR13dynamic_arrayI22AnimationClipEventInfoLj4EE
wxb:__Z18Transfer_BlittableI14SafeBinaryReadLb1E4AABBEvRK29SerializationCommandArgumentsR31RuntimeSerializationCommandInfo
uOj:__ZN6il2cpp6icalls8mscorlib6System4Enum12get_hashcodeEP12Il2CppObject
AXj:_GC_set_no_dls
U$j:__ZN6il2cpp8metadata26Il2CppGenericMethodCompare6EqualsEPK19Il2CppGenericMethodS4_
Afa:__Z22CreateMutexLockedQueue18MemLabelIdentifier
pQ:__ZN9AudioClip7WWWOpenEPKciPjPPvS4_
nxb:__Z18Transfer_BlittableI14SafeBinaryReadLb0E8Vector2fEvRK29SerializationCommandArgumentsR31RuntimeSerializationCommandInfo
qEe:_Array_InternalArray__set_Item_TisPlayableBinding_t2498078091_m2071396616_gshared
Tc:_emscripten_glVertexAttrib2f
sob:__ZN15SerializeTraitsIN9ShaderLab20SerializedSubProgram16TextureParameterEE8TransferI14SafeBinaryReadEEvRS2_RT_
Ctc:__Z53Register_UnityEngine_Input_INTERNAL_get_mousePositionv
ffj:_Physics2D_Raycast_m298439588
dSi:_Vector3_set_Item_m2026854946_AdjustorThunk
ipi:_Context_get_HasGlobalDynamicSinks_m3205328884
dLe:_SimpleCollator_CompareQuick_m619038530
pTf:_SslStreamBase_EndRead_m1072850679
ld:_SDL_GetTicks
ZSe:_X509CertificateEnumerator_System_Collections_IEnumerator_get_Current_m1643583406
Qxa:__ZN18GfxFramebufferGLES20CleanupFBOMapForRBIDERKj
Wyj:__ZN15dense_hashtableINSt3__24pairIK10KeyWrapperINS1_IPK11Il2CppImageP11Il2CppClassEEEjEES9_17ReflectionMapHashIS8_EN14dense_hash_mapIS9_jSD_NS9_14EqualsComparerINS0_8equal_toIS8_EEEENS0_9allocatorISB_EEE9SelectKeyESI_SK_E6insertERKSB_
u2b:__Z21CreateShadowCullerJobP30CreateUmbraShadowCullerJobData
zwa:__ZL18ProgramUniform2uivPK7ApiGLESjiihPKv
K3i:_AudioConfigurationChangeHandler_BeginInvoke_m1585211075
s$b:__Z33GenerateShadowCasterPartsSortDataRK16ShadowCasterDatajRK15RenderNodeQueueRKNSt3__26vectorI20ShadowCasterPartData13stl_allocatorIS7_L18MemLabelIdentifier2ELi16EEEERK10Matrix4x4fRjP20ShadowCasterSortData
ZCi:_GUILayer_INTERNAL_CALL_HitTest_m381183969
fYi:_UnityAction_2_Invoke_m319876726_gshared
rAb:__Z29Transfer_Blittable_ArrayFieldI14SafeBinaryRead9BoundsIntEvRT_R9ArrayInfoRK23StaticTransferFieldInfo
e2h:_Dictionary_2_ToTKey_m4209561517_gshared
A7c:_cf2_computeDarkening
YUj:_GC_expand_hp_inner
mc:invoke_viiiififfi
wsc:__Z25Screen_Get_Custom_PropDpiv
QWd:_GridLayoutGroup_get_spacing_m1909275195
tSj:__ZN4utf812find_invalidIPKcEET_S3_S3_
Lt:__ZNK13AnimationClip8IsLegacyEv
V$f:_X509ExtensionCollection_System_Collections_ICollection_CopyTo_m3421329346
qUj:_GC_err_printf
xah:_FieldBuilder_SetValue_m3109503557
zVd:_Graphic_OnBeforeTransformParentChanged_m1866292273
MZf:_X509Certificate2_Verify_m1574874641
B0:__ZN11UnityEngine15CloudWebService20WebRequestRestClient7PrepareEv
f$g:__ZL58PhysicsRaycaster_t249603239_CustomAttributesCacheGeneratorP21CustomAttributesCache
t$c:__ZN20TextRenderingPrivate19NativeTextGenerator23FixLineHorizontalOffsetEiii
Qde:_SortedList_GetEnumerator_m1318483481
kUi:_GUILayoutUtility_LayoutFreeGroup_m2224160855
c2d:_Array_CreateInstance_m3327690220
uF:__ZN7mecanim9animation19DestroyAnimationSetEPNS0_12AnimationSetERNS_6memory9AllocatorE
z8j:_emscripten_glDepthRange__wrapper
iba:__ZN14SerializedFile7ReleaseEv
J8i:_TextGenerator__ctor_m1469954680
Cvb:__ZN16MemoryFileSystem4OpenER13FileEntryData14FilePermission16FileAutoBehavior
vgd:__ZN19TilemapRendererJobs15CameraBoundsJob7ExecuteEPNS0_4DataEj
Yga:__ZN13RuntimeStaticI13RendererSceneLb0EE13StaticDestroyEPv
ADb:__Z18Transfer_BlittableI24GenerateTypeTreeTransferLb1E12PropertyNameEvRK29SerializationCommandArgumentsR31RuntimeSerializationCommandInfo
sgb:__ZN14SafeBinaryRead21TransferSTLStyleArrayI10vector_mapIPKN5Unity4TypeE7Hash128NSt3__24lessIS5_EENS7_9allocatorINS7_4pairIS5_S6_EEEEEEEvRT_17TransferMetaFlags
oQ:__ZN9AudioClip18GetQueuedAudioDataEPPvj
kcd:__ZN20TextRenderingPrivate21TextMeshGeneratorImpl14GarbageCollectEv
wlc:__ZNK9Texture2D17CheckHasPixelDataEv
qVc:__ZN15b2ContactSolver13StoreImpulsesEv
nFb:__Z18Transfer_BlittableI19StreamedBinaryWriteILb0EELb0E9BoundsIntEvRK29SerializationCommandArgumentsR31RuntimeSerializationCommandInfo
jXb:__Z18SetShadowsKeywordsR17ShaderPassContext9LightType10ShadowType16ShadowProjectionbb
KCj:__ZN14dense_hash_mapI10KeyWrapperINSt3__24pairIPK12PropertyInfoP11Il2CppClassEEEj17ReflectionMapHashIS8_ENS9_14EqualsComparerINS1_8equal_toIS8_EEEENS1_9allocatorINS2_IKS9_jEEEEEC2EjRKSB_RKSF_
whc:__ZN17CollisionMeshDataC2Ev
nri:_Regex_get_RightToLeft_m529734879
WOh:_ScrollRect_SetDirty_m93243192
V3a:__ZN16LightmapSettings23VirtualRedirectTransferER19StreamedBinaryWriteILb0EE
uTb:__ZZ23InitPlayerLoopCallbacksvEN47PostLateUpdateMemoryFrameMaintenanceRegistrator7ForwardEv
Eo:FUNCTION_TABLE_viiififii
JVj:_GC_push_next_marked
jlb:__ZN18IDCollectorFunctor18GenerateInstanceIDEi17TransferMetaFlags
H3e:_MonoIO__cctor_m2398680849
pVc:__ZN15b2ContactSolver9WarmStartEv
lZe:_NumberFormatter_ToDecHex_m1474793296
sAh:__Z74RuntimeInvoker_Int32_t2071877448_RaycastHit_t87180320_RaycastHit_t87180320PFvvEPK10MethodInfoPvPS4_
XGa:__ZN14StackAllocatorD0Ev
tFj:__ZN6il2cpp2vm6Thread8SetStateEP12Il2CppThreadNS0_11ThreadStateE
qaf:_OperatingSystem_Clone_m1943707477
_Ud:_FontData_set_richText_m29558601
Lig:_Scheduler_Change_m4063588742
sFe:_Array_Resize_TisVector2_t2243707579_m1117258774_gshared
Gca:__ZNSt3__27__sort4IRNS_6__lessI14ObjectLoadDataS2_EEPS2_EEjT0_S6_S6_S6_T_
Ioc:__Z22PlayableValidityChecksRK9HPlayableb
Uhb:__ZN15ResourceManagerD2Ev
njf:_List_1_Insert_m2532850849_gshared
prc:__Z41Register_UnityEngine_Camera_GetAllCamerasv
sLh:_MaskableGraphic_OnCanvasHierarchyChanged_m2012659245
hsa:__ZN4crnd12crn_unpacker10unpack_dxnEPPhjjjjjj
isd:__ZN28PerformanceReportingSettings8TransferI14SafeBinaryReadEEvRT_
Dhe:_Double_Parse_m2344589511
drh:__Z78RuntimeInvoker_Boolean_t3825574718_IntPtr_t_Int32_t2071877448_SByte_t454417549PFvvEPK10MethodInfoPvPS4_
aHc:__Z18Transfer_BlittableI8JSONReadLb1E5RectTIiEEvRK29SerializationCommandArgumentsR31RuntimeSerializationCommandInfo
pGj:__ZN6il2cpp2vm22EmbeddedResourceRecordC2ERKS1_
n2a:__ZN9Texture2D13AwakeFromLoadE17AwakeFromLoadMode
wKe:_MSCompatUnicodeTableUtil__cctor_m1479836795
Avi:_PositionAssertion__ctor_m3703837499
n0d:_LayoutGroup_get_minWidth_m4111745491
_4e:_StreamWriter_Initialize_m1707678624
ONj:__ZN6il2cpp2vm3RCW14QueryInterfaceILb0EEEP14Il2CppIUnknownP15Il2CppComObjectRK10Il2CppGuid
POh:_ScrollRect_set_verticalScrollbar_m2903688658
Zcb:__ZThn328_N14SpriteRendererD0Ev
Dua:__ZN6prcoreL17RemapGenericFloatI15TexFormatRFloat18TexFormatARGBFloatEEvPKNS_9InnerInfoE
Lzg:__ZL50_Thread_t1894135853_CustomAttributesCacheGeneratorP21CustomAttributesCache
EEi:_Mathf__cctor_m2286160987
nci:_InternalEnumerator_1_get_Current_m1047712960_gshared
ktd:__ZN11UnityEngine15PlatformWrapper20GetPlayerPrefsUInt64ERKN4core12basic_stringIcNS1_20StringStorageDefaultIcEEEEy
U_b:__ZN20ReflectionProbeCacheC2ER13BatchRendererR15RenderLoopStats
Mha:__ZN18AssetBundleManagerC2Ev
Aub:__ZNK12HandlerChain6ExistsERK13FileEntryData
SKg:__ZL61ExtensionAttribute_t1840441203_CustomAttributesCacheGeneratorP21CustomAttributesCache
$he:_Convert_ToInt32_m2734833291
J$b:__Z30FindDirectAttenuationFromProbeP18ForwardLightsBlockbiRK10RenderNodeRK23FindForwardLightsParamsf
xfb:__ZN12InputManager23VirtualRedirectTransferER24GenerateTypeTreeTransfer
Ftb:__ZN9Transform23VirtualRedirectTransferER24GenerateTypeTreeTransfer
Jxc:__ZN4Grid23VirtualRedirectTransferER18StreamedBinaryReadILb0EE
Oni:_CrossAppDomainChannel_RegisterCrossAppDomainChannel_m43456045
E$f:_X509ChainElement_Count_m228862214
tkg:_TimeZone_IsDaylightSavingTime_m1840774423
bad:_UNITY_tt_size_ready_bytecode
KBi:_InvokableCallList_ClearPersistent_m2011323876
f_c:__ZN13TextRendering4FontD2Ev
lih:__Z47RuntimeInvoker_Single_t2076509932_RuntimeObjectPFvvEPK10MethodInfoPvPS4_
Z0c:_UNITY_FT_Stream_Open
CEb:__Z29Transfer_Blittable_ArrayFieldI24GenerateTypeTreeTransfer9BoundsIntEvRT_R9ArrayInfoRK23StaticTransferFieldInfo
BLa:__ZN10MemoryFile4ReadEyyPvPy
Dsb:__ZN8keywords18KeywordSetToStringERK16ShaderKeywordSetRN4core12basic_stringIcNS3_20StringStorageDefaultIcEEEE
_ja:__ZN13GfxDeviceGLES26UpdateViewProjectionMatrixEv
Ayi:_Bounds_op_Inequality_m1440807554
QO:__ZN4FMOD3DSP12setParameterEif
gPb:__ZN13MemoryManager16StaticInitializeEv
rvg:__ZL53StackFrame_t2050294881_CustomAttributesCacheGeneratorP21CustomAttributesCache
Jz:__ZN21AnimationClipPlayable16ProcessHumanPassEPK35AnimationPlayableEvaluationConstantPK32AnimationPlayableEvaluationInputP33AnimationPlayableEvaluationOutput
gEf:_ReadOnlyCollection_1_System_Collections_ICollection_CopyTo_m4126742951_gshared
RS:__ZN4FMOD22FakeModChannelCallbackEPv
wf:_emscripten_glValidateProgram
xXd:_HorizontalOrVerticalLayoutGroup_set_childControlWidth_m4209477792
cAj:__ZN6il2cpp2gc19AppendOnlyGCHashMapINSt3__24pairIPK9EventInfoP11Il2CppClassEEP21Il2CppReflectionEvent17ReflectionMapHashIS9_ENS2_8equal_toIS9_EEE3AddERKS9_SB_
HP:__ZN4FMOD7SystemI11createSoundEPKcjP22FMOD_CREATESOUNDEXINFOPPNS_5SoundE
I7f:_ArrayFixupRecord_FixupImpl_m2377725358
X7c:_cf2_stack_clear
qpe:_Double_System_IConvertible_ToBoolean_m4251806534_AdjustorThunk
CWh:_ShimEnumerator_Reset_m2247049027_gshared
COc:__ZN10ClipperLib11ClipperBase5ClearEv
s4b:__ZN7Texture13SetAnisoLevelEi
P_:__ZNSt3__26__treeINS_12__value_typeIN4core12basic_stringIcNS2_20StringStorageDefaultIcEEEEjEENS_19__map_value_compareIS6_S7_NS_4lessIS6_EELb1EEE13stl_allocatorIS7_L18MemLabelIdentifier88ELi16EEE7destroyEPNS_11__tree_nodeIS7_PvEE
XZf:_X509Chain_Process_m2508784250
cof:_List_1_RemoveAt_m2929488689_gshared
HJc:__ZN27PerformanceReportingManager23VirtualRedirectTransferER24GenerateTypeTreeTransfer
Nbd:_raccess_guess_vfat
qmd:__Z44Canvas_CUSTOM_GetETC1SupportedCanvasMaterialv
KUa:__ZN11HaloManager10UpdateHaloEiR9Transform11ColorRGBA32fjP6Object
t6:__ZN33InstancedMeshIntermediateRenderer13StaticDestroyEPv
VXe:_Int16_Parse_m3012618547
UIj:__ZN14dense_hash_mapI10KeyWrapperIP14Il2CppIUnknownEjN6il2cpp5utils11PointerHashIS1_EENS3_14EqualsComparerINSt3__28equal_toIS2_EEEENS9_9allocatorINS9_4pairIKS3_jEEEEE13set_empty_keyERSF_
Eoh:__Z50RuntimeInvoker_Void_t1841601450_OpCode_t2247480392PFvvEPK10MethodInfoPvPS4_
DTa:__Z21DestroyShadowMapCacheP14ShadowMapCache
VC:__ZN7mecanim9animation25CreateControllerWorkspaceEPKNS0_18ControllerConstantERNS_6memory9AllocatorE
Wbf:_Enumerator_VerifyState_m739025304_gshared
fTd:_Graphic_RegisterDirtyVerticesCallback_m4169445219
iCj:__ZN15dense_hashtableINSt3__24pairIK10KeyWrapperIPK10Il2CppTypeEjEES6_N6il2cpp8metadata14Il2CppTypeHashEN14dense_hash_mapIS6_jSB_NS6_14EqualsComparerINSA_26Il2CppTypeEqualityComparerEEENS0_9allocatorIS8_EEE9SelectKeyESF_SH_E14squash_deletedEv
qIj:__ZN6il2cpp2vm13LivenessState5ResetEv
mCh:__Z138RuntimeInvoker_Void_t1841601450_RuntimeObject_Color32_t874517518_Int32_t2071877448_Int32_t2071877448_Single_t2076509932_Single_t2076509932PFvvEPK10MethodInfoPvPS4_
kDc:__ZN9JSONWrite8TransferI11KeyframeTplIfEEEvRT_PKc17TransferMetaFlags
cSh:_Text_get_cachedTextGenerator_m224335893
zJj:__ZN6il2cpp2vm3RCW23GetOrCreateFromIUnknownEP14Il2CppIUnknownP11Il2CppClass
ZRb:__ZN24BuiltinShaderParamValuesC2Ev
zDc:__ZL41CreateJSONTransferFunctionScriptingTraitsv
RM:__ZN9Animation15InitializeClassEv
c2e:_FileStream_get_CanWrite_m775322953
hNb:__Z23GetLateBehaviourManagerv
RLd:_ExecuteEvents_Execute_m2863348178
cba:__ZN10MemoryPool10DeallocateEPv
Gzc:__ZN8GUIState8SetEventERK10InputEvent
PUe:_NumberFormatInfo__ctor_m2752806684
FPd:_CanvasUpdateRegistry_get_instance_m862315367
Jxa:__ZN14GfxDeviceStats10ResetFrameEv
ksi:_PatternCompiler_EmitFastRepeat_m1175707353
iIe:_Array_InternalArray__get_Item_TisKeyValuePair_2_t3716250094_m3120861630_gshared
z2c:_cff_driver_class_pic_free
Qmg:_UInt32_TryParse_m3987111861
C6j:dynCall_vif
D6j:dynCall_vid
Yhf:_List_1_System_Collections_IList_get_Item_m3989815218_gshared
F6j:dynCall_vii
kge:_DateTime__ctor_m3604679583
WKb:__Z18Transfer_BlittableI18StreamedBinaryReadILb0EELb0EdEvRK29SerializationCommandArgumentsR31RuntimeSerializationCommandInfo
Bri:_Enumerator_System_Collections_IEnumerator_MoveNext_m3313126804
nXb:__ZNK17InstancedPropInfo14IsInstanceableERK19ShaderPropertySheet
sEa:__ZN5Unity9Component16CheckConsistencyEv
CPd:_LayoutRebuilder_ValidController_m2595049322
rxa:__ZN7ApiGLES11CheckShaderERjb
sRa:__ZN19ShaderPropertySheet37CreateTextureAuxPropertyUninitializedEN9ShaderLab16FastPropertyNameES1_PKc
RFb:__ZL26Transfer_SimpleNativeClassI19StreamedBinaryWriteILb0EE10RectOffsetLb1EEvRK29SerializationCommandArgumentsR31RuntimeSerializationCommandInfo
hIe:_Array_InternalArray__get_Item_TisKeyValuePair_2_t1174980068_m964958642_gshared
prd:__ZN11UnityEngine7Connect17DeviceStatusEventD2Ev
ks:__ZN9Animation13BlendAdditiveEv
L$b:__Z28GetNonInterpolatedLightProbeRK17LightProbeContextjR20SphericalHarmonicsL2
xAe:_Array_InternalArray__ICollection_Add_TisDateTime_t693205669_m3559987213_gshared
Rma:__ZN13GfxDeviceGLES17SetGpuProgramNameEP10GpuProgramPKc
O0:__ZNK11UnityEngine15CloudWebService25WebRequestDownloadHandler11GetProgressEv
Ebj:_CanvasGroup_IsRaycastLocationValid_m2290612432
Xoj:__ZN6il2cpp2vm13MetadataCache28GetMethodDefinitionFromIndexEi
BQj:__ZN6il2cpp2os20FileErrnoToErrorCodeEi
J_a:__ZN14SafeBinaryRead19TransferSTLStyleMapINSt3__23mapI39DeprecatedFastPropertyNameSerialization10ColorRGBAfNS1_4lessIS3_EENS1_9allocatorINS1_4pairIKS3_S4_EEEEEEEEvRT_17TransferMetaFlags
qfh:_MonoEventInfo_GetEventInfo_m2331957186
Izi:_Component_get_transform_m3374354972
lVc:__ZN24b2PositionSolverManifold10InitializeEP27b2ContactPositionConstraintRK11b2TransformS4_i
eh:_atexit
Dae:_BitArrayEnumerator_Reset_m3218489242
V5d:_Byte_System_IConvertible_ToUInt16_m2275325191
fNi:_RectTransform_INTERNAL_get_anchorMin_m3722367822
LAj:__ZN6il2cpp2vmL31GetObjectForMissingDefaultValueEj
dwf:_Collection_1__ctor_m824713192_gshared
lpd:__ZN11UnityEngine15PlatformWrapper30GetVRPlayAreaBoundaryDimensionEv
ys:__ZN14AnimationState13CleanupCurvesEv
bpb:__ZN9ShaderLab14SerializedPassC2ERKS0_
cai:_InternalEnumerator_1_System_Collections_IEnumerator_get_Current_m3088751576_AdjustorThunk
sla:__ZNK9GfxDevice28GetActiveRenderSurfaceHeightEv
l:STACKTOP
B9c:_cff_get_name_index
_6e:_Math_Cos_m43596019
k4a:__ZN21EnlightenSceneMapping16BuildRemapTablesEv
gkc:__ZN17TransformInternal27UpdateDeepChildCountUpwardsER18TransformHierarchyii
Wgi:_InternalEnumerator_1_System_Collections_IEnumerator_get_Current_m1533037706_AdjustorThunk
d4j:__ZNK10__cxxabiv117__class_type_info16search_above_dstEPNS_19__dynamic_cast_infoEPKvS4_ib
A:tempBigIntD
$Fd:_Single_Equals_m3359827399_AdjustorThunk
mLd:_EventTrigger_OnPointerClick_m413999043
z:tempBigIntI
hIf:_PrimalityTests_RabinMillerTest_m2029846965
y:tempBigIntR
x:tempBigIntS
lPi:_Sprite_INTERNAL_get_border_m3953160722
xn:FUNCTION_TABLE_viffi
w0c:_open_face_PS_from_sfnt_stream
i7f:_ServerIdentity_CreateObjRef_m1056204803
Kca:__ZN6Object18RegisterInstanceIDEPS_
fDb:__Z18Transfer_BlittableI24GenerateTypeTreeTransferLb1EsEvRK29SerializationCommandArgumentsR31RuntimeSerializationCommandInfo
$Mj:__ZN15dense_hashtableINSt3__24pairIK10KeyWrapperIP12Il2CppObjectEN6il2cpp2gc9CachedCCWEEES5_NS7_5utils11PointerHashIS3_EEN14dense_hash_mapIS5_S9_SD_NS5_14EqualsComparerINS0_8equal_toIS4_EEEENS0_9allocatorISA_EEE9SelectKeyESI_SK_E11set_deletedER30dense_hashtable_const_iteratorISA_S5_SD_SM_SI_SK_E
ika:__ZNK9GfxDevice18GetWorldViewMatrixEv
hif:_List_1_Contains_m3819542652_gshared
iNf:_TlsServerKeyExchange__ctor_m247733406
uBf:_ReadOnlyCollection_1_System_Collections_IList_Add_m3065652010_gshared
qTj:__ZN6il2cpp6icalls8mscorlib6System7Convert17Base64ToByteArrayEPDsib
BZi:_IndexedSet_1_Clear_m2776064367_gshared
fJh:__Z82RuntimeInvoker_Boolean_t3825574718_RaycastResult_t21186376_RaycastResult_t21186376PFvvEPK10MethodInfoPvPS4_
hmj:__ZNSt3__218__insertion_sort_3IRN6il2cpp5utils11collections13ArrayValueMapIPK10Il2CppType17Il2CppInteropData26InteropDataToTypeConverterNS1_8metadata14Il2CppTypeLessENSA_26Il2CppTypeEqualityComparerEE12SortComparerEPS8_EEvT0_SH_T_
mka:__ZNK9GfxDevice25GetDeviceProjectionMatrixEv
lWf:_HttpWebRequest__ctor_m1248252412
na:invoke_iidiii
lDb:__Z18Transfer_BlittableI24GenerateTypeTreeTransferLb1EtEvRK29SerializationCommandArgumentsR31RuntimeSerializationCommandInfo
x5g:_RankException__ctor_m2119191472
UY:__ZN12AudioManager33GetCurrentAmbisonicDefinitionNameE31UnityAudioEffectDefinitionFlags
Anc:__ZN10systeminfo24GetRuntimePlatformStringEv
ZFc:__ZN9JSONWrite8TransferI13dynamic_arrayI4AABBLj4EEEEvRT_PKc17TransferMetaFlags
Foh:__Z64RuntimeInvoker_Void_t1841601450_OpCode_t2247480392_RuntimeObjectPFvvEPK10MethodInfoPvPS4_
FMi:_Rect_GetHashCode_m2708838453
TZ:__ZN5physx14PxLightCpuTask15removeReferenceEv
F3i:_AudioSettings_InvokeOnAudioManagerUpdate_m667489537
zXf:_SPKey_Equals_m1112627532
p4e:_Stream_Close_m1499612649
tqi:_ArgInfo__ctor_m3787931268
As:__ZL16AssignBoundCurveRK14dense_hash_mapI7CurveIDj10hash_curveNSt3__28equal_toIS0_EE13stl_allocatorINS2_4pairIKS0_jEEL18MemLabelIdentifier1ELi16EEERS7_P17AnimationCurveTplIfERK13dynamic_arrayI20BoundCurveDeprecatedLj4EER14AnimationState
kJi:_X509Chain_Build_m175470596
ezi:_Camera_INTERNAL_CALL_RaycastTry2D_m268676834
uRa:__ZN9ShaderLab6TexEnvC2ERKNS_25SerializedTexturePropertyE
Ybc:__Z28IntersectLineSegmentWithLineRK8Vector2fS1_S1_S1_RS_
iOa:__ZN9Transform32SetLocalScaleWithoutNotificationERKN4math7_float3Ey
r$c:__ZN20TextRenderingPrivate19NativeTextGeneratorD2Ev
Apj:__ZN6il2cpp2vm19SocketPollingThread14DequeueRequestEv
rQj:__ZL10RevealLinkPv
Gfd:__ZN19TilemapRendererJobs26TilemapRendererGeometryJob7ExecuteEP25DynamicVBOGeometryJobDataj
fEe:_Array_InternalArray__set_Item_TisSingle_t2076509932_m4273663642_gshared
Ji:___cxa_end_catch
_bh:_MethodBuilder_MakeGenericMethod_m303913412
n6g:_AssemblyName_InternalGetPublicKeyToken_m3706025887
M6j:dynCall_viffffii
zLd:_ExecuteEvents_Execute_m4235029535
Gzi:_Color32_ToString_m685380321_AdjustorThunk
ymd:__Z43Register_UnityEngine_Canvas_set_scaleFactorv
Obd:_raccess_guess_linux_cap
lZ:__Z36AudioSource_Get_Custom_PropIsPlayingP12Il2CppObject
qRf:_ReceiveRecordAsyncResult_get_AsyncWaitHandle_m1602093076
$Bh:__Z113RuntimeInvoker_Boolean_t3825574718_Ray_t2469606224_RaycastHitU26_t1969197280_Single_t2076509932_Int32_t2071877448PFvvEPK10MethodInfoPvPS4_
gLb:__Z19TransferField_ArrayI18StreamedBinaryReadILb0EE27Converter_UnityEngineObjectEvRK23StaticTransferFieldInfoR31RuntimeSerializationCommandInfoRT0_
_sh:__Z221RuntimeInvoker_Void_t1841601450_Int32_t2071877448_Int16_t4041245914_Int16_t4041245914_SByte_t454417549_SByte_t454417549_SByte_t454417549_SByte_t454417549_SByte_t454417549_SByte_t454417549_SByte_t454417549_SByte_t454417549PFvvEPK10MethodInfoPvPS4_
HCc:__ZNK5Unity9rapidjson12GenericValueINS0_4UTF8IcEE13JSONAllocatorE6AcceptINS0_12PrettyWriterI16TempBufferWriterS3_S3_S4_EEEEbRT_
m7:__Z33InitializeBuiltinShaderParamNamesv
rgj:_CustomEventData_Add_m4217898735
TEa:__ZNK16TypeTreeIterator4TypeEv
pSi:_Vector3_get_sqrMagnitude_m1445517847
rqi:_LeaseManager__ctor_m2166901364
tSb:__ZN10FileSystem25MountDataFolderFileSystemERKN4core12basic_stringIcNS0_20StringStorageDefaultIcEEEES6_
dN:__ZN6MotionC2E18MemLabelIdentifier18ObjectCreationMode
E2g:__ZL67Selectable_t1490392188_CustomAttributesCacheGenerator_m_SpriteStateP21CustomAttributesCache
rj:_glGetUniformLocation
Ala:__ZN13GfxDeviceGLES32CreateColorRenderSurfacePlatformEP17RenderSurfaceBase19RenderTextureFormat
XP:__ZN12AudioManager24CreateFMODSoundFromMovieEP9AudioClip
QM:__ZN13ProduceHelperI9AnimationLb0EE7ProduceE18MemLabelIdentifier18ObjectCreationMode
vPi:_StackTraceUtility_ExtractStackTrace_m2375126700
Wnj:__ZN6il2cpp2vm13MetadataCache24GetGenericInstanceMethodEPK10MethodInfoPK20Il2CppGenericContext
U9a:__ZNK9Texture3D12GetDimensionEv
yKe:_SimpleCollator_SetCJKTable_m1356471502
XZe:_Int32_System_IConvertible_ToUInt64_m2888588559_AdjustorThunk
_ba:__Z24ConvertSeparatorsToUnityPc
Lfb:__ZNSt3__213__vector_baseI9InputAxisNS_9allocatorIS1_EEED2Ev
bFj:__ZN6il2cpp2vm6Thread20FreeThreadStaticDataEP12Il2CppThread
Xhh:__Z28RuntimeInvoker_RuntimeObjectPFvvEPK10MethodInfoPvPS4_
Bre:_Exception_get_ClassName_m2189012117
P0e:_IOException__ctor_m613517077
Fmi:_MarshalDirectiveException__ctor_m3894820706
k8c:_cf2_glyphpath_finalize
gee:_Stack__ctor_m521896492
gWb:__Z20LookRotationToMatrixRK8Vector3fS1_P10Matrix3x3f
Qed:__ZN17TilemapCollider2D10LateUpdateEv
b7j:dynCall_viififi
s4c:_UNITY_FT_Stream_Free
Pkg:_Type_GetTypeFromHandle_m432505302
UQi:_Transform_SetParent_m1020583764
QEj:__ZN15dense_hashtableINSt3__24pairIK10KeyWrapperINS1_IP11Il2CppClassjEEES4_EES6_N6il2cpp8metadata14ArrayClassHashEN14dense_hash_mapIS6_S4_SB_NS6_14EqualsComparerINSA_17ArrayClassCompareEEENS0_9allocatorIS8_EEE9SelectKeyESF_SH_E12maybe_shrinkEv
qmi:_GCHandle_FreeHandle_m2466807271
CVd:_GraphicRegistry_get_instance_m2112667631
X_:__ZN11UnityEngine15CloudWebService14DataDispatcher25OnDataBlockConsumedStaticEPv
Yr:__ZN9Animation20GetClipLegacyWarningEP13AnimationClip
ELd:_ExecuteEvents_Execute_m2476343313
Ezg:__ZL54_MethodInfo_t3642518830_CustomAttributesCacheGeneratorP21CustomAttributesCache
LQd:_CanvasUpdateRegistry_CleanInvalidItems_m1402635291
uJb:__Z29Transfer_Blittable_ArrayFieldI18StreamedBinaryReadILb1EE11QuaternionfEvRT_R9ArrayInfoRK23StaticTransferFieldInfo
x_e:_Int64_System_IConvertible_ToByte_m3027162116_AdjustorThunk
ZLd:_ExecuteEvents_get_endDragHandler_m56074740
O_d:_InputField_IsValidChar_m3929866302
Tnb:__Z14resize_trimmedINSt3__26vectorIN9ShaderLab20SerializedSubProgram16SamplerParameterENS0_9allocatorIS4_EEEEEvRT_j
Z7d:_ArrayList__cctor_m2090802806
O3j:__ZNSt3__212basic_stringIcNS_11char_traitsIcEENS_9allocatorIcEEE6insertEjPKcj
BDc:__Z44InitializeTransferFunctionScriptingTraitsForI8JSONReadEvR31TransferFunctionScriptingTraits
pRb:__ZNSt3__27__sort4IRNS_4lessIN22BuiltinResourceManager8ResourceEEEPS3_EEjT0_S7_S7_S7_T_
oYc:__ZN15dense_hashtableINSt3__24pairIKiiEEi21InstanceIDHashFunctorN14dense_hash_mapIiiS4_NS0_8equal_toIiEE13stl_allocatorIS3_L18MemLabelIdentifier37ELi16EEE9SelectKeyES7_SA_E14squash_deletedEv
fsa:__ZN4crnd12crn_unpacker11unpack_dxt5EPPhjjjjjj
zng:_UInt32_System_IConvertible_ToUInt64_m4083788326_AdjustorThunk
Uad:_UNITY_tt_face_get_location
Bcg:_DESTransform_Permutation_m4174035780
X0e:_Path_IsDsc_m1314465747
Z1e:_MonoIO_Seek_m3461199288
g5b:__ZN10GameObject34AddFirstTransformComponentInternalEP9Transform
Crc:__Z31Cursor_Get_Custom_PropLockStatev
B5:__ZNSt3__26__treeINS_12__value_typeINS_4pairIPcS3_EENS_3setIS3_15compare_tstringIPKcENS_9allocatorIS3_EEEEEENS_19__map_value_compareIS4_SD_20smaller_tstring_pairIS8_ELb1EEENSA_ISD_EEE7destroyEPNS_11__tree_nodeISD_PvEE
hW:__ZN12AudioManager29GetCurrentAmbisonicDefinitionE31UnityAudioEffectDefinitionFlags
Whj:__ZN15dense_hashtableINSt3__24pairIK10KeyWrapperIPK22Il2CppGenericParameterEP11Il2CppClassEES6_N6il2cpp5utils11PointerHashIS4_EEN14dense_hash_mapIS6_S9_SE_NS6_14EqualsComparerINS0_8equal_toIS5_EEEENS0_9allocatorISA_EEE9SelectKeyESJ_SL_E15insert_noresizeERKSA_
csc:__Z52Register_UnityEngine_GameObject_GetComponentInParentv
Dgb:__ZN15SerializeTraitsINSt3__24pairIPKN5Unity4TypeE7Hash128EEE8TransferI14SafeBinaryReadEEvRS7_RT_
t2b:__Z37GenerateCombinedDynamicVisibleListJobP11CullResults
xPc:__ZN10ClipperLib7Clipper11BuildResultERNSt3__26vectorINS2_INS_8IntPointENS1_9allocatorIS3_EEEENS4_IS6_EEEE
p7a:__ZNK13ScreenManager21GetCursorInsideWindowEv
wK:__ZN14SafeBinaryRead21TransferSTLStyleArrayI22OffsetPtrArrayTransferI9OffsetPtrIN7mecanim12statemachine26SelectorTransitionConstantEEEEEvRT_17TransferMetaFlags
OPj:__ZN6il2cpp2vmL22RaiseOverflowExceptionEv
QAe:_Array_InternalArray__ICollection_Add_TisSByte_t454417549_m46595441_gshared
jri:_Match_get_Empty_m3581361913
r$b:__Z20IntersectAABBFrustumRK4AABBPK5Planej
bId:_String_Concat_m626692867
fDi:_Input_GetMouseButtonDown_m2313448302
cic:__ZN13RenderManager15InitializeClassEv
Vzb:__ZN15SerializeTraitsI12PropertyNameE8TransferI14SafeBinaryReadEEvRS0_RT_
gwe:_PlayableHandle_IsPlayableOfType_TisAnimationOffsetPlayable_t1019600543_m3217464196_AdjustorThunk
WTi:_GUIUtility_GetDefaultSkin_m3585053327
o4:__GLOBAL__sub_I_runtime_baseclasses_2_cpp
IFc:__ZN9JSONWrite8TransferI11ColorRGBA32EEvRT_PKc17TransferMetaFlags
oIc:__Z22TransferField_NonArrayI8JSONRead27Converter_SimpleNativeClassI8GradientEEvRK23StaticTransferFieldInfoR31RuntimeSerializationCommandInfoRT0_
iDf:_ReadOnlyCollection_1_System_Collections_IList_RemoveAt_m2372993063_gshared
Zwa:__ZNSt3__26vectorI15ComputeShaderCBNS_9allocatorIS1_EEE21__push_back_slow_pathIKS1_EEvRT_
kOb:__ZN10MonoScript13AwakeFromLoadE17AwakeFromLoadMode
Ddc:__ZN13ProduceHelperI11MonoManagerLb0EE7ProduceE18MemLabelIdentifier18ObjectCreationMode
Sza:__ZNK18GfxFramebufferGLES15DiscardContentsER12ObjectHandleI17RenderSurface_TagP17RenderSurfaceBaseE
bPe:_KeyPairPersistence_IsUserProtected_m37342608
PEc:__Z18Transfer_BlittableI9JSONWriteLb1EdEvRK29SerializationCommandArgumentsR31RuntimeSerializationCommandInfo
ibk:_glGetIntegerv__wrapper
mYe:_NumberFormatter_ResetCharBuf_m3823516989
H:Math_pow
FFa:__ZN10GameObject28FinalizeAddComponentInternalEPN5Unity9ComponentE
d9d:_ArrayListWrapper_CopyTo_m735618473
o3a:__ZN9Texture2DD2Ev
TVa:__ZNK17InstancedPropInfo15RenderInstancesERK15RenderNodeQueuePK17BatchInstanceDataj17ShaderChannelMaskPFbPvS6_iR11MeshBuffersR16DrawBuffersRangeRiSC_E
s8d:_ArrayList_Remove_m3941780739
osh:__Z69RuntimeInvoker_Void_t1841601450_SByte_t454417549_TimeSpan_t3430258949PFvvEPK10MethodInfoPvPS4_
_Ti:_GUIUtility_Internal_GetDefaultSkin_m2938938210
LWc:__ZN16PhysicsManager2D43RegisterTransformChangeInterestForRigidbodyEP11Rigidbody2D
Z7g:_ConstructorBuilder_not_created_m2150488017
kYi:_UnityAction_2_BeginInvoke_m2906232794_gshared
zO:__ZNSt3__26vectorIiNS_9allocatorIiEEE6insertENS_11__wrap_iterIPKiEERS5_
Qwi:_Uri_AppendQueryAndFragment_m2358658590
Vq:__ZN13dynamic_arrayIhLj1EE18resize_initializedEjRKh12ResizePolicy
lfa:__ZN27IntermediateRendererManagerD2Ev
slb:__ZN17PersistentManager27GetLoadErrorMessageFromPathERKN4core12basic_stringIcNS0_20StringStorageDefaultIcEEEE
Qcg:_DecoderReplacementFallbackBuffer_Fallback_m1790184670
em:_glGenRenderbuffers
TGj:__ZN6il2cpp6icalls8mscorlib6System2IO6MonoIO19GetCurrentDirectoryEPi
f0b:__Z21IntersectSegmentPlaneRK8Vector3fS1_RK5PlanePS_
iId:_String_GetHashCode_m931956593
chb:__ZN14PlayerSettings23VirtualRedirectTransferER17RemapPPtrTransfer
ybk:_emscripten_glGetIntegerv__wrapper
ZV:__ZN12AudioManager31GetCurrentSpatializerDefinitionEv
_bb:__ZN12MeshRenderer16UpdateCachedMeshEv
Bzb:__Z19TransferField_ArrayI14SafeBinaryRead27Converter_SimpleNativeClassI8GradientEEvRK23StaticTransferFieldInfoR31RuntimeSerializationCommandInfoRT0_
Mbc:__ZN15dense_hashtableINSt3__24pairIKN4core12basic_stringIcNS2_20StringStorageDefaultIcEEEE10vector_setI4PPtrI11SpriteAtlasENS0_4lessISB_EE13stl_allocatorISB_L18MemLabelIdentifier81ELi16EEEEES6_20StringHash32FunctionIS6_EN14dense_hash_mapIS6_SH_SK_NS0_8equal_toIS6_EESE_ISI_LSF_81ELi16EEE9SelectKeyESN_SO_E15insert_noresizeERKSI_
aKj:__ZN6il2cpp2vm5Image9GetCorlibEv
rE:__ZNK27StateMachineBehaviourPlayer25FireStateMachineBehaviourEiiN7mecanim12statemachine19StateMachineMessageE
rOh:_ScrollRectEvent__ctor_m2283981448
Vrh:__Z52RuntimeInvoker_Single_t2076509932_Single_t2076509932PFvvEPK10MethodInfoPvPS4_
_Bh:__Z109RuntimeInvoker_Single_t2076509932_RuntimeObject_RuntimeObject_Single_t2076509932_ILayoutElementU26_t440254879PFvvEPK10MethodInfoPvPS4_
wdf:_Enumerator_VerifyState_m3913376581_AdjustorThunk
$Uf:_NameObjectCollectionBase_System_Collections_ICollection_CopyTo_m810189168
ILd:_ExecuteEvents_Execute_m171612015
N4b:__ZN6Camera15SetOrthographicEb
KLc:__ZN6b2Body13ResetMassDataEv
V3c:_UNITY_FT_Stream_GetUShort
tka:__ZN13GfxDeviceGLES14DisableScissorEv
Lyg:__ZL71ReliabilityContractAttribute_t1625655220_CustomAttributesCacheGeneratorP21CustomAttributesCache
cje:_Decimal_op_Explicit_m1986696267
K1h:_Dictionary_2_System_Collections_ICollection_CopyTo_m3578539931_gshared
LYe:_NumberFormatter_AppendDecimalString_m3532330813
Ic:_glVertexAttrib4f
q8g:_ILGenerator__ctor_m3365621387
lre:_Environment_GetFolderPath_m1849163024
FNe:_ASN1_Add_m2540239672
wVc:__ZN12b2BroadPhase13QueryCallbackEi
jve:_Array_InternalArray__ICollection_Remove_TisInt16_t4041245914_m3380378727_gshared
i4f:_MethodDictionary_CopyTo_m1721788774
ond:__ZN21UnityAnalyticsManagerD0Ev
$ni:_SinkProviderData__ctor_m1828480392
ZNd:_RaycastResult_ToString_m2233441736_AdjustorThunk
fWj:_GC_set_hdr_marks
ZVa:__Z17SetupObjectMatrixRK10Matrix4x4fi
eFd:_SecurityFrame_ToString_m1282306399
uLe:_SimpleCollator_MatchesBackwardCore_m1884994267
Xjg:_TimeSpan_From_m1249538749
Xld:__Z84Register_UnityEngine_RectTransformUtility_INTERNAL_CALL_RectangleContainsScreenPointv
QKe:_SimpleCollator_GetSortKey_m1317491197
E5:__ZN13RuntimeStaticINSt3__23mapINS0_4pairIPcS3_EEPFbPvR14SafeBinaryReadE20smaller_tstring_pairIPKcENS0_9allocatorINS2_IKS4_S9_EEEEEELb0EE13StaticDestroyES5_
yfh:_MonoEvent_GetCustomAttributes_m3899596098
Cie:_Convert_ToSByte_m3295168715
Ez:__ZN7mecanim9animation16CreateClipMemoryEPKNS0_4ClipEiRNS_6memory9AllocatorE
t0c:_open_face
Kgc:__ZZL31RegisterOtherRendererPropertiesR22GenericPropertyBindingEN30Wrapper_RendererReceiveShadows13SetFloatValueEPvf
Skd:__Z17RegisterModule_UIv
H6e:_UnmanagedMemoryStream_Flush_m3305300000
PQb:__ZL11LoadManagerRKN4core12basic_stringIcNS_20StringStorageDefaultIcEEEEi
jWj:_GC_printf
gla:__ZN9GfxDevice24CreateRenderDepthSurfaceE9TextureIDiiii16TextureDimension17DepthBufferFormat18SurfaceCreateFlags
l9f:_ObjectManager_DoFixups_m835924385
L6f:_RemotingServices_CreateWellKnownServerIdentity_m3390048085
PP:__ZN4FMOD5Sound11setUserDataEPv
Qw:__ZN7mecanim9animation9DenseClip8TransferI18StreamedBinaryReadILb0EEEEvRT_
anb:__ZN14SafeBinaryRead21TransferSTLStyleArrayINSt3__26vectorIN9ShaderLab19SerializedSubShaderENS1_9allocatorIS4_EEEEEEvRT_17TransferMetaFlags
Huf:_Collection_1_IsSynchronized_m3188913819_gshared
mC:__ZN27AnimationLayerMixerPlayable13SetInputCountEi
MIf:_ARC4Managed_KeySetup_m73384687
SLa:__ZNK25SingleBlockMemoryFileData4SizeEv
ule:_DateTime_Equals_m2562884703
QG:__ZN9BlobWrite8TransferIN7mecanim12statemachine18StateMachineMemoryEEEvRT_PKc17TransferMetaFlags
KT:__ZL50UnityAudioEffect_InternalSetFloatParameterCallbackP14FMOD_DSP_STATEif
yMj:__ZNK15dense_hashtableINSt3__24pairIK10KeyWrapperIP12Il2CppObjectEN6il2cpp2gc9CachedCCWEEES5_NS7_5utils11PointerHashIS3_EEN14dense_hash_mapIS5_S9_SD_NS5_14EqualsComparerINS0_8equal_toIS4_EEEENS0_9allocatorISA_EEE9SelectKeyESI_SK_E3endEv
j3:__ZN17LowLevelAllocator4FreeEPvj
Zce:_KeyMarker__cctor_m2057880225
zhj:__ZN15dense_hashtableINSt3__24pairIK10KeyWrapperIPK22Il2CppGenericParameterEP11Il2CppClassEES6_N6il2cpp5utils11PointerHashIS4_EEN14dense_hash_mapIS6_S9_SE_NS6_14EqualsComparerINS0_8equal_toIS5_EEEENS0_9allocatorISA_EEE9SelectKeyESJ_SL_E9copy_fromERKSO_j
dWe:_TextInfo_get_ListSeparator_m3426465394
o1b:__ZN14qsort_internal5QSortIP16RenderObjectDatai25RenderPrePassObjectSorterEEvT_S4_T0_T1_
NOf:_Context_set_RecordProtocol_m1968834768
Cda:__ZL19StaticCleanupPlayerPv
N_f:_X509Certificate2Enumerator_MoveNext_m1861665712
rjc:__ZN13PlayableGraph4StopEv
klh:__Z87RuntimeInvoker_RuntimeObject_RuntimeObject_RuntimeObject_RuntimeObject_SByte_t454417549PFvvEPK10MethodInfoPvPS4_
Kha:__ZN15dense_hashtableINSt3__24pairIKN4core12basic_stringIcNS2_20StringStorageDefaultIcEEEEP11AssetBundleEES6_20StringHash32FunctionIS6_EN14dense_hash_mapIS6_S9_SC_NS0_8equal_toIS6_EENS0_9allocatorISA_EEE9SelectKeyESF_SH_ED2Ev
$Tb:__Z24HandleRoundedCornerPropsP19ShaderPropertySheetRK5RectTIfERK8Vector4ff
gJd:_DecoderExceptionFallbackBuffer_Fallback_m3457210607
cTi:_WaitForSecondsRealtime__ctor_m3561981695
AU:__ZN12AudioManager37RebindAudioSourcesAndSubMixersToMixerEP10AudioMixer
rwf:_Collection_1_System_Collections_IList_get_Item_m2836259259_gshared
O1a:__ZN13StreamingInfo8TransferI14SafeBinaryReadEEvRT_
Mxc:__ZN4Grid23VirtualRedirectTransferER14SafeBinaryRead
znb:__ZN15dense_hashtableINSt3__24pairIKiN4core17string_with_labelILi1EEEEEi18SInt32HashFunctionN14dense_hash_mapIiS5_S7_NS0_8equal_toIiEE13stl_allocatorIS6_L18MemLabelIdentifier1ELi16EEE9SelectKeyESA_SD_E15insert_noresizeERKS6_
Yp:__Z23CalculateGlobalRotation23TransformAccessReadOnly
k_a:__ZNK9ShaderLab7Program11IsSupportedEPK6Shader
R_f:_X509Store_Close_m2412711366
Hgc:__Z43InitializeRendererAnimationBindingInterfacev
Xca:__ZL26DestroyGameObjectRecursiveR10GameObjectR11BatchDelete
YKh:_CullStateChangedEvent__ctor_m4025397477
wWj:_GC_allochblk_nth
Jhg:_Mutex_ReleaseMutex_m2143813124
qng:_UInt32_System_IConvertible_ToSByte_m604037412_AdjustorThunk
Qjd:__ZZN2UI6Canvas15InitializeClassEvEN33FunctorImpl_1523kTransformChanged4CallEPviR11MessageData
Vfc:__Z7HaloTexP9Texture2DPhiiii
O7j:dynCall_i
uBe:_Array_InternalArray__ICollection_CopyTo_TisKeyValuePair_2_t3749587448_m2750720485_gshared
lIi:_X509Certificate__cctor_m2984068893
rHe:_Component_GetComponents_TisRuntimeObject_m1186222966_gshared
_6j:dynCall_f
MDb:__Z35Transfer_Blittable_FixedBufferFieldI24GenerateTypeTreeTransferjEvRK29SerializationCommandArgumentsR31RuntimeSerializationCommandInfo
t0a:__ZN8Playable13SetInputCountEi
q6j:dynCall_v
h4e:_Path__cctor_m3685888661
one:_Decimal_System_IConvertible_ToDateTime_m4247760250_AdjustorThunk
$Ne:_BitConverterLE_ULongFromBytes_m2583105400
zya:__ZN7ApiGLES14TextureSamplerEjjRK24GfxTextureSamplingParams17TextureColorSpace
C0h:_Dictionary_2_ToTKey_m965425080_gshared
_Ra:__ZN6Camera23VirtualRedirectTransferER14SafeBinaryRead
Rhf:_List_1_System_Collections_IList_Insert_m2838947798_gshared
M_j:__ZNSt3__26vectorINS_12basic_stringIDsNS_11char_traitsIDsEENS_9allocatorIDsEEEENS4_IS6_EEE8__appendEj
Wjg:_TimeSpan_FromDays_m2859053398
Mqd:__ZN11UnityEngine7Connect13ConnectConfig11ConfigValueD2Ev
Toa:__ZNSt3__26__treeINS_12__value_typeIjP14DataBufferGLESEENS_19__map_value_compareIjS4_NS_4lessIjEELb1EEENS_9allocatorIS4_EEE7destroyEPNS_11__tree_nodeIS4_PvEE
wjc:__ZN13PlayableGraph15SetPrepareStageE13DirectorStage
Bb:invoke_viiiiiiii
l7e:_MissingMemberException__ctor_m2869542203
$ya:__ZN18GfxFramebufferGLES24UpdateDefaultFramebufferEP17RenderSurfaceBaseS1_N2gl6HandleILNS2_10ObjectTypeE9EEE
LJ:__ZNK18AnimatorController17GetAnimationClipsEv
c3i:_AudioSource_AddAmbisonicExtension_m312887346
Tnf:_List_1_Find_m160737912_gshared
owi:_Uri_EnsureAbsoluteUri_m1892758054
T3a:__ZN16LightmapSettings5ResetEv
fJa:__ZN12FileAccessor4ReadEyPvPy
fBc:__Z42Register_UnityEngine_Event_get_commandNamev
X7d:_ArrayList_ThrowNewArgumentOutOfRangeException_m3795973535
ICc:__ZN5Unity9rapidjson12PrettyWriterI16TempBufferWriterNS0_4UTF8IcEES4_13JSONAllocatorE12PrettyPrefixENS0_4TypeE
Ksi:_Regex_Init_m1873144192
dOe:_BitConverterLE_ToDouble_m516016818
Fca:__ZNK15FileSystemEntry6ExistsEv
zcb:__ZNK9Transform21GetLocalToWorldMatrixER10Matrix4x4f
_8i:_TextGenerator_ValidatedSettings_m647349856
ZJf:_EncryptedPrivateKeyInfo__ctor_m3398795484
TQi:_Transform_SetParent_m3603514159
QQ:__ZN13AudioListener23VirtualRedirectTransferER19StreamedBinaryWriteILb0EE
Xla:__ZN13GfxDeviceGLES11CopyTextureE9TextureIDS0_
sak:_emscripten_glViewport__wrapper
Hx:__ZN6Motion17MainThreadCleanupEv
Bzh:__Z47RuntimeInvoker_RuntimeObject_Single_t2076509932PFvvEPK10MethodInfoPvPS4_
Qoi:_Context__cctor_m3895126354
X9c:_tt_size_select
kv:__ZNSt3__214__split_bufferIN13AnimationClip10FloatCurveER13stl_allocatorIS2_L18MemLabelIdentifier26ELi16EEED2Ev
n$:__ZN11UnityEngine15CloudWebService17SessionEventQueue15RestoreFromFileER12FileAccessorPvy
Vgb:__ZN14PlayerSettingsD2Ev
e2e:_FileStream_get_Length_m2265080501
ilg:_Type_type_is_assignable_from_m1620694099
kVj:_GC_reclaim_all
_Oc:__ZN10ClipperLib15FirstIsBottomPtEPKNS_5OutPtES2_
Ofa:__ZN13PlayableGraph14DestroyOutputsEv
Ppi:_ContextAttribute_GetPropertiesForNewContext_m4007241045
pf:___syscall122
FRi:_Vector2_set_Item_m985527261_AdjustorThunk
BHf:_Kernel_Subtract_m2224959291
mli:_ResourceSet__ctor_m2566914412
HLc:__ZN19CompositeCollider2D22AddColliderToCompositeEP10Collider2DRK13dynamic_arrayIP7b2ShapeLj4EE
FIf:_ASN1Convert_ToDateTime_m2305963290
DBd:_SymmetricAlgorithm_Finalize_m1665128997
QX:__ZN9AudioClip16EnableLegacyModeEv
vjj:__ZN6il2cpp2vm5Class6IsEnumEPK11Il2CppClass
qrc:__Z52Register_UnityEngine_Camera_INTERNAL_CALL_RaycastTryv
D2j:_mkdir
ufe:_Convert_ToByte_m791636053
oii:_InternalEnumerator_1_get_Current_m2986222582_AdjustorThunk
ONi:_Vector2_set_Item_m985527261
r7j:dynCall_iifi
Bpc:__ZN18ScriptingArguments13CopyFromOtherERKS_
m6c:_ps_hints_close
qic:__Z16CreateRenderLoopR6Camera
V3:_tlsf_create
qji:_DefaultComparer_Compare_m4039941311_gshared
LYh:_Enumerator_MoveNext_m2534596951_AdjustorThunk
dib:__ZN14SafeBinaryRead21TransferSTLStyleArrayINSt3__26vectorIN15ResourceManager10DependencyE13stl_allocatorIS4_L18MemLabelIdentifier52ELi16EEEEEEvRT_17TransferMetaFlags
rOc:__ZN10ClipperLib7ClipperC1Ei
MMb:__ZN13MonoBehaviour23VirtualRedirectTransferER18StreamedBinaryReadILb0EE
Kob:__ZN9ShaderLab20SerializedSubProgramC2ERKS0_
PAd:_SHA256Managed_ProcessBlock_m1064908669
G4j:__ZNK10__cxxabiv121__vmi_class_type_info27has_unambiguous_public_baseEPNS_19__dynamic_cast_infoEPvi
Cje:_Convert_ToUInt64_m2215781574
GIi:_X509Certificate_VerifySignature_m4020723406
Kse:_CompareInfo_LastIndexOf_m2978196696
zOe:_DSAManaged_Generate_m3166917081
kVh:_Enumerator_VerifyCurrent_m3330382363_AdjustorThunk
xYh:_Enumerator_System_Collections_IEnumerator_Reset_m2909592833_AdjustorThunk
q6a:__ZN15QualitySettings23VirtualRedirectTransferER19StreamedBinaryWriteILb0EE
qZb:__Z20RenderFullScreenQuadR9GfxDeviceRK6Camera17ShaderChannelMaskRK5RectTIfEf21MonoOrStereoscopicEye
kzf:_ReadOnlyCollection_1_System_Collections_IList_Contains_m2320811592_gshared
zoa:__ZN16RenderTextureMap5QueryEPK17RenderSurfaceBase
t6e:_UnexceptionalStreamWriter_Write_m186237617
fPh:_ScrollRect_UpdateScrollbars_m3921404746
_dk:_emscripten_glUniform4iv__wrapper
$4d:_Boolean_CompareTo_m1086129598_AdjustorThunk
Ugc:__ZN8Material8GetFloatEN9ShaderLab16FastPropertyNameE
x2c:_psnames_module_class_pic_free
pzc:__Z11GetGUIStatev
pg:_pthread_key_create
k8d:_ArrayList_Clear_m3834604134
wg:_emscripten_glGetObjectParameterivARB
kSa:__ZN15SerializeTraitsI10ColorRGBAfE8TransferI14SafeBinaryReadEEvRS0_RT_
Roj:__ZN6il2cpp2vm13MetadataCache27GetEventDefinitionFromIndexEi
Ida:__ZN22BuiltinResourceManager13StaticDestroyEPv
gFe:_Array_Resize_TisCustomAttributeTypedArgument_t1498197914_m3055365808_gshared
vLc:__ZNK14b2CapsuleShape11ComputeMassEP10b2MassDataf
Oca:__ZN10GameObject17GetComponentIndexEPN5Unity9ComponentE
U7a:__ZN14SafeBinaryRead21TransferSTLStyleArrayI13dynamic_arrayI7SubMeshLj4EEEEvRT_17TransferMetaFlags
TFd:_Single_IsNegativeInfinity_m2615809279
t_e:_Int32_GetTypeCode_m3811463295_AdjustorThunk
HMf:_CipherSuiteFactory_GetSsl3SupportedCiphers_m2476597368
GWf:_IPv6Address_Fill_m1824197512
x1c:__ZNK13TextRendering4Font11GetMaterialEv
wT:__ZN29AudioEffectInternalDefinition9CreateDSPEPN4FMOD6SystemEPvPfP23UnityAudioAmbisonicDataPP25UnityAudioSpatializerData
vbd:_UNITY_tt_face_vary_cvt
oyc:__GLOBAL__sub_I_Grid_cpp
Gqj:__ZNK6il2cpp5utils10functional6FilterINSt3__212basic_stringIcNS3_11char_traitsIcEENS3_9allocatorIcEEEENS0_13VmStringUtils21CaseSensitiveComparerEEclIPKcEEbRKT_
Bzc:__Z28DidLoadAllAssembliesCallbackv
Wdd:__ZN14SafeBinaryRead21TransferSTLStyleArrayI13dynamic_arrayI21TilemapRefCountedDataI10ColorRGBAfELj4EEEEvRT_17TransferMetaFlags
I6b:__ZN35RegisterRuntimeInitializeAndCleanup22ExecuteInitializationsEv
ySc:__Z14b2TimeOfImpactP11b2TOIOutputPK10b2TOIInput
RHa:__ZN23PreloadManagerOperation14SetFinalTimingEffff
i:DYNAMICTOP_PTR
QRi:_Vector2_op_Division_m1216397880
VTd:_Dropdown_SetupTemplate_m1416189897
UUb:__Z11CopyTextureP7TextureiiS0_ii
Fgb:__ZN13BuildSettings8TransferI18StreamedBinaryReadILb0EEEEvRT_
cMh:_PositionAsUV1__ctor_m412270210
hic:__ZN10GameObject15InitializeClassEv
X9f:_SerializationInfo_GetInt16_m3549836657
ssc:__Z38Renderer_Get_Custom_PropSortingLayerIDP12Il2CppObject
c3g:__ZL90StencilMaterial_t1630303189_CustomAttributesCacheGenerator_StencilMaterial_Add_m1745413071P21CustomAttributesCache
iv:__ZN13AnimationClip10FloatCurveC2ERKS0_
Xpe:_Double_Equals_m920556135_AdjustorThunk
yIa:__ZN14AsyncOperationD0Ev
Myc:__ZN4Grid13SetCellLayoutEN10GridLayout6LayoutE
uee:_Stack_Push_m284336154
Toc:__Z25scripting_raise_exception21ScriptingExceptionPtr
jZd:_InputField_set_caretBlinkRate_m3521089516
fle:_DateTime_Add_m4237489122
mib:__ZN15ResourceManager10Dependency8TransferI14SafeBinaryReadEEvRT_
OUj:_GC_extend_size_map
rki:_Comparer_1_System_Collections_IComparer_Compare_m637596782_gshared
_T:__ZN4FMOD6System9setDriverEi
Q9b:__Z24tessMeshMergeConvexFacesP8TESSmeshi
XLj:__ZN6il2cpp8metadataL24RecursiveGenericDepthForEPK17Il2CppGenericInst
OPa:__ZNK9Transform11GetRotationEv
EZf:_X509Certificate2_Find_m833446211
nsc:__Z36Register_UnityEngine_GameObject_Findv
I6c:_pshinter_get_globals_funcs
NDb:__Z18Transfer_BlittableI24GenerateTypeTreeTransferLb0EyEvRK29SerializationCommandArgumentsR31RuntimeSerializationCommandInfo
n_a:__ZN8Material14CreateMaterialER6ShaderN6Object9HideFlagsEb
kPe:_KeyPairPersistence_FromXml_m2310151202
Ume:_DBNull_System_IConvertible_ToUInt64_m2919804476
N2j:_fread
x5c:_tt_cmap12_char_map_binary
Crh:__Z51RuntimeInvoker_Double_t4078015681_Int16_t4041245914PFvvEPK10MethodInfoPvPS4_
b2c:_ft_outline_glyph_transform
Wza:__Z25GetBuiltinResourceManagerv
Uei:_InternalEnumerator_1_System_Collections_IEnumerator_get_Current_m439366097_AdjustorThunk
nr:__ZN9Animation17RemoveFromManagerEv
Mt:__ZN6Motion21AddSelfToDependenciesER8UserList
gMj:__ZN6il2cpp2gc8GCHandle15GetTargetHandleEP12Il2CppObjectii
Nh:_llvm_trap
r7:__ZNSt3__27__sort5IRNS_6__lessIN12_GLOBAL__N_114ParamNameIndexES3_EEPS3_EEjT0_S7_S7_S7_S7_T_
H0e:_Directory_CreateDirectory_m3561886598
eAd:_RSAPKCS1KeyExchangeFormatter_CreateKeyExchange_m1122286094
jVj:_get_index
lu:__ZN11UnityEngine9Animation14GenericBinding8TransferI14SafeBinaryReadEEvRT_
RSa:__Z26scripting_method_get_class18ScriptingMethodPtr
TNf:_ClientSessionInfo_get_Valid_m3589823308
jQe:_PKCS1_Sign_v15_m2137018891
jwe:_SetPropertyUtility_SetClass_TisRuntimeObject_m3524554928_gshared
CWa:__ZN17CollisionMeshData20VertexDataHasChangedEv
Mpj:__ZN6il2cpp2vm21ThreadPoolCompartment12DetachThreadEP12Il2CppThread
wla:__ZN13GfxDeviceGLES30SetBackBufferColorDepthSurfaceEP17RenderSurfaceBaseS1_
Beg:_Latin1Encoding_GetBytes_m1067304501
VBc:__Z52Register_UnityEngine_GUIUtility_get_systemCopyBufferv
Njc:__ZN16StreamedResource8TransferI18StreamedBinaryReadILb0EEEEvRT_
Itc:__Z49Register_UnityEngine_Input_get_imeCompositionModev
ynb:__ZN15dense_hashtableINSt3__24pairIKiN4core17string_with_labelILi1EEEEEi18SInt32HashFunctionN14dense_hash_mapIiS5_S7_NS0_8equal_toIiEE13stl_allocatorIS6_L18MemLabelIdentifier1ELi16EEE9SelectKeyESA_SD_E12resize_deltaEjj
vDf:_ReadOnlyCollection_1__ctor_m2387481411_gshared
I3b:__ZNK20OcclusionCullingData22GetStaticRendererCountEv
I3c:_UNITY_tt_face_free_ps_names
AJc:__GLOBAL__sub_I_runtime_particlesystem_modules_5_cpp
tZb:__ZNK6Camera17GetSkyboxMaterialEv
gfk:_emscripten_glDisableVertexAttribArray__wrapper
mbi:_InternalEnumerator_1_get_Current_m3259181373_AdjustorThunk
Ddi:_InternalEnumerator_1_get_Current_m789289033_gshared
ZIe:_Array_InternalArray__get_Item_TisUILineInfo_t3621277874_m1432166059_gshared
acb:__ZN12MeshRenderer18CalculateLocalAABBER4AABBRKS_RK4Mesh
$ej:_ContactFilter2D_CheckConsistency_m4046727088_AdjustorThunk
GHi:_X509CertificateCollection_GetEnumerator_m3994741635
Fsh:__Z242RuntimeInvoker_Boolean_t3825574718_RuntimeObject_RuntimeObject_RuntimeObject_SByte_t454417549_DateTimeU26_t3448131235_DateTimeOffsetU26_t3212986406_RuntimeObject_Int32_t2071877448_SByte_t454417549_BooleanU26_t3168250738_BooleanU26_t3168250738PFvvEPK10MethodInfoPvPS4_
YWe:_Guid_ToString_m3927110175
O2:__ZN21UnityDefaultAllocatorI17LowLevelAllocatorE8AllocateEji
xhi:_InternalEnumerator_1_get_Current_m889125315_gshared
yYd:_Image_get_preferredHeight_m1045199335
Gid:__ZL28InitializeUIScriptingClassesv
ZAi:_Display_RecreateDisplayList_m1746695619
_dd:__ZN15SerializeTraitsI13dynamic_arrayI21TilemapRefCountedDataI10Matrix4x4fELj4EEE19ResizeSTLStyleArrayERS4_i
BQb:__ZN10UnityScene10ClearRootsEv
vub:__ZN12HandlerChain10AtomicMoveER13FileEntryDataS1_
kwe:_SetPropertyUtility_SetStruct_TisBoolean_t3825574718_m752301298_gshared
oga:__ZZN15DirectorManager15InitializeClassEvEN48PreLateUpdateDirectorDeferredEvaluateRegistrator7ForwardEv
b_c:__ZN20SpeedTreeWindManager6UpdateEf
qvi:_Literal_GetWidth_m1285678191
Zge:_Decimal_ThrowAtPos_m3318712794
SVi:_GUITargetAttribute_GetGUITargetAttrValue_m3706077059
zjh:__Z63RuntimeInvoker_Char_t3454481338_Int16_t4041245914_RuntimeObjectPFvvEPK10MethodInfoPvPS4_
LQe:_RSAManaged_GetPaddedValue_m4394397
AI:__ZN7mecanim9animation20CreateAvatarConstantEPNS_8skeleton8SkeletonEPNS1_13SkeletonPoseTIN4math4trsXEEES8_PNS_5human5HumanES3_iRKS6_RNS_6memory9AllocatorE
r6e:_UnexceptionalStreamWriter__ctor_m2209699189
dkf:_List_1_Find_m970100220_gshared
Vve:_Array_InternalArray__ICollection_Remove_TisVector2_t2243707579_m3881494282_gshared
xbb:__ZN14CompressedMesh8TransferI19StreamedBinaryWriteILb0EEEEvRT_
g6g:_AssemblyFileVersionAttribute__ctor_m2026149866
mCe:_Array_InternalArray__ICollection_CopyTo_TisUILineInfo_t3621277874_m2142954044_gshared
mch:_TypeBuilder_SetParent_m387557893
VRi:_Vector2_get_up_m1721661564
sMf:_CipherSuiteCollection_cultureAwareCompare_m1825407448
Jke:_DateTimeFormatInfo_GetEraName_m1437894363
SCe:_Array_InternalArray__Insert_TisLabelFixup_t4090909514_m3927736182_gshared
b0f:_X509KeyUsageExtension_Encode_m3100824560
iVa:__ZN24GenerateTypeTreeTransfer8TransferI21PlatformShaderDefinesEEvRT_PKc17TransferMetaFlags
Whb:__ZNK15ResourceManager22GetTypeVirtualInternalEv
I2h:_DefaultComparer_GetHashCode_m1728348656_gshared
B_d:_InputField_MouseDragOutsideRect_m3758282095
uGi:_Object__cctor_m3758199678
XLh:_Outline_ModifyMesh_m3796381413
n_c:__ZN13TextRendering4Font23VirtualRedirectTransferER24GenerateTypeTreeTransfer
Vuc:__Z64Register_UnityEngine_SceneManagement_Scene_GetBuildIndexInternalv
h1f:_Interpreter_PopulateGroup_m4098755954
jKf:_PrivateKeyInfo_DecodeRSA_m919734506
Ttc:__ZNSt3__27__sort4IRNS_6__lessI11KeyframeTplIfES3_EEPS3_EEjT0_S7_S7_S7_T_
rWe:_GuidParser_Reset_m3389485794
vY:__ZN11AudioSource15InitializeClassEv
bqf:_Enumerator_System_Collections_IEnumerator_get_Current_m1270503615_gshared
Eai:_InternalEnumerator_1_System_Collections_IEnumerator_get_Current_m3315293493_gshared
iWi:_TextEditor__ctor_m1435332308
SYb:__ZN11HaloManager17RenderGeometryJobEP25DynamicVBOGeometryJobDataj
h$e:_Int64_Parse_m4214159959
Mdi:_InternalEnumerator_1_System_Collections_IEnumerator_get_Current_m4023948615_gshared
YN:__ZNSt3__227__insertion_sort_incompleteIRPFbN7mecanim9animation13MuscleIndexIdES3_EPS3_EEbT0_S8_T_
MJd:_BaseInput_get_mousePresent_m3571192771
sfk:_emscripten_glBlendEquation__wrapper
jEj:__ZN15dense_hashtableINSt3__24pairIK10KeyWrapperIP11Il2CppClassES4_EES5_N6il2cpp8metadata16SZArrayClassHashEN14dense_hash_mapIS5_S4_SA_NS5_14EqualsComparerINS9_19SZArrayClassCompareEEENS0_9allocatorIS7_EEE9SelectKeyESE_SG_E13set_empty_keyERKS7_
z3j:__ZNSt3__212basic_stringIcNS_11char_traitsIcEENS_9allocatorIcEEE6__initEPKcj
Sj:_emscripten_set_fullscreenchange_callback
WPe:_KeyPairPersistence__IsUserProtected_m3417764903
E0f:_CategoryUtils_CategoryFromName_m226887453
roe:_Decimal_op_Division_m1099836590
_1:__ZN11UnityEngine15CloudWebService14DataDispatcher22ResetNetworkRetryIndexEv
Xj:_emscripten_glDrawArrays
SSb:__ZZ23InitPlayerLoopCallbacksvEN43EarlyUpdateExecuteMainThreadJobsRegistrator7ForwardEv
B1:__ZN11UnityEngine15CloudWebService19SessionEventManagerC2Ev
A1e:_File_Open_m1543461971
Ece:_Hashtable_KeyEquals_m1433874944
YSi:_Vector4__cctor_m1770725722
Fsi:_QuickSearch_GetShiftDistance_m2364008966
Avd:__ZN13RuntimeStaticI14dynamic_bitsetLb0EE16StaticInitializeEPv
_u:__ZN13AnimationClip10FloatCurve8TransferI14SafeBinaryReadEEvRT_
Dia:__ZNSt3__222__merge_move_constructIRNS_4lessIN4core12basic_stringIcNS2_20StringStorageDefaultIcEEEEEENS_11__wrap_iterIPS6_EESB_EEvT0_SC_T1_SD_PNS_15iterator_traitsISC_E10value_typeET_
grc:__Z41Register_UnityEngine_Camera_get_eventMaskv
NY:__ZL19CleanupModule_Audiov
P0i:_GenericComparer_1_Compare_m2516380588_gshared
ruj:__ZN6il2cpp2os4File10DeleteFileERKNSt3__212basic_stringIcNS2_11char_traitsIcEENS2_9allocatorIcEEEEPi
I0e:_File_Exists_m1685968367
abj:_Canvas_get_scaleFactor_m1899077319
RAb:__Z29Transfer_Blittable_ArrayFieldI14SafeBinaryReadiEvRT_R9ArrayInfoRK23StaticTransferFieldInfo
Cqj:__ZN6il2cpp6icalls8mscorlib6System8MonoType8GetFieldEP20Il2CppReflectionTypeP12Il2CppStringi
Lmj:__ZN15dense_hashtableINSt3__24pairIK10KeyWrapperIN6il2cpp5utils13dynamic_arrayIPK10Il2CppTypeLj4EEEEPFvvEEESA_NS3_8metadata19Il2CppSignatureHashEN14dense_hash_mapISA_SD_SG_NSA_14EqualsComparerINSF_22Il2CppSignatureCompareEEENS0_9allocatorISE_EEE9SelectKeyESK_SM_E5clearEv
Nbk:_emscripten_glVertexAttrib3fv__wrapper
VFf:_Comparison_1_BeginInvoke_m1549337842_gshared
FJi:_X509Crl_VerifySignature_m25189948
Tnc:__ZN8Material10GetTextureEN9ShaderLab16FastPropertyNameE
kbb:__ZN18StreamedBinaryReadILb0EE21TransferSTLStyleArrayI13dynamic_arrayI10Matrix4x4fLj16EEEEvRT_17TransferMetaFlags
Ndc:__ZNK28MonoBehaviourPropertyBinding13GetFloatValueERKN11UnityEngine9Animation10BoundCurveE
nag:_RuntimeFieldHandle_Equals_m1202966418_AdjustorThunk
$Wj:_GC_generic_malloc
kYh:_Enumerator_System_Collections_IEnumerator_get_Current_m2160496972_AdjustorThunk
Bla:__ZN13GfxDeviceGLES32CreateDepthRenderSurfacePlatformEP17RenderSurfaceBase17DepthBufferFormat
Tyi:_Camera_INTERNAL_CALL_ScreenToViewportPoint_m2554844623
gu:__ZNSt3__26vectorI14AnimationEvent13stl_allocatorIS1_L18MemLabelIdentifier26ELi16EEE18__construct_at_endINS_11__wrap_iterIPS1_EEEENS_9enable_ifIXsr21__is_forward_iteratorIT_EE5valueEvE4typeESB_SB_j
sri:_MatchCollection_TryToGet_m2938913145
Kfk:_emscripten_glIsTexture__wrapper
$wd:_KeyedHashAlgorithm_get_Key_m3672929432
_ka:__ZN9GfxDevice25ReleaseAsyncCommandHeaderEPN21GfxDeviceAsyncCommand3ArgE
lFi:_Mesh_SetSizedArrayForChannel_m3453069292
lJf:_MD2Managed_HashCore_m248147901
IYc:__ZN17Physics2DSettings15InitializeClassEv
JAa:__ZN21UniformBufferTFMethod20IsBoneCountSupportedEi
_Nh:_Selectable_FindSelectableOnLeft_m3706572906
m3e:_MemoryStream__ctor_m4073175573
f_a:__ZN6Shader27MarkShaderStateNotSupportedEPKS_
lGe:_Array_Sort_TisVector4_t2243707581_TisVector4_t2243707581_m917148421_gshared
bmg:_UInt16_System_IConvertible_ToBoolean_m887616848_AdjustorThunk
s$g:__ZL81AnimationTriggers_t3244928895_CustomAttributesCacheGenerator_m_HighlightedTriggerP21CustomAttributesCache
iAa:__ZN25TransformFeedbackSkinning8SkinMeshERK18VertexStreamSourceP9GfxBufferP17GPUSkinPoseBufferS4_ii17ShaderChannelMaskb
qJj:__ZN15dense_hashtableINSt3__24pairIK10KeyWrapperIP14Il2CppIUnknownEjEES5_N6il2cpp5utils11PointerHashIS3_EEN14dense_hash_mapIS5_jSB_NS5_14EqualsComparerINS0_8equal_toIS4_EEEENS0_9allocatorIS7_EEE9SelectKeyESG_SI_E12resize_deltaEjj
PUi:_GUIStyle_get_margin_m393866826
Bfg:_UnicodeEncoding_GetCharCount_m3719064538
X4d:_Boolean_CompareTo_m3691698947
J2h:_DefaultComparer_Equals_m3262686272_gshared
R9b:__Z18tessMeshDeleteMeshP9TESSallocP8TESSmesh
qGb:__Z22TransferField_NonArrayI19StreamedBinaryWriteILb0EE27Converter_SimpleNativeClassI8GUIStyleEEvRK23StaticTransferFieldInfoR31RuntimeSerializationCommandInfoRT0_
R4e:_StreamReader_ReadToEnd_m3871366821
oQh:_Selectable_set_interactable_m63718297
WIc:__ZN8JSONRead8TransferIN4math12int3_storageEEEvRT_PKc17TransferMetaFlagsb
NTb:__ZN27IntermediateRendererManager29ClearAllIntermediateRenderersEv
lCe:_Array_InternalArray__ICollection_CopyTo_TisUICharInfo_t3056636800_m2132994790_gshared
Zp:__Z17CalculateGlobalSM23TransformAccessReadOnlyRKN4math7_float4E
Xl:_emscripten_glLoadIdentity
W6b:__ZNSt3__26vectorINS_4pairIN4core12basic_stringIcNS2_20StringStorageDefaultIcEEEEPK17MessageIdentifierEENS_9allocatorISA_EEE26__swap_out_circular_bufferERNS_14__split_bufferISA_RSC_EEPSA_
dfe:_Decimal_op_GreaterThan_m1625379433
d2b:__Z29CullShadowCastersWithoutUmbraR9IndexListRK17CullingParametersPK4AABBjj
xYb:__ZN6Camera28DefaultPerformRenderFunctionclEPS_13RenderingPathP11CullResults
ksb:__ZN6Shader16GetDefaultOrNullEv
Ap:__ZN4AABB8TransferI14SafeBinaryReadEEvRT_
dth:__Z79RuntimeInvoker_RuntimeObject_SByte_t454417549_SByte_t454417549_SByte_t454417549PFvvEPK10MethodInfoPvPS4_
kRc:__ZN16PhysicsManager2D26GetGameObjectForRaycastHitERK12RaycastHit2D
pXe:_Int16_System_IConvertible_ToDecimal_m2010889121_AdjustorThunk
Mve:_Array_InternalArray__ICollection_Remove_TisPlayableBinding_t2498078091_m2632165671_gshared
A4a:__ZN18StreamedBinaryReadILb0EE21TransferSTLStyleArrayI13dynamic_arrayI12LightmapDataLj4EEEEvRT_17TransferMetaFlags
M8b:__Z11MD5ToStringPh
xcf:_Enumerator_MoveNext_m2625246500_AdjustorThunk
stc:__Z38Input_Get_Custom_PropCompositionStringv
Ugg:_UTF8Encoding_GetPreamble_m4179999478
eM:__ZN7mecanim12statemachine18TransitionConstant8TransferI19StreamedBinaryWriteILb0EEEEvRT_
njj:__ZN6il2cpp2vm5Class19GetArrayElementSizeEPK11Il2CppClass
t7c:_cf2_builder_moveTo
Cce:_SyncHashtable__ctor_m3750218498
J$:__ZN9JSONWrite8TransferIN4core12basic_stringIcNS1_20StringStorageDefaultIcEEEEEEvRT_PKc17TransferMetaFlags
SGi:_GeneralNames_get_IPAddresses_m1712556836
hgg:_UTF7Encoding_GetByteCount_m253528135
sNd:_PointerInputModule_CopyFromTo_m2185451090
NSc:__ZN24b2ChainAndPolygonContact6CreateEP9b2FixtureiS1_iP16b2BlockAllocator
I3j:__ZNSt3__212basic_stringIcNS_11char_traitsIcEENS_9allocatorIcEEE6resizeEjc
tze:_Array_InternalArray__IndexOf_TisMonoResource_t3127387157_m1933788179_gshared
Ygb:__ZN14PlayerSettings16CheckConsistencyEv
xX:__ZN11AudioModule30GetOrCreateDSPFromCustomFilterEP17AudioCustomFilter
uTa:__ZN19AtomicPageAllocatorD2Ev
Dn:FUNCTION_TABLE_viiiiiiiiiiiiii
SJj:__ZN6il2cpp6icalls8mscorlib6System13GlobalizationL20culture_lcid_locatorEPKvS5_
Ctf:_Collection_1_Add_m3182287887_gshared
FMd:_PointerEventData_set_useDragThreshold_m2778439880
C1a:__ZNK12CubemapArray16ExtractImageImplEP14ImageReferenceNS0_8BlitModeEbi
puc:__Z63Register_UnityEngine_MonoBehaviour_StartCoroutine_Auto_Internalv
vv:__ZNSt3__26vectorIN13AnimationClip12Vector3CurveE13stl_allocatorIS2_L18MemLabelIdentifier26ELi16EEEC2INS_11__wrap_iterIPS2_EEEET_SB_RKS5_PNS_9enable_ifIXaasr21__is_forward_iteratorISB_EE5valuesr16is_constructibleIS2_NS_15iterator_traitsISB_E9referenceEEE5valueEvE4typeE
Gnc:__ZN10systeminfo24GetSystemLanguageCultureEi
ffg:_StringBuilder_Append_m3618697540
yQc:__ZN16CircleCollider2D5ResetEv
EPh:_ScrollRect_get_normalizedPosition_m1640825682
jDd:_SecurityElement_IsValidAttributeName_m2201790420
ihb:__ZN10VRSettings8TransferI14SafeBinaryReadEEvRT_
jmg:_UInt16_System_IConvertible_ToDecimal_m984067306_AdjustorThunk
s3b:__Z18AddGroupToWorkloadR26BlockRangeBalancedWorkloadjR13dynamic_arrayI10BlockRangeLj4EERS1_IjLj4EE
e2c:_UNITY_FT_Outline_Get_CBox
VAe:_Array_InternalArray__ICollection_Add_TisUInt16_t986882611_m2791161149_gshared
Z4:__GLOBAL__sub_I_runtime_gfxdevice_0_cpp
VUh:_Enumerator_Reset_m3115320746_gshared
vYe:_NumberFormatter_FormatDecimal_m1435371940
IKe:_SimpleCollator_GetTailContraction_m1037943844
wyd:_RC2CryptoServiceProvider_CreateEncryptor_m252199767
OZi:_U3CStartU3Ec__Iterator0_MoveNext_m2339115502_gshared
fud:__ZN20UnityWebRequestProtoI24UnityWebRequestTransport16AtomicRefCounter14RedirectHelper14ResponseHelper15DownloadHandler13UploadHandler12HeaderHelper14AsyncOperationE8FinalizeEv
vzh:__Z165RuntimeInvoker_Void_t1841601450_RuntimeObject_Int32_t2071877448_Int32_t2071877448_RuntimeObject_Int32_t2071877448_Single_t2076509932_Single_t2076509932_RuntimeObjectPFvvEPK10MethodInfoPvPS4_
nQa:__ZN22PerThreadPageAllocator14AcquireNewPageEj
JY:__ZN24AudioScriptBufferManager15DidReloadDomainEv
dDb:__Z18Transfer_BlittableI24GenerateTypeTreeTransferLb1E9BoundsIntEvRK29SerializationCommandArgumentsR31RuntimeSerializationCommandInfo
e_b:__ZN6Camera13ClearNoSkyboxEb
L_e:_Int64_System_IConvertible_ToInt64_m989981560_AdjustorThunk
mjf:_List_1_CheckIndex_m2576265846_gshared
oAh:__Z110RuntimeInvoker_Boolean_t3825574718_Vector2_t2243707579_Vector2_t2243707579_Single_t2076509932_SByte_t454417549PFvvEPK10MethodInfoPvPS4_
ITi:_Event_get_mousePosition_m1191943012
N2d:_Array_combsort_m2486643569
yFi:_Mesh_SetUVs_m3637760384
bfa:__ZNSt3__27__sort5IR17CompareInstanceIDPP6ObjectEEjT0_S6_S6_S6_S6_T_
P6b:__ZN13sorted_vectorINSt3__24pairIN4core12basic_stringIcNS2_20StringStorageDefaultIcEEEEPK17MessageIdentifierEEN10vector_mapIS6_S9_NS0_4lessIS6_EENS0_9allocatorISA_EEE13value_compareESF_E4findIS6_EENS0_11__wrap_iterIPSA_EERKT_
V2h:_DefaultComparer_Equals_m145577182_gshared
moa:__ZN18GfxFramebufferGLES10InvalidateEv
qTe:_SmallXmlParser_SkipWhitespaces_m2923234398
Bne:_Decimal_System_IConvertible_ToSingle_m1736019752_AdjustorThunk
csa:__ZN4crnd11crnd_deleteINS_13prefix_coding14decoder_tablesEEEvPT_
w6:__ZN10MemoryPoolD2Ev
Pv:__ZN17AnimationCurveTplI11QuaternionfE8TransferI14SafeBinaryReadEEvRT_
nAc:__ZNSt3__26__treeINS_12__value_typeIN4core12basic_stringIcNS2_20StringStorageDefaultIcEEEEN5IMGUI12NamedControlEEENS_19__map_value_compareIS6_S9_NS_4lessIS6_EELb1EEENS_9allocatorIS9_EEE7destroyEPNS_11__tree_nodeIS9_PvEE
$Rf:_SslClientStream_get_SelectedClientCertificate_m1580018944
cge:_DateTime_FromTicks_m75527956
COe:_KeyGeneratedEventHandler_Invoke_m4220935979
Wac:__ZN19SpriteMeshGenerator4path3decEi
bhg:_CompressedStack_Capture_m179370023
Gxa:__ZN14GfxDeviceStats19EndClientFrameStatsEv
Roe:_DebuggerTypeProxyAttribute__ctor_m3082078467
Wve:_Array_InternalArray__ICollection_Remove_TisVector3_t2243707580_m3881497481_gshared
p2j:___mmap
Joc:__ZN9Scripting26RaiseArgumentNullExceptionEPKc
ggk:b120
g4:__ZL18InternalLogConsolePKcz
j1j:_lseek
Wif:_List_1_System_Collections_IList_set_Item_m2267202349_gshared
Qdf:_Enumerator_System_Collections_IEnumerator_get_Current_m3866069145_AdjustorThunk
Utf:_Collection_1_ConvertItem_m2972284337_gshared
Baa:__Z37scripting_method_get_nth_argumenttype18ScriptingMethodPtri
aW:__ZN11AudioSource16UpdatePauseStateEv
Kea:__ZL52StaticUnregisterSceneLoadedCallback_LightmapSettingsPv
IC:__ZN7mecanim5human25HumanPoseAddAdditiveLayerERNS0_9HumanPoseERKS1_fRKNS_6bitsetILj70EEE
dia:__ZN13RuntimeStaticI18SpriteAtlasManagerLb0EE16StaticInitializeEPv
fWf:_RemoteCertificateValidationCallback_Invoke_m2237177542
tXd:_HorizontalOrVerticalLayoutGroup_set_childForceExpandWidth_m1140293254
Y_j:__ZN6il2cpp5utils25NativeDelegateMethodCache17AddNativeDelegateEPFvvEPK10MethodInfo
gVf:_NameObjectCollectionBase_BaseAdd_m964300824
Xte:_Array_InternalArray__ICollection_Contains_TisKeyValuePair_2_t1174980068_m650645929_gshared
pZb:__ZN27DeviceViewProjMatricesStateD2Ev
Bzd:_RNGCryptoServiceProvider_RngOpen_m2238023214
d7g:_CustomAttributeData_GetCustomAttributes_m4124612360
QCb:__Z18Transfer_BlittableI24GenerateTypeTreeTransferLb0E8Vector3fEvRK29SerializationCommandArgumentsR31RuntimeSerializationCommandInfo
PKj:__ZN15dense_hashtableINSt3__24pairIK10KeyWrapperINS1_IPKcS4_EEEiEES6_24NamespaceAndNamePairHashN14dense_hash_mapIS6_iS9_NS6_14EqualsComparerI26NamespaceAndNamePairEqualsEENS0_9allocatorIS8_EEE9SelectKeyESD_SF_E14squash_deletedEv
j_c:__ZNK13TextRendering4Font22GetTypeVirtualInternalEv
jFj:__ZN6il2cpp2vm6Thread16RequestInterruptEP12Il2CppThread
Fib:__ZN19StreamedBinaryWriteILb0EE21TransferSTLStyleArrayINSt3__26vectorIN15ResourceManager10DependencyE13stl_allocatorIS5_L18MemLabelIdentifier52ELi16EEEEEEvRT_17TransferMetaFlags
QTf:_TlsStream_get_Position_m3551173234
Koi:_LeaseManager_SetPollTime_m3137304074
Pbe:_Hashtable_CalcPrime_m1835281409
F_c:__ZNSt3__26vectorINS_4pairINS1_IttEEfEENS_9allocatorIS3_EEE8__appendEj
Ndd:__Z29GetTilemapScriptingClassesPtrv
Ysa:__ZN6prcoreL10inner_flipILj2EEEvPhS1_j
och:_TypeBuilder_has_ctor_method_m3449702467
x9a:__ZNK14Texture2DArray16ExtractImageImplEP14ImageReferenceNS0_8BlitModeEbi
jFc:__ZN9JSONWrite8TransferIbEEvRT_PKc17TransferMetaFlags
h2d:_Array_CreateInstance_m679102425
mHa:__ZN12TLSAllocatorI14StackAllocatorED0Ev
mmi:_GCHandle_GetTarget_m2056570211
Xfb:__ZN11TimeManager16CheckConsistencyEv
KWb:__ZN21GfxDeviceAsyncCommand10ArgScratch15ThreadedCleanupEv
rPc:__ZN10ClipperLib14IntersectPointERNS_5TEdgeES1_RNS_8IntPointE
Dui:_CapturingGroup_get_IsNamed_m561983186
sKe:_MSCompatUnicodeTable_IsJapaneseSmallLetter_m2541532635
TGf:_BigInteger_GenerateRandom_m1878468830
pCb:__ZN12NativeBufferI27Converter_UnityEngineObjectE15SetupForWritingER9ArrayInfo
gac:__ZL19CheckForRightSpliceP14TESStesselatorP12ActiveRegion
WVd:_Graphic_UpdateGeometry_m2431537946
naf:_ObsoleteAttribute__ctor_m834417715
ue:_glTexImage3D
KY:__Z20RegisterModule_Audiov
BMf:_TlsCipherSuite__ctor_m2983563913
E_a:__ZNSt3__26vectorINS_4pairI11ShaderTagIDS2_EENS_9allocatorIS3_EEE6insertENS_11__wrap_iterIPKS3_EERS8_
De:_JS_SystemInfo_GetCurrentCanvasWidth
fpc:__ZL34GetComponentsImplementationRecurseILb1ELi0ELi1EEbR10GameObjectbRK17CompareParametersRK39GetComponentsImplementation_ReturnValue
WHj:__ZN6il2cpp2vm14PlatformInvoke30MarshalCSharpStringToCppStringEP12Il2CppString
zNj:__ZN6il2cpp2vm5Field10IsInstanceEP9FieldInfo
Ehb:__ZN10VRSettings8TransferI18StreamedBinaryReadILb0EEEEvRT_
LB:__ZN22AnimationMixerPlayable12MixerProcessEP35AnimationPlayableEvaluationConstantP32AnimationPlayableEvaluationInputP33AnimationPlayableEvaluationOutputM17AnimationPlayableFvS1_S3_S5_EPFvS1_S3_S5_ESA_PFvS5_S1_S3_S5_PN7mecanim16ValueArrayWeightEfEPFvS1_S3_S5_SD_fE
eci:_InternalEnumerator_1_System_Collections_IEnumerator_get_Current_m1322273508_AdjustorThunk
Fub:__ZN22LocalFileSystemHandler4NameEv
k$e:_Int64_TryParse_m3093198325
Yuh:__Z145RuntimeInvoker_Void_t1841601450_RuntimeObject_RuntimeObject_RuntimeObject_Int32_t2071877448_Int32_t2071877448_Int32_t2071877448_Int32_t2071877448PFvvEPK10MethodInfoPvPS4_
gqj:__ZN6il2cpp2vm10ThreadPool5QueueEP14Il2CppDelegatePPvS3_P12Il2CppObject
wGb:__Z19TransferField_ArrayI19StreamedBinaryWriteILb0EE27Converter_SimpleNativeClassI8GradientEEvRK23StaticTransferFieldInfoR31RuntimeSerializationCommandInfoRT0_
Q1e:_FileLoadException_ToString_m319701103
d4e:_NullStream_Seek_m1809916110
aNc:__ZNK12b2WheelJoint16GetReactionForceEf
woe:_Delegate_SetMulticastInvoke_m361277268
OJd:_BaseInput_GetMouseButtonUp_m32571233
rdg:_EncoderReplacementFallbackBuffer_get_Remaining_m2777488845
u8a:__ZN7SubMesh8TransferI18StreamedBinaryReadILb0EEEEvRT_
Mgg:_UTF8Encoding_GetCharCount_m3557355060
Kbi:_InternalEnumerator_1_System_Collections_IEnumerator_get_Current_m127456009_gshared
ryc:__ZNK19RectangleCellLayout9CellRoundERKN4Grid9GridStateERKN4math7_float3E
hf:_emscripten_glIsEnabled
yIb:__ZN18StreamedBinaryReadILb1EE21TransferSTLStyleArrayI13dynamic_arrayIdLj8EEEEvRT_17TransferMetaFlags
esc:__Z45Register_UnityEngine_GameObject_get_transformv
I9:__Z29scripting_class_instance_size17ScriptingClassPtr
EIc:__Z29Transfer_Blittable_ArrayFieldI8JSONRead5RectTIiEEvRT_R9ArrayInfoRK23StaticTransferFieldInfo
XLc:__ZN7b2World12DestroyJointEP7b2Joint
o9i:_Func_2_Invoke_m2929712329_gshared
BSf:_SslHandshakeHash_initializePad_m4132246594
Ac:invoke_iiiiiiiii
a$f:_X509CertificateCollection_get_Item_m848456018
b2:__ZN11UnityEngine15CloudWebService19SessionEventManager26ProcessEventQueueJobStaticEPv
fui:_AnchorInfo_get_IsUnknownWidth_m3747592836
Bdb:__ZL19SpriteMeshExtractorPv17ShaderChannelMaskiR11MeshBuffersR16DrawBuffersRangeRiS5_
FCh:__Z99RuntimeInvoker_Void_t1841601450_Int32_t2071877448_Int32_t2071877448_Int32_t2071877448_RuntimeObjectPFvvEPK10MethodInfoPvPS4_
v2:__ZN11UnityEngine15CloudWebService19SessionEventManager37OnTimerExpiredPerformArchiveJobStaticEPv
bEc:__Z18Transfer_BlittableI9JSONWriteLb1E9BoundsIntEvRK29SerializationCommandArgumentsR31RuntimeSerializationCommandInfo
LAi:_DebugLogHandler_Internal_LogException_m4229368478
RXa:__ZN10builtintex15GetWhiteTextureEv
_$j:__ZN6il2cpp6icalls8mscorlib6System10Reflection4Emit11DerivedType21create_unmanaged_typeEP20Il2CppReflectionType
_7f:_FormatterConverter_ToInt32_m1004171952
_ga:__Z29GetOcclusionPortalManagerListv
m1d:_Array_System_Collections_IList_set_Item_m4290470392
H6f:_RemotingConfiguration_RegisterActivatedServiceType_m4003543022
Evc:__Z39Register_UnityEngine_Sprite_get_texturev
Doi:_ConfigHandler_GetNotNull_m2454680251
oej:__ZL10rescale128PyS_Piiiii
sQ:__ZN9AudioClip7WWWSeekEPvjS0_
zVb:__ZN8GUILayer14RenderGUILayerE5RectTIfEjR17ShaderPassContext
O5:__ZL32StaticInitializeIUnityInterfacesPv
nWb:__Z13CameraProjectRK8Vector3fRK10Matrix4x4fS4_RK5RectTIiERS_b
yjb:__ZN30RuntimeInitializeOnLoadManager15ClassMethodInfo8TransferI19StreamedBinaryWriteILb0EEEEvRT_
Wda:__Z22CreateMutexLockedStackv
zke:_DateTime_System_IConvertible_ToType_m3821835592
w2f:_IntervalCollection_get_Item_m1667788970
qRb:__ZNSt3__27__sort5IRNS_4lessIN22BuiltinResourceManager8ResourceEEEPS3_EEjT0_S7_S7_S7_S7_T_
xeg:_Latin1Encoding_GetByteCount_m2812921286
erb:__ZN9ShaderLab11ShaderStateD2Ev
jne:_Decimal_System_IConvertible_ToByte_m3432160840
Jad:_Ins_DELTAP
qeg:_UTF7Encoding__ctor_m1941256679
_Nb:__Z23TransferScriptingObjectI24GenerateTypeTreeTransferEvRT_18ScriptingObjectPtr17ScriptingClassPtrPK15MonoScriptCache
b8f:_BinaryCommon__cctor_m3619690968
s1c:_UNITY_FT_Set_Pixel_Sizes
mJi:_X509Chain_FindCertificateRoot_m589250107
Cpg:_Version_GetHashCode_m880841176
cL:__ZN7mecanim10ValueArray8TransferI24GenerateTypeTreeTransferEEvRT_
dG:__ZN8Animator24SortJobsBasedOnHierarchyERK13dynamic_arrayINS_11AnimatorJobELj8EERS0_IS2_Lj4EE
cGb:__ZL17Transfer_GUIStyleI19StreamedBinaryWriteILb0EELb0EEvRK29SerializationCommandArgumentsR31RuntimeSerializationCommandInfo
sub:__ZNK12HandlerChain6TargetERK13FileEntryDataR15FileSystemEntry
xdg:_Encoding__ctor_m3985582722
X8f:_ObjectManager_RaiseOnDeserializingEvent_m1841526046
lId:_String_CreateString_m560359261
m3c:_UNITY_FT_Init_Class_tt_service_get_cmap_info
bwd:_DSA_ToXmlString_m1014346120
NAd:_SHA256Managed__ctor_m1410575277
NLc:__ZN16b2BlockAllocator4FreeEPvi
yGi:_Plane_Raycast_m3246912889_AdjustorThunk
Fse:_CompareInfo_internal_index_managed_m859405335
r4d:_Boolean_System_IConvertible_ToDateTime_m2613818037_AdjustorThunk
ipj:__ZNSt3__211__tree_nextIPNS_16__tree_node_baseIPvEEEET_S5_
BCf:_ReadOnlyCollection_1_System_Collections_IList_Clear_m2240307498_gshared
sLj:__ZN15dense_hashtableI10KeyWrapperIP18Il2CppGenericClassES3_N6il2cpp8metadata22Il2CppGenericClassHashEN14dense_hash_setIS3_S6_NS3_14EqualsComparerINS5_25Il2CppGenericClassCompareEEENSt3__29allocatorIS3_EEE8IdentityESA_SD_E14squash_deletedEv
bOj:__ZN6il2cpp2vm11MethodStack17GetStackFramesRawEv
xva:__ZN6prcoreL17RemapGenericFloatI17TexFormatRGBAHalf17TexFormatRGBFloatEEvPKNS_9InnerInfoE
n8f:_BinaryFormatter_NoCheckDeserialize_m1968202401
mWd:_Graphic_CrossFadeAlpha_m4067047552
NAh:__Z92RuntimeInvoker_Void_t1841601450_RuntimeObject_RuntimeObject_Color32_t874517518_RuntimeObjectPFvvEPK10MethodInfoPvPS4_
svc:__Z35Sprite_Get_Custom_PropPixelsPerUnitP12Il2CppObject
Ylh:__Z116RuntimeInvoker_RuntimeObject_RuntimeObject_Int32_t2071877448_RuntimeObject_RuntimeObject_RuntimeObject_RuntimeObjectPFvvEPK10MethodInfoPvPS4_
cmj:__ZNSt3__26__sortIRN6il2cpp5utils11collections13ArrayValueMapIPK10Il2CppType17Il2CppInteropData26InteropDataToTypeConverterNS1_8metadata14Il2CppTypeLessENSA_26Il2CppTypeEqualityComparerEE12SortComparerEPS8_EEvT0_SH_T_
Blb:__ZN11PreloadDataD2Ev
_ud:__ZN15DownloadHandler14ProcessHeadersERK9HeaderMap
A_c:__ZNSt3__26vectorINS_4pairIifEE13stl_allocatorIS2_L18MemLabelIdentifier35ELi16EEE6assignINS_11__wrap_iterIPS2_EEEENS_9enable_ifIXaasr21__is_forward_iteratorIT_EE5valuesr16is_constructibleIS2_NS_15iterator_traitsISC_E9referenceEEE5valueEvE4typeESC_SC_
bc:invoke_iifi
HFi:_MonoBehaviour_StopCoroutineViaEnumerator_Auto_m2222980381
Sug:__ZL79Hashtable_t909839986_CustomAttributesCacheGenerator_Hashtable__ctor_m3742489710P21CustomAttributesCache
MNc:__ZNK16b2PrismaticJoint16GetReactionForceEf
KTh:_VertexHelper_AddUIVertexStream_m3599763288
t4h:_EqualityComparer_1_System_Collections_IEqualityComparer_Equals_m1565968086_gshared
KDe:_Array_InternalArray__set_Item_TisSlot_t2022531261_m3811041838_gshared
tUa:__ZN15SharedLightData15UpdateTransformERK9Transform
Syd:_RijndaelTransform__cctor_m1393306207
JVd:_Graphic_get_defaultMaterial_m1022773737
O6c:_UNITY_FT_Init_Class_pscmaps_interface
xRh:_Slider_OnDidApplyAnimationProperties_m3202463395
f9i:_TextGenerator_PopulateAlways_m817480435
Qyh:__Z146RuntimeInvoker_Void_t1841601450_Vector2_t2243707579_Vector2_t2243707579_Single_t2076509932_ContactFilter2D_t1672660996_RaycastHit2DU26_t4207306570PFvvEPK10MethodInfoPvPS4_
Tcg:_EncoderExceptionFallback__ctor_m3203614411
fXd:_GridLayoutGroup_SetLayoutVertical_m3233681648
_sc:__Z44Register_UnityEngine_RectOffset_get_verticalv
Mlg:_Type_MakeGenericType_m973683242
B_j:__ZN6il2cpp2vm9LastError31InitializeLastErrorThreadStaticEv
vfc:__ZN13ProduceHelperI13RenderTextureLb0EE7ProduceE18MemLabelIdentifier18ObjectCreationMode
t$e:_Int64_ToString_m2785525583
TT:__ZN4FMOD6System17setSoftwareFormatEi17FMOD_SOUND_FORMATii18FMOD_DSP_RESAMPLER
tah:_FieldBuilder_GetCustomAttributes_m291168515
zJa:__ZN15dense_hashtableINSt3__24pairIKN4core12basic_stringIcNS2_20StringStorageDefaultIcEEEEP20ArchiveStorageReaderEES6_20StringHash32FunctionIS6_EN14dense_hash_mapIS6_S9_SC_NS0_8equal_toIS6_EE13stl_allocatorISA_L18MemLabelIdentifier55ELi16EEE9SelectKeyESF_SI_E12expand_arrayEjN21dense_hash_map_traits17integral_constantIbLb0EEE
Dgd:__ZZN15TilemapRenderer15InitializeClassEvEN31FunctorImpl_160kDidAddComponent4CallEPviR11MessageData
Wfh:_MonoGenericCMethod__ctor_m2520666358
CBi:_InvokableCall_remove_Delegate_m3232269751
jh:_JS_SystemInfo_GetCurrentCanvasHeight
o9h:_InternalEnumerator_1_System_Collections_IEnumerator_get_Current_m1313308902_gshared
$4f:_ReturnMessage_get_OutArgs_m299904174
u_a:__ZNK8Material22GetTypeVirtualInternalEv
wBc:__Z34GUIStyle_Get_Custom_PropFixedWidthP12Il2CppObject
JQe:_RSAManaged_get_PublicOnly_m2603845138
zne:_Decimal_System_IConvertible_ToSByte_m3745141000_AdjustorThunk
qQj:__ZN6il2cpp2gc16GarbageCollector11GetWeakLinkEPPv
C8e:_MonoType_GetMethods_m353342170
rih:__Z108RuntimeInvoker_Boolean_t3825574718_SByte_t454417549_RuntimeObject_Int32_t2071877448_ExceptionU26_t1467204777PFvvEPK10MethodInfoPvPS4_
OOj:__GLOBAL__sub_I_Console_cpp
nva:__ZN6prcoreL17RemapGenericFloatI14TexFormatRHalf17TexFormatRGBAHalfEEvPKNS_9InnerInfoE
msj:__ZN6il2cpp2vm7Runtime11InvokeArrayEPK10MethodInfoPvP11Il2CppArrayPP15Il2CppException
GUe:_GregorianCalendar_get_Eras_m4010603022
Hqe:_Enum_System_IConvertible_ToUInt16_m1001858842
p0h:_Dictionary_2_make_pair_m394533803_gshared
Nad:_Dual_Project
oP:__ZN9AudioClip23VirtualRedirectTransferER14SafeBinaryRead
Pxi:_AsyncOperation_t3814632279_marshal_pinvoke_back
vya:__ZN4gles20EnsureTextureCreatedEP7ApiGLESP17RenderSurfaceGLES
$0d:_LayoutRebuilder_U3CRebuildU3Em__2_m3239837417
_Wb:__ZN15ReplacementPass13PrepareSubsetEjRK10RenderNodeifRK17ShaderReplaceData
RPc:__ZN15dense_hashtableINSt3__24pairIKiiEEi21InstanceIDHashFunctorN14dense_hash_mapIiiS4_NS0_8equal_toIiEE13stl_allocatorIS3_L18MemLabelIdentifier37ELi16EEE9SelectKeyES7_SA_E9copy_fromERKSD_j
JU:__Z32AudioMeasurement_GetTimeConstantff
fRj:__ZN6il2cpp8metadata11FieldLayout12LayoutFieldsEjjjRKNSt3__26vectorIPK10Il2CppTypeNS2_9allocatorIS6_EEEERNS1_15FieldLayoutDataE
UQg:__ZL54ContextMenu_t2283362202_CustomAttributesCacheGeneratorP21CustomAttributesCache
H2b:__ZL27PrepareSceneNodesJobCombineP25ScheduleSceneNodesJobData
O2e:_Stream_EndWrite_m263497992
A7d:_Char_Parse_m2121403806
uja:__ZN13GfxDeviceGLESD2Ev
ufa:__ZN18AsyncUploadManager13StaticDestroyEPv
E9g:_EnumBuilder_GetConstructorImpl_m331611313
Nmb:__ZN6Shader7SetNameEPKc
NSd:_DefaultControls_SetParentAndAlign_m3048898502
c6b:__ZN19CustomRenderTexture22HandleBoundaryWrappingERKNS_14UpdateZoneInfoEj
nfj:_Physics2D_Internal_RaycastNonAlloc_m2519397231
UOc:__ZN10ClipperLib7Clipper16DoSimplePolygonsEv
epj:__ZN6il2cpp2vm13MetadataCache32GenerateCustomAttributeTypeCacheEi
Sed:__ZN17TilemapCollider2D17RemoveFromManagerEv
p$f:_X509Chain__cctor_m826131835
Cwf:_Collection_1_InsertItem_m1073626529_gshared
SFi:_PlayerConnection_CreateInstance_m2419948763
fRi:_Transform_GetEnumerator_m1156558734
yF:__ZNK11UnityEngine9Animation30GenericBindingValueArrayUniqueclERKNS0_14GenericBindingES4_
k3d:_ArrayTypeMismatchException__ctor_m1923871345
fcg:_CspParameters__ctor_m3051314030
mGa:__ZNK15dense_hashtableINSt3__24pairIKNS1_I9UnityGUIDxEE15SpriteAtlasDataEES3_23SpriteRenderDataKeyHashN14dense_hash_mapIS3_S5_S7_NS0_8equal_toIS3_EE13stl_allocatorIS6_L18MemLabelIdentifier81ELi16EEE9SelectKeyESA_SD_E23find_position_with_hashERS4_j
MUi:_GUILayoutEntry_set_style_m864176480
MQi:_Transform_INTERNAL_set_localRotation_m1514748659
Sad:_Direct_Move_Y
Qad:_Direct_Move_X
y_f:_X509ChainElement_Set_m2634474339
n4d:_Boolean_System_IConvertible_ToByte_m1443044213_AdjustorThunk
Fi:_glClearDepthf
jfc:__ZN19SkinnedMeshRenderer7GetMeshEv
xtb:__ZN19RuntimeSceneManager14GetActiveSceneEv
DL:__ZN18StreamedBinaryReadILb0EE21TransferSTLStyleArrayI22OffsetPtrArrayTransferI9OffsetPtrIN7mecanim12statemachine13StateConstantEEEEEvRT_17TransferMetaFlags
Drj:__ZN6il2cpp6icalls8mscorlib6SystemL8IsStaticEPK9EventInfo
Jsc:__Z29RectOffset_Set_Custom_PropTopP12Il2CppObjecti
Gwc:__Z57Register_UnityEngine_Transform_INTERNAL_get_localPositionv
W0b:__ZNSt3__27__sort4IR15ReflProbeSorterPP15ReflectionProbeEEjT0_S6_S6_S6_T_
WTa:__ZN16GraphicsSettings10SmartResetEv
sod:__Z55Register_UnityEngine_Analytics_CustomEventData_AddInt16v
cLh:_MaskableGraphic_Cull_m3130802047
kRf:_RecordProtocol_MapV2CipherCode_m4064211604
Ewe:_Enumerable_Where_TisRuntimeObject_m1140705402_gshared
JId:_ASCIIEncoding_GetByteCount_m2696039881
ZQf:_ReceiveRecordAsyncResult_SetComplete_m2441107665
cXa:__ZN20SphericalHarmonicsL28TransferI19StreamedBinaryWriteILb0EEEEvRT_
ZQd:_CanvasUpdateRegistry_InternalUnRegisterCanvasElementForLayoutRebuild_m3740187734
uWc:__ZN16PhysicsManager2D45UnregisterTransformChangeInterestForRigidbodyEP11Rigidbody2D
_8g:_DerivedType_get_AssemblyQualifiedName_m2010127631
Jbb:__ZN4Mesh14UploadMeshDataEb
UCe:_Array_InternalArray__Insert_TisMonoResource_t3127387157_m2580914422_gshared
Odi:_InternalEnumerator_1_System_Collections_IEnumerator_get_Current_m4023948615_AdjustorThunk
G2e:_FileStream_BeginWrite_m3895959548
jUe:_ArgIterator_Equals_m2415994310
Rvh:__Z85RuntimeInvoker_Char_t3454481338_RuntimeObject_Int32U26_t455636984_CharU26_t1894467670PFvvEPK10MethodInfoPvPS4_
zfc:__ZN14RenderSettings12CleanupClassEv
Avc:__Z43DataUtility_CUSTOM_INTERNAL_CALL_GetPaddingP12Il2CppObjectR8Vector4f
fX:__ZN21AudioScriptingClasses26InvokeOnAudioManagerUpdateEP21ScriptingExceptionPtr
Asa:__ZN18AsyncUploadManager15DoDeCruncherJobEP26FileAssetUploadInstruction
sma:__ZN9GfxDevice15ImmediateNormalEfff
nyc:__ZN4Grid8TransferI19StreamedBinaryWriteILb0EEEEvRT_
vdg:_EncoderReplacementFallbackBuffer_GetNextChar_m1811006007
fEb:__ZN13GUIStyleState8TransferI24GenerateTypeTreeTransferEEvRT_
Kba:__ZN20dynamic_block_vectorI14FileIdentifierE22push_back_no_constructEv
Eck:_emscripten_glGetActiveAttrib__wrapper
P9a:__ZN9Texture3D23VirtualRedirectTransferER14SafeBinaryRead
Baj:_Predicate_1_Invoke_m3539717340_gshared
ZOi:_SetupCoroutine_InvokeMember_m170868586
P_c:__ZN20TextRenderingPrivate8FontImpl13CharacterInfo8TransferI24GenerateTypeTreeTransferEEvRT_
vob:__ZNSt3__26vectorIN9ShaderLab20SerializedSubProgram16TextureParameterENS_9allocatorIS3_EEE8__appendEj
z3a:__ZN9Texture2D13UploadTextureEi
aeg:_Type_GetType_m773255995
gFi:_Mesh_ClearImpl_m2894829935
xxa:__ZN7ApiGLES9MapBufferEjN2gl12BufferTargetEllj
C2i:_PCMSetPositionCallback_Invoke_m1437833149
hMh:_RawImage__ctor_m527845386
UT:__ZN4FMOD6System19setSoftwareChannelsEi
aEa:__ZN9GfxDevice19SetSinglePassStereoE16SinglePassStereo
aEe:_Array_InternalArray__set_Item_TisResourceCacheItem_t333236149_m2074358118_gshared
$Vh:_Enumerator_MoveNext_m3349738440_gshared
aZf:_X500DistinguishedName_DecodeRawData_m3640767187
Ehg:_Monitor_Monitor_wait_m3813798368
due:_Array_InternalArray__ICollection_Contains_TisDouble_t4078015681_m2262383923_gshared
U4d:_Boolean_System_IConvertible_ToUInt64_m3594533761
FTj:__GLOBAL__sub_I_Assembly_cpp_38619
pDh:__Z85RuntimeInvoker_Boolean_t3825574718_SpriteStateU26_t1330646292_SpriteState_t1353336012PFvvEPK10MethodInfoPvPS4_
Mtc:__Z60Register_UnityEngine_Input_INTERNAL_set_compositionCursorPosv
mXg:__ZL51Collider_t3497673348_CustomAttributesCacheGeneratorP21CustomAttributesCache
YLe:_BigInteger_get_Rng_m1268152318
A6j:dynCall_viiiii
xEa:__ZN9Behaviour10DeactivateE19DeactivateOperation
G6j:dynCall_viiiif
wfh:_MonoEvent_IsDefined_m3151861274
nRc:__ZN16PhysicsManager2D19ApplyParticleForcesER13dynamic_arrayI21BatchedColliderResultLj4EE
Zch:_PropertyBuilder_GetCustomAttributes_m1029078269
Z5c:_Cubic_To
eNf:_TlsStream_WriteInt24_m1660453494
drc:__Z44Register_UnityEngine_Camera_get_farClipPlanev
Rq:__Z25InverseTransformDirection23TransformAccessReadOnlyRKN4math7_float3Eb
aY:__ZNK12AudioManager15GetDSPBlockSizeEv
Ugb:__ZNK17IAnimationBinding30CurveAttributeToSerializedPathERKN11UnityEngine9Animation10BoundCurveE
Pxh:__Z87RuntimeInvoker_Color_t2020392075_Color_t2020392075_Color_t2020392075_Single_t2076509932PFvvEPK10MethodInfoPvPS4_
TMj:__ZN6il2cpp2gc16GarbageCollector14GetOrCreateCCWEP12Il2CppObjectRK10Il2CppGuid
XKj:__ZN6il2cpp2vm5Image21FromTypeNameParseInfoEPK11Il2CppImageRKNS0_17TypeNameParseInfoEb
cqa:__ZN17BufferManagerGLES13AcquireBufferEjN14DataBufferGLES11BufferUsageEb
Bee:_Console_OpenStandardError_m3676373108
G6e:_UnmanagedMemoryStream_SetLength_m1805321486
iOf:_Context_get_ProtocolNegotiated_m624488778
e3d:_SimpleEnumerator_MoveNext_m1696906961
Fsd:__ZN16UnityAdsSettingsD0Ev
XOf:_Context_StartSwitchingSecurityParameters_m373522596
gra:__ZNK7ApiGLES10DebugLabelEN2gl10ObjectTypeEjPKc
jze:_Array_InternalArray__IndexOf_TisInt16_t4041245914_m1619355230_gshared
cye:__ZN21InterfaceFuncInvoker2Ii18Color32_t874517518S0_E6InvokeEjP11Il2CppClassP12Il2CppObjectS0_S0_
F4j:__ZNK10__cxxabiv121__vmi_class_type_info16search_below_dstEPNS_19__dynamic_cast_infoEPKvib
A_e:_Int64_System_IConvertible_ToDateTime_m1002280174
xqa:__ZN19ConstantBuffersGLES13SetCBConstantEiiPKvi
vfe:_Convert_ToByte_m9159597
gJi:_X509Store_BuildCertificatesCollection_m4224672591
Bvc:__Z38DataUtility_CUSTOM_Internal_GetMinSizeP12Il2CppObjectP13Vector2fIcall
mjc:__ZN8PlayableC2E17ScriptingClassPtr18DirectorPlayerType
dli:_ResourceEnumerator_get_Key_m1012797265
AYe:_NumberFormatter_FormatPercent_m776769918
etj:_il2cpp_class_has_attribute
Uig:_Scheduler_ShrinkIfNeeded_m2186823111
ZKf:_Alert_get_IsCloseNotify_m577852330
daa:__Z27FindOrCreateMonoScriptCache17ScriptingClassPtr22InitScriptingCacheTypeP6Objecti
Nt:__ZNK13AnimationClip17GetAnimationClipsEv
eYc:__Z23CleanupPhysicsManager2Dv
XJb:__Z18Transfer_BlittableI18StreamedBinaryReadILb0EELb1E8Vector3fEvRK29SerializationCommandArgumentsR31RuntimeSerializationCommandInfo
Ljd:__ZN2UI14CanvasRenderer13SyncVertexPtrER8JobFenceNS0_8SyncFlagE
vaa:__Z35scripting_method_get_argument_count18ScriptingMethodPtr
jIa:__ZN18AssetBundleManager18SortPreloadObjectsER13dynamic_arrayIiLj4EEb
fmg:_UInt16_System_IConvertible_ToChar_m4055364664_AdjustorThunk
oSi:_Vector3_SqrMagnitude_m3835019255
osc:__Z20Gradient_CUSTOM_InitP12Il2CppObject
YBc:__Z48Register_UnityEngine_GUIUtility_Internal_ExitGUIv
UCj:__ZN14dense_hash_mapI10KeyWrapperINSt3__24pairIPK9FieldInfoP11Il2CppClassEEEj17ReflectionMapHashIS8_ENS9_14EqualsComparerINS1_8equal_toIS8_EEEENS1_9allocatorINS2_IKS9_jEEEEE15set_deleted_keyERSH_
wIi:_X509Certificate_get_RawData_m1262574599
D5d:_Byte_System_IConvertible_ToDouble_m4224320007
L2b:__ZL21CullDynamicObjectsJobP14CullingJobDataj
Ohd:__ZN2UI15ClearCanvasDataER8JobFenceRNS_10CanvasDataE
SWf:_IPAddress_ToString_m1462985652
oeh:_MethodBase_GetMethodFromHandleNoGenericCheck_m4274264088
nZh:_ValueCollection_System_Collections_Generic_ICollectionU3CTValueU3E_Clear_m3471385195_gshared
FVh:_Enumerator_get_CurrentKey_m1408186928_AdjustorThunk
N6b:__ZN14ManagerContext17InitializeClassesEv
yLh:_MaskUtilities_GetRectMasksForClip_m1540508301
ws:__ZN15AnimationBinder19RemoveUnboundCurvesER14dense_hash_mapI7CurveIDj10hash_curveNSt3__28equal_toIS1_EE13stl_allocatorINS3_4pairIKS1_jEEL18MemLabelIdentifier1ELi16EEER13dynamic_arrayI20BoundCurveDeprecatedLj4EE
MHa:__ZN19StreamedBinaryWriteILb0EE21TransferSTLStyleArrayINSt3__26vectorI14ConstantStringNS2_9allocatorIS4_EEEEEEvRT_17TransferMetaFlags
Zz:__ZN7mecanim5human20MaskHasRightFootGoalERKNS_6bitsetILj70EEE
mIb:__ZN18StreamedBinaryReadILb1EE21TransferSTLStyleArrayI31ArrayOfManagedObjectsTransfererEEvRT_17TransferMetaFlags
_ef:_List_1_System_Collections_IList_IndexOf_m406088260_gshared
Lpg:_WeakReference_get_Target_m1672141897
DMe:_Kernel_DwordDivMod_m4066997639
A6c:_t1_hints_open
spd:__ZN11UnityEngine15PlatformWrapper24GetVRTrackedAreaGeometryER13dynamic_arrayI8Vector3fLj4EE
Kth:__Z68RuntimeInvoker_Boolean_t3825574718_DateTime_t693205669_RuntimeObjectPFvvEPK10MethodInfoPvPS4_
wCd:_X509Certificate_GetCertHash_m2299453268
Xxd:_MD5CryptoServiceProvider__ctor_m457716966
Wte:_Array_InternalArray__ICollection_Contains_TisKeyValuePair_2_t888819835_m3819112676_gshared
Ohe:_Decimal_s64_m2965457432
_lc:__Z18TransformPoints3x4RK10Matrix4x4fPK8Vector3fjPS2_ji
nvd:__ZN22UnityWebRequestManager21CreateUnityWebRequestEv
OS:__ZN4FMOD7Channel11getUserDataEPPv
lNi:_RectTransform_INTERNAL_set_anchorMax_m4173108796
D3c:_UNITY_tt_face_load_gasp
HBh:__Z150RuntimeInvoker_RuntimeObject_RuntimeObject_Int32_t2071877448_Int32_t2071877448_Int32_t2071877448_Int32_t2071877448_Int32_t2071877448_Int32_t2071877448PFvvEPK10MethodInfoPvPS4_
$0c:_ft_ansi_stream_close
jm:_JS_Sound_SetPitch
X0g:__ZL69InputField_t1631627530_CustomAttributesCacheGenerator_m_TextComponentP21CustomAttributesCache
Utj:_il2cpp_runtime_invoke_convert_args
jIc:__Z19TransferField_ArrayI8JSONRead27Converter_SimpleNativeClassI10RectOffsetEEvRK23StaticTransferFieldInfoR31RuntimeSerializationCommandInfoRT0_
jUh:_Enumerator_get_CurrentKey_m447338908_AdjustorThunk
fNf:_Context_get_SecurityProtocol_m1600902905
VGj:__ZN6il2cpp6icalls8mscorlib6System2IO6MonoIO11GetFileStatEP12Il2CppStringPNS3_8FileStatEPi
bna:__ZN9GfxDevice33InsertCustomMarkerCallbackAndDataEPFviPvEiS0_j
itd:__ZN11UnityEngine15PlatformWrapper16GenerateRandomIdEv
aXb:__ZNK9ShaderLab9IntShader6GetTagE11ShaderTagIDb
g0b:__Z25CalculateShadowCasterCullbPK5PlaneRK10Matrix4x4fRK8Vector3fff9LightTypeS7_R16ShadowCasterCullPKb
mXc:__Z13RegisterClassI13BoxCollider2DEvv
Asj:_il2cpp_get_corlib
ixd:_HMAC_HashCore_m1869699062
O5g:_Assembly_GetTypes_m1317253146
DXe:_Int16_System_IConvertible_ToType_m2901377575_AdjustorThunk
N_e:_Int64_System_IConvertible_ToSByte_m253213816_AdjustorThunk
Bkd:__ZN2UI14CanvasRenderer11SetMaterialEP8Materiali
xNd:_MouseState_SetButtonState_m2329922363
C1e:_FileStream__ctor_m3815606687
aVj:_GC_freehblk
gYe:_NumberFormatter_NumberToString_m668979517
tFf:_ReadOnlyCollection_1_System_Collections_IList_Remove_m2507730234_gshared
oSb:__Z36GiveDebuggerChanceToAttachIfRequiredv
SYh:_Enumerator_System_Collections_IEnumerator_Reset_m2482663638_gshared
npc:__ZN9Scripting35DestroyObjectFromScriptingImmediateEP6Objectb
A3b:__ZNK6Camera48AreVRStereoViewMatricesWithinSingleCullToleranceEv
UTg:__ZL53Rigidbody2D_t502193897_CustomAttributesCacheGeneratorP21CustomAttributesCache
a6f:_RemotingServices_GetRemoteObject_m3663391550
jdk:_glGetRenderbufferParameteriv__wrapper
Xpf:_Queue_1_Peek_m1224538505_gshared
Toh:__Z105RuntimeInvoker_RuntimeObject_Int32_t2071877448_RuntimeObject_RuntimeObject_RuntimeObject_SByte_t454417549PFvvEPK10MethodInfoPvPS4_
nze:_Array_InternalArray__IndexOf_TisRuntimeObject_m2440219229_gshared
e6i:__ZL25UnresolvedVirtualCall_122P12Il2CppObject23PropertyName_t217228410fPK10MethodInfo
wc:invoke_iiiiiiiiiiiiiii
dRj:__ZN6il2cpp2os6Thread33UnregisterCurrentThreadForCleanupEv
Mfk:_emscripten_glIsRenderbuffer__wrapper
Gkd:__ZN2UI14CanvasRenderer11GetHasMovedEv
Wjj:__ZN15dense_hashtableINSt3__24pairIK10KeyWrapperIPK11Il2CppClassEPKcEES6_N6il2cpp5utils11PointerHashIS3_EEN14dense_hash_mapIS6_S9_SE_NS6_14EqualsComparerINS0_8equal_toIS5_EEEENS0_9allocatorISA_EEE9SelectKeyESJ_SL_E9copy_fromERKSO_j
cid:__ZN2UI11CanvasGroup8TransferI19StreamedBinaryWriteILb0EEEEvRT_
ZIb:__Z29Transfer_Blittable_ArrayFieldI18StreamedBinaryReadILb1EE5RectTIiEEvRT_R9ArrayInfoRK23StaticTransferFieldInfo
Xfj:_CustomEventData_AddSByte_m3234416135
DVa:__ZNK20IntermediateRenderer8GetLayerEv
egj:_CustomEventData_Add_m3051097773
dsj:__ZN6il2cpp5utils9PathUtils7CombineIcEENSt3__212basic_stringIT_NS3_11char_traitsIS5_EENS3_9allocatorIS5_EEEERKSA_RKNS0_10StringViewIS5_EE
v6a:__ZN15QualitySettings8TransferI14SafeBinaryReadEEvRT_
Ojj:__ZN14dense_hash_mapI10KeyWrapperIPK11Il2CppClassEPKcN6il2cpp5utils11PointerHashIS1_EENS4_14EqualsComparerINSt3__28equal_toIS3_EEEENSC_9allocatorINSC_4pairIKS4_S6_EEEEE13set_empty_keyERSI_
NOi:_SendMouseEvents_SendEvents_m1854997939
jAb:__ZN14SafeBinaryRead21TransferSTLStyleArrayI13dynamic_arrayIxLj8EEEEvRT_17TransferMetaFlags
r5e:_StringReader_CheckObjectDisposedException_m3099453260
zUf:_ListDictionary_System_Collections_IEnumerable_GetEnumerator_m2244736244
gLj:__ZNSt3__26vectorIN6il2cpp2vm5Image20EmbeddedResourceDataENS_9allocatorIS4_EEE21__push_back_slow_pathIS4_EEvOT_
W4:__GLOBAL__sub_I_runtime_utilities_0_cpp
g_j:__ZN6il2cpp2os9FastMutexD2Ev
pBh:__Z97RuntimeInvoker_Void_t1841601450_SByte_t454417549_SByte_t454417549_Int32_t2071877448_RuntimeObjectPFvvEPK10MethodInfoPvPS4_
Jye:_Array_IndexOf_TisCustomAttributeTypedArgument_t1498197914_m3666284377_gshared
dNe:_Kernel_AddSameSign_m2332657679
qAi:_Cursor_get_lockState_m300851107
o9:__ZN14SerializedFile10ReadObjectEx18ObjectCreationModebPPK8TypeTreePbR6Object
jrf:_Collection_1_System_Collections_IList_IndexOf_m3460849589_gshared
Xlc:__ZN4Mesh12SetIndexDataEiiPKv16GfxPrimitiveTypei
uRb:__ZN14dynamic_bitset6resizeEjb
gKd:_BaseInputModule_FindCommonRoot_m2696088443
f0:__ZN11UnityEngine15CloudWebService10RestClientINS0_23WebRequestRestHeaderMapEE7SetDataEPKhj
_G:__ZN7mecanim8skeleton16SkeletonPoseCopyIN4math4trsXES3_EEvPKNS0_13SkeletonPoseTIT_EEPNS4_IT0_EE
Pjj:__ZN14dense_hash_mapI10KeyWrapperIPK11Il2CppClassEPKcN6il2cpp5utils11PointerHashIS1_EENS4_14EqualsComparerINSt3__28equal_toIS3_EEEENSC_9allocatorINSC_4pairIKS4_S6_EEEEE15set_deleted_keyERSI_
Pja:__ZN9GfxDevice34SetStencilRefWhenStencilWasSkippedEi
Bqd:__ZN11UnityEngine7Connect13ConnectConfig20RestoreTimeoutConfigERK13dynamic_arrayIiLj4EEjRS3_
vc:invoke_fi
cZj:__ZN6il2cpp6icalls8mscorlib6System10Reflection4Emit11TypeBuilder20create_runtime_classEP27Il2CppReflectionTypeBuilderS7_
f4:__ZL21InternalAssertConsolePKcz
zfa:__ZN18AsyncUploadManagerC2E18MemLabelIdentifier
tc:invoke_ff
Ed:_emscripten_glVertexAttrib3f
nzj:__ZN30dense_hashtable_const_iteratorINSt3__24pairIK10KeyWrapperINS1_IPK11Il2CppImageP11Il2CppClassEEEjEES9_17ReflectionMapHashIS8_EN14dense_hash_mapIS9_jSD_NS9_14EqualsComparerINS0_8equal_toIS8_EEEENS0_9allocatorISB_EEE9SelectKeyESI_SK_EppEv
tMi:_Rect_set_yMax_m1836907767_AdjustorThunk
h7d:_Char_CompareTo_m3044885427
Kjf:_List_1_System_Collections_IList_IndexOf_m2887559165_gshared
zZh:_ValueCollection__ctor_m1825701219_gshared
i$c:__ZN20TextRenderingPrivate8TextMesh11ApplyToMeshEv
BTf:_SslStreamBase_get_CanRead_m3061866682
HMh:_GetRaycastNonAllocCallback_Invoke_m106496059
a9j:_emscripten_glDrawRangeElements__wrapper
Sbj:_CanvasRenderer_set_popMaterialCount_m3475132987
SSa:__Z28scripting_class_is_valuetype17ScriptingClassPtr
c9b:__ZNSt3__25dequeI10InputEventNS_9allocatorIS1_EEE19__add_back_capacityEv
Ccf:_Enumerator_System_Collections_IEnumerator_Reset_m336811426_AdjustorThunk
Yza:__ZN13ComputeShader13SetValueParamERKN9ShaderLab16FastPropertyNameEiPKv
Obb:__ZN14BlendShapeDataD2Ev
$oj:__ZN6il2cpp2vm13MetadataCache25GetIndexForTypeDefinitionEPK11Il2CppClass
Awa:__ZL18ProgramUniform3uivPK7ApiGLESjiihPKv
C3d:_Attribute_IsDefined_m1350918959
ild:__Z47CanvasRenderer_Set_Custom_PropHasPopInstructionP12Il2CppObjecth
Ogh:_MonoProperty_get_DeclaringType_m4236036432
iwa:__ZN5Image8SetImageEii13TextureFormatb
Naa:__ZN17MessageIdentifier21GetRegisteredMessagesEv
J6h:_U3CGetEnumeratorU3Ec__Iterator0_System_Collections_IEnumerator_get_Current_m480171694_gshared
tCf:_ReadOnlyCollection_1_System_Collections_Generic_ICollectionU3CTU3E_Remove_m1342418180_gshared
F2:__Z13RegisterClassI23CloudWebServicesManagerEvv
ZJj:__GLOBAL__sub_I_Image_cpp
Z6e:_Math_Sin_m2320256962
EEf:_ReadOnlyCollection_1_System_Collections_Generic_IListU3CTU3E_Insert_m2409570138_gshared
Xif:_List_1_Add_m2123823603_gshared
T$a:__ZNSt3__27__sort5IRPFbRKNS_4pairIN9ShaderLab16FastPropertyNameEfEES6_EPS4_EEjT0_SB_SB_SB_SB_T_
HPd:_CanvasUpdateRegistry__ctor_m4037208045
HTi:_Event_Finalize_m270300156
pRj:__ZN14dense_hash_mapI10KeyWrapperIPK19Il2CppGenericMethodEP10MethodInfoN6il2cpp8metadata23Il2CppGenericMethodHashENS4_14EqualsComparerINS8_26Il2CppGenericMethodCompareEEENSt3__29allocatorINSD_4pairIKS4_S6_EEEEE15set_deleted_keyERSG_
vAb:__Z29Transfer_Blittable_ArrayFieldI14SafeBinaryRead4AABBEvRT_R9ArrayInfoRK23StaticTransferFieldInfo
cCf:_ReadOnlyCollection_1_System_Collections_IList_RemoveAt_m2396335261_gshared
cXh:_Transform_1_Invoke_m2675095773_gshared
ATd:_Dropdown_set_captionImage_m1952025570
bZg:__ZL56g_UnityEngine_UI_Assembly_CustomAttributesCacheGeneratorP21CustomAttributesCache
EQe:_RSAManaged_remove_KeyGenerated_m452989252
Zsc:__Z46Register_UnityEngine_RectOffset_get_horizontalv
e1a:__ZN18DelayedCallManager8ClearAllEv
g7b:__ZN17PersistentManagerC2E18MemLabelIdentifierii
buc:__Z22Mesh_CUSTOM_HasChannelP12Il2CppObject30InternalScriptingShaderChannel
qGj:__ZN6il2cpp2os8AutoLockD2Ev
A1b:__ZNK25RenderPrePassObjectSorterclERK16RenderObjectDataS2_
xIb:__Z22TransferField_NonArrayI18StreamedBinaryReadILb1EE27Converter_SimpleNativeClassI8GUIStyleEEvRK23StaticTransferFieldInfoR31RuntimeSerializationCommandInfoRT0_
re:_Mix_LoadWAV_RW
kVi:_GUIStyle_set_stretchWidth_m281327581
VA:__ZN7mecanim6memory16MecanimAllocator8AllocateEjj
Hya:__Z13IsFloatFormat14GraphicsFormat
at:__ZNSt3__27__sort4IRNS_6__lessIN11UnityEngine9Animation13CachedBindingES4_EEPS4_EEjT0_S8_S8_S8_T_
ugj:_CustomEventData_Add_m950533532
Xck:_emscripten_glGetAttribLocation__wrapper
JQd:_CanvasScaler_HandleConstantPhysicalSize_m687057631
Ptj:_il2cpp_object_get_virtual_method
P1b:__Z13InitIndexListR9IndexListj
ySe:_PKCS12_Encrypt_m1401341763
Nba:__ZL16ReadTypeTreeImplILb1EEbR8TypeTreeRK16TypeTreeIteratorRPKhS6_i
Je:_glBlendEquationSeparate
VAd:_SHA384_Create_m1970724783
tm:_emscripten_glDeleteVertexArrays
vna:__ZN13GfxDeviceGLES17SetComputeUniformE12ObjectHandleI18ComputeProgram_TagPvER18ComputeShaderParamjPKv
mek:b95
Ew:__ZN13AnimationClip10FloatCurve8TransferI18StreamedBinaryReadILb0EEEEvRT_
_ek:_emscripten_glValidateProgram__wrapper
emc:__ZN13MeshScripting27PrintErrorCantAccessChannelEPK4Mesh30InternalScriptingShaderChannel
CPe:_SmallXmlParser_ReadComment_m1117342068
Qe:_emscripten_glUniform3fv
j_a:__ZN9ShaderLab7Program14RemoveVariantsERK13dynamic_arrayI16ShaderKeywordSetLj4EE
CHj:__ZN6il2cpp2vm9Exception20GetArgumentExceptionEPKcS3_
Eue:_Array_InternalArray__ICollection_Contains_TisContactPoint2D_t3659330976_m474619266_gshared
wJc:__Z29Transfer_Blittable_ArrayFieldI8JSONReadiEvRT_R9ArrayInfoRK23StaticTransferFieldInfo
idk:_glDrawArrays__wrapper
NX:__ZN9AudioClip27IsFormatSupportedByPlatformERKN4core12basic_stringIcNS0_20StringStorageDefaultIcEEEE
U1a:__ZN29SerializeTraitsForStringTypesIN4core12basic_stringIcNS0_20StringStorageDefaultIcEEEEE8TransferI24GenerateTypeTreeTransferEEvRS4_RT_
Cpb:__ZN9ShaderLab26SerializedShaderDependency8TransferI24GenerateTypeTreeTransferEEvRT_
dkh:__Z92RuntimeInvoker_RuntimeObject_RuntimeObject_Int32_t2071877448_Int32_t2071877448_RuntimeObjectPFvvEPK10MethodInfoPvPS4_
X3c:_UNITY_FT_Match_Size
yRd:_ColorBlock_Equals_m738243050
rB:__ZN7mecanim20CreateValueArrayMaskEPKNS_18ValueArrayConstantERNS_6memory9AllocatorE
e3j:_free
cVf:_NameObjectCollectionBase_GetEnumerator_m646294968
syi:_Bounds_set_size_m4260584766_AdjustorThunk
tpd:__ZN11UnityEngine7Connect14AppUpdateEventC2Ev
BSa:__ZN12ImageFilters17RemoveImageFilterERK11ImageFilter
D3i:_AudioSettings_InvokeOnAudioConfigurationChanged_m4035594278
cna:__ZN9GfxDevice31InsertCustomBlitCallbackAndDataEPFviPvER33UnityRenderingExtCustomBlitParams
rSb:__Z32AddPathRemapsForBuiltinResourcesRKN4core12basic_stringIcNS_20StringStorageDefaultIcEEEE
VOi:_HitInfo_SendMessage_m3395411273_AdjustorThunk
xOe:_DSAManaged_remove_KeyGenerated_m61544860
PBb:__ZL26Transfer_SimpleNativeClassI17RemapPPtrTransfer17AnimationCurveTplIfELb0EEvRK29SerializationCommandArgumentsR31RuntimeSerializationCommandInfo
VGi:_KeyUsageExtension_Decode_m4115739726
vm:_glDeleteTransformFeedbacks
vf:_JS_WebRequest_Send
gUj:__ZN6il2cpp2os4Time31GetTicks100NanosecondsMonotonicEv
HPj:__ZNSt3__26__treeINS_12basic_stringIcNS_11char_traitsIcEENS_9allocatorIcEEEENS_4lessIS6_EENS4_IS6_EEE16__construct_nodeIJRKS6_EEENS_10unique_ptrINS_11__tree_nodeIS6_PvEENS_22__tree_node_destructorINS4_ISH_EEEEEEDpOT_
nee:_Stack_Clear_m771767447
S_e:_Int64_System_IConvertible_ToUInt16_m2638682734
Tzg:__ZL102ChannelServices_t2007814595_CustomAttributesCacheGenerator_ChannelServices_RegisterChannel_m3832858065P21CustomAttributesCache
mrd:__ZN18UnityConnectClient32OnVrControllerStateChangedStaticEPS_13dynamic_arrayIN4core12basic_stringIcNS2_20StringStorageDefaultIcEEEELj4EE
g4j:__ZNK10__cxxabiv117__class_type_info24process_found_base_classEPNS_19__dynamic_cast_infoEPvi
Z9i:_Nullable_1_Equals_m1889119397_AdjustorThunk
Gbj:_CanvasRenderer_INTERNAL_CALL_SetColor_m1064368306
gpj:__ZN6il2cpp2vm13MetadataCache21GetFieldInfoFromIndexEj
UMh:_Raycast2DCallback_BeginInvoke_m4219004388
kfb:__ZNSt3__26__treeINS_12__value_typeIjbEENS_19__map_value_compareIjS2_NS_4lessIjEELb1EEE13stl_allocatorIS2_L18MemLabelIdentifier79ELi16EEE7destroyEPNS_11__tree_nodeIS2_PvEE
_Rj:__GLOBAL__sub_I_String_cpp
QZ:__ZN5physx14PxLightCpuTaskD2Ev
wq:__ZNSt3__26vectorIN4core12basic_stringIcNS1_20StringStorageDefaultIcEEEENS_9allocatorIS5_EEE6assignINS_11__wrap_iterIPS5_EEEENS_9enable_ifIXaasr21__is_forward_iteratorIT_EE5valuesr16is_constructibleIS5_NS_15iterator_traitsISE_E9referenceEEE5valueEvE4typeESE_SE_
vsj:_il2cpp_init
shd:__ZNSt3__26__treeIPN2UI14CanvasRendererENS_4lessIS3_EENS_9allocatorIS3_EEE7destroyEPNS_11__tree_nodeIS3_PvEE
UQc:__Z20b2TestSegmentSegmentRK6b2Vec2S1_S1_S1_RS_Rf
Lmh:__Z176RuntimeInvoker_Boolean_t3825574718_RuntimeObject_Int32U26_t455636984_Int32_t2071877448_Int32_t2071877448_Int32_t2071877448_RuntimeObject_SByte_t454417549_ContextU26_t3131521781PFvvEPK10MethodInfoPvPS4_
Qla:__ZN13GfxDeviceGLES22UploadTextureSubData2DE9TextureIDPKhiiiiii14GraphicsFormat
XVc:__ZN10ClipperLib13CleanPolygonsERNSt3__26vectorINS1_INS_8IntPointENS0_9allocatorIS2_EEEENS3_IS5_EEEEd
Bsc:__Z35Register_UnityEngine_Screen_get_dpiv
wBj:__ZNK15dense_hashtableINSt3__24pairIK10KeyWrapperIPK14Il2CppAssemblyEPK22Il2CppMonoAssemblyNameEES6_N6il2cpp5utils11PointerHashIS4_EEN14dense_hash_mapIS6_SA_SF_NS6_14EqualsComparerINS0_8equal_toIS5_EEEENS0_9allocatorISB_EEE9SelectKeyESK_SM_E5beginEv
OHc:__ZN8JSONRead8TransferIxEEvRT_PKc17TransferMetaFlagsb
d_c:__ZN13SpeedTreeWind7AdvanceEbd
k_e:_Int32_TryParse_m2941352213
Mpa:__ZN18GlslGpuProgramGLES19ApplyGpuProgramGLESERK20GpuProgramParametersPKh
doc:__ZN9Transform16SetLocalPositionERK8Vector3f
DXd:_LayoutGroup_GetTotalMinSize_m2600700952
z9b:__ZN10BootConfig4Data12InitFromFileEPPKcjS2_
UJb:__Z15Transfer_StringI18StreamedBinaryReadILb0EELb0EEvRK29SerializationCommandArgumentsR31RuntimeSerializationCommandInfo
AT:__ZN12SoundManagerC2Ev
B3c:_UNITY_tt_face_free_name
ckc:__ZN17TransformInternal24AddTransformSubhierarchyER18TransformHierarchyjS1_RjS2_yb
_Fe:_Array_Sort_TisUICharInfo_t3056636800_m37864585_gshared
Via:__ZN15dense_hashtableINSt3__24pairIKN4core12basic_stringIcNS2_20StringStorageDefaultIcEEEE10vector_setI4PPtrI11SpriteAtlasENS0_4lessISB_EE13stl_allocatorISB_L18MemLabelIdentifier81ELi16EEEEES6_20StringHash32FunctionIS6_EN14dense_hash_mapIS6_SH_SK_NS0_8equal_toIS6_EESE_ISI_LSF_81ELi16EEE9SelectKeyESN_SO_E4swapERSR_
Rdk:_emscripten_glGetUniformfv__wrapper
uxa:__ZN14DataBufferGLES3MapEjjj
ufi:_InternalEnumerator_1_System_Collections_IEnumerator_get_Current_m771161214_gshared
No:FUNCTION_TABLE_fidi
Kcb:__ZN14SpriteRenderer23VirtualRedirectTransferER19StreamedBinaryWriteILb0EE
dek:_emscripten_glGetShaderiv__wrapper
gdc:__Z13RegisterClassI9TransformEvv
F$a:__ZN18UnityPropertySheet11UnityTexEnv8TransferI19StreamedBinaryWriteILb0EEEEvRT_
QPa:__ZNK6Camera33CalculateFarPlaneWorldSpaceLengthEv
jli:_ResourceInfo_t3933049236_marshal_pinvoke_back
wzi:_Color_Lerp_m527444458
lzj:__ZNK15dense_hashtableINSt3__24pairIK10KeyWrapperINS1_IPK11Il2CppImageP11Il2CppClassEEEjEES9_17ReflectionMapHashIS8_EN14dense_hash_mapIS9_jSD_NS9_14EqualsComparerINS0_8equal_toIS8_EEEENS0_9allocatorISB_EEE9SelectKeyESI_SK_E5beginEv
Fsj:_il2cpp_array_new
nAe:_Array_InternalArray__ICollection_Add_TisDictionaryEntry_t3048875398_m279246399_gshared
Ani:_ChannelServices_GetCurrentChannelInfo_m4080942430
RR:__ZN4FMOD3DSP8getInputEiPPS0_PPNS_13DSPConnectionE
Saf:_KeyValuePair_2_ToString_m2882821022_AdjustorThunk
uW:__ZN11SoundHandle8Instance13CreateChannelERS_b
Wbb:__ZN10MeshFilter23VirtualRedirectTransferER17RemapPPtrTransfer
c2c:_ft_outline_glyph_bbox
IQi:_Transform_INTERNAL_set_rotation_m366775404
LQ:__ZN13AudioListenerD2Ev
Tbd:_UNITY_FT_Done_Library
Nyc:__ZN4Grid14SetCellSwizzleEN10GridLayout7SwizzleE
LTh:_VertexHelper__cctor_m1150948588
$jd:__ZN2UI13CanvasManager17EmitDataForCameraEP6Camera
JTc:__Z16b2CollideCirclesP10b2ManifoldPK13b2CircleShapeRK11b2TransformS3_S6_
kXh:_Transform_1_Invoke_m1111426439_gshared
_Ae:_Array_InternalArray__ICollection_Add_TisContactPoint2D_t3659330976_m1781705858_gshared
hvc:__Z44Register_UnityEngine_Material_GetTextureImplv
zdk:_glUniform3uiv__wrapper
tPb:__ZL8MainLoopv
hL:__ZN15SerializeTraitsI9OffsetPtrIN7mecanim12statemachine26SelectorTransitionConstantEEE8TransferI24GenerateTypeTreeTransferEEvRS4_RT_
E6g:_Binder_ConvertArgs_m2999223281
jah:_TypeBuilder_IsDefined_m3186251655
Gld:__Z47Register_UnityEngine_CanvasRenderer_SetMaterialv
koi:_ConfigHandler_ValidatePath_m3188987489
bKc:__ZN11UnityEngine9Analytics16StartupTimeEvent23SetAssembliesTimingInfoEyy
iza:__ZN15dense_hashtableINSt3__24pairIKPK17RenderSurfaceBaseP13RenderTextureEES4_19PointerHashFunctionIS4_EN14dense_hash_mapIS4_S7_SA_NS0_8equal_toIS4_EE13stl_allocatorIS8_L18MemLabelIdentifier67ELi16EEE9SelectKeyESD_SG_E12resize_deltaEjj
GLc:__ZN19CompositeCollider2D22QueryCompositeColliderEPK10Collider2DPK11Rigidbody2D
Cnd:__ZN11UnityEngine9Analytics23CustomLimitReachedEvent12ToJsonStringER9JSONWrite
J9e:_NumberFormatter_get_IntegerDigits_m3972411141
rcb:__ZThn32_N12MeshRendererD1Ev
TYa:__ZN13RenderTexture23VirtualRedirectTransferER19StreamedBinaryWriteILb0EE
EWh:_ShimEnumerator_MoveNext_m2728191736_gshared
fog:_UInt64_System_IConvertible_ToInt32_m930227577_AdjustorThunk
USj:__ZN6il2cpp2vm13ComObjectBase17GetMarshalSizeMaxERK10Il2CppGuidPvjS5_jPj
Egc:__ZN9TransformC2E18MemLabelIdentifier18ObjectCreationMode
c3j:_truncate
oqb:__ZN9ShaderLab27SerializedShaderVectorValue8TransferI18StreamedBinaryReadILb0EEEEvRT_
Y4a:__ZN8Renderer21RendererBecameVisibleEv
xDf:_ReadOnlyCollection_1_System_Collections_Generic_ICollectionU3CTU3E_Clear_m2503787861_gshared
x2j:___stpncpy
ptf:_Collection_1_System_Collections_IList_Add_m669232520_gshared
imf:_List_1_RemoveAt_m1843849279_gshared
P6:__ZN10MemoryPool16StaticInitializeEPv
sha:__ZN11TypeManager21CleanupGlobalInstanceEv
vUi:_LayoutCache__ctor_m3175562018
Xlg:_TypedReference_GetHashCode_m3498861551_AdjustorThunk
$md:__ZN11UnityEngine9Analytics15UserCustomEvent3AddEPKcRKN4core12basic_stringIcNS4_20StringStorageDefaultIcEEEE
N:Math_atan
Zvj:__ZNSt3__212basic_stringIcNS_11char_traitsIcEENS_9allocatorIcEEE6__initIPKcEENS_9enable_ifIXsr21__is_forward_iteratorIT_EE5valueEvE4typeESA_SA_
uQ:__ZNK10SampleClip11GetResourceEv
gLa:__ZN4core12basic_stringIcNS_20StringStorageDefaultIcEEE6resizeEj
iBc:__Z43Register_UnityEngine_Event_set_displayIndexv
Ihi:_InternalEnumerator_1_System_Collections_IEnumerator_get_Current_m2821735692_AdjustorThunk
iZc:__GLOBAL__sub_I_CmEventProfiler_cpp
web:__ZN14SafeBinaryRead19TransferSTLStyleMapINSt3__23setIjNS1_4lessIjEENS1_9allocatorIjEEEEEEvRT_17TransferMetaFlags
ifg:_StringBuilder_AppendLine_m1686706871
gFf:_ReadOnlyCollection_1_System_Collections_Generic_IListU3CTU3E_Insert_m584948331_gshared
mNa:__ZN17GlobalGameManager23VirtualRedirectTransferER24GenerateTypeTreeTransfer
E3e:_MemoryStream_ToArray_m547789004
Urd:__ZN19UnityConnectServiceD0Ev
hwe:_PlayableHandle_IsPlayableOfType_TisAnimatorControllerPlayable_t1744083903_m1628500864_gshared
S2e:_MonoIO_SetLength_m1019790894
XSb:__ZZ23InitPlayerLoopCallbacksvEN46EarlyUpdateUpdateAllUnityWebStreamsRegistrator7ForwardEv
Rog:_UIntPtr_ToString_m387842486
STa:__ZNSt3__26vectorIfNS_9allocatorIfEEE8__appendEjRKf
cqd:__ZN11UnityEngine15PlatformWrapper21GetCopyTextureSupportEv
HVd:_Graphic_get_depth_m3526566553
wX:__ZN11AudioModule27IsFormatSupportedByPlatformEPKc
Tae:_CollectionBase_get_InnerList_m44314156
Iqe:_Enum_System_IConvertible_ToUInt32_m3575456858
_dj:_Animator_SetBoolString_m665236890
TOa:__ZNSt3__26vectorI17SortingLayerEntryNS_9allocatorIS1_EEE6assignINS_11__wrap_iterIPS1_EEEENS_9enable_ifIXaasr21__is_forward_iteratorIT_EE5valuesr16is_constructibleIS1_NS_15iterator_traitsISA_E9referenceEEE5valueEvE4typeESA_SA_
sVc:__Z14b2PairLessThanRK6b2PairS1_
pba:__ZN14SerializedFile14SerializedTypeD2Ev
oJc:__Z19TransferField_ArrayI8JSONRead16Converter_StringEvRK23StaticTransferFieldInfoR31RuntimeSerializationCommandInfoRT0_
_Lc:__ZN15b2WheelJointDef10InitializeEP6b2BodyS1_RK6b2Vec2S4_
I1b:__Z19SetupShadowCullDataRK27ScriptableCullingParametersRK17ShaderReplaceDataPK22SceneCullingParametersf16ShadowProjectionR14ShadowCullData
iHa:__ZNK25ThreadsafeLinearAllocator22GetAllocatedMemorySizeEv
i7c:_cff_size_request
K0a:__ZN15DirectorManager14ConnectionPool12SwitchBucketEP14ConnectionList
blg:_Type_EqualsInternal_m266086934
Ghd:__ZN2UI11CompareFuncEPNS_6CanvasES1_
GS:__ZN4FMOD7Channel11set3DSpreadEf
v_j:__ZN6il2cpp2os6Memory14AlignedReAllocEPvjj
W:Math_fround
R1a:__ZN24GenerateTypeTreeTransfer16TransferTypelessEPjPKc17TransferMetaFlags
O_c:__ZN20TextRenderingPrivate8FontImpl8TransferI24GenerateTypeTreeTransferEEvRT_
nxd:_HMACMD5__ctor_m3425004426
hRe:_SymmetricTransform_InternalTransformBlock_m55428483
Bwa:__ZL18ProgramUniform4uivPK7ApiGLESjiihPKv
g8e:_LongComparer_Compare_m398047722
XAi:_Display_RelativeMouseAt_m2947428679
S4h:_EqualityComparer_1_System_Collections_IEqualityComparer_Equals_m2170611288_gshared
v3d:_Attribute_CheckParameters_m1754681684
ufg:_UnicodeEncoding_GetByteCount_m2761661599
lyj:__ZN6il2cpp2gc19AppendOnlyGCHashMapINSt3__24pairIPK10MethodInfoP11Il2CppClassEEP22Il2CppReflectionMethod17ReflectionMapHashIS9_ENS2_8equal_toIS9_EEE3AddERKS9_SB_
PXa:__ZN10builtintex21GetAttenuationTextureEv
mn:FUNCTION_TABLE_viiiiiiiiiiiiiii
oyi:_Bounds_set_center_m1010418458_AdjustorThunk
GQh:_Selectable_TriggerAnimation_m3096883407
Mlc:__ZNK4Mesh19CanAccessFromScriptEv
z6:__Z15GetGraphicsCapsv
noa:__ZN7ApiGLES15BindVertexArrayEN2gl6HandleILNS0_10ObjectTypeE3EEE
CXi:_UnityAction_1_BeginInvoke_m2825236457_gshared
Alc:__ZN24CompressedAnimationCurve17CompressQuatCurveERN13AnimationClip15QuaternionCurveE
aB:__ZN17AnimationPlayable17GetAnimationClipsER13dynamic_arrayIP13AnimationClipLj4EE
vHb:__Z18Transfer_BlittableI18StreamedBinaryReadILb1EELb1ExEvRK29SerializationCommandArgumentsR31RuntimeSerializationCommandInfo
zAj:__ZN30dense_hashtable_const_iteratorINSt3__24pairIK10KeyWrapperINS1_IPK9EventInfoP11Il2CppClassEEEjEES9_17ReflectionMapHashIS8_EN14dense_hash_mapIS9_jSD_NS9_14EqualsComparerINS0_8equal_toIS8_EEEENS0_9allocatorISB_EEE9SelectKeyESI_SK_EppEv
kkg:_TimeSpan_op_GreaterThan_m2202243191
gcc:__ZN18BackgroundJobQueue29ScheduleMainThreadJobInternalEPFvPvES0_
a_f:_X509Chain_IsSelfIssued_m2009755967
Xhd:__ZN2UI11CanvasGroup23VirtualRedirectTransferER24GenerateTypeTreeTransfer
cxb:__Z18Transfer_BlittableI14SafeBinaryReadLb1EhEvRK29SerializationCommandArgumentsR31RuntimeSerializationCommandInfo
_ke:_DateTime_GetTimeMonotonic_m4135038456
yia:__ZNSt3__224__buffered_inplace_mergeIRNS_4lessIN4core12basic_stringIcNS2_20StringStorageDefaultIcEEEEEENS_11__wrap_iterIPS6_EEEEvT0_SC_SC_T_NS_15iterator_traitsISC_E15difference_typeESG_PNSF_10value_typeE
bfg:_StringBuilder_Append_m3636508479
pJf:_MD4_Create_m3565183915
gc:invoke_viifff
I8:__Z22DestroyObjectHighLevelP6Objectb
UNc:__ZNK12b2MouseJoint10GetAnchorBEv
cYb:__Z26BeginRenderQueueExtractionR15RenderNodeQueuePK16RendererCullDataRK13CullingOutputPK12LODDataArray15ExtractionFlagsP18JobBatchDispatcher
b$c:__ZNK13TextRendering4Font10GetTextureEv
qyd:_SymmetricAlgorithm_set_KeySize_m270664177
qj:_emscripten_glVertexAttrib3fv
_4g:__ZL49Shadow_t4269599528_CustomAttributesCacheGeneratorP21CustomAttributesCache
vGj:__ZN6il2cpp6icalls8mscorlib6System9Threading6Thread16SetName_internalEP12Il2CppThreadP12Il2CppString
uj:_glBeginTransformFeedback
HUa:__ZN18JobBatchDispatcherC2E11JobPriorityi
yLc:__ZN23ColliderTilingExtension10IsTilingOnEv
gzc:__ZN8GUIStyle14GetBuiltinFontEv
Ima:__ZN9GfxDevice13EndFrameStatsEv
agc:__Z7Empty2DP9Texture2DPhiiii
Q$e:_IntPtr_ToString_m1500137303_AdjustorThunk
QNd:_RaycasterManager__cctor_m3713028899
yFj:__ZN6il2cpp6icalls8mscorlib6System7Runtime15InteropServices7Marshal19copy_from_unmanagedEiiP11Il2CppArrayi
rif:_List_1_CheckCollection_m1228076404_gshared
i$i:_SymmetricTransform_ThrowBadPaddingException_m2553969731
KQ:__ZL34StaticDestroyAudioCustomFilterRootPv
QPc:__ZN15dense_hashtableINSt3__24pairIKiiEEi21InstanceIDHashFunctorN14dense_hash_mapIiiS4_NS0_8equal_toIiEE13stl_allocatorIS3_L18MemLabelIdentifier37ELi16EEE9SelectKeyES7_SA_E12maybe_shrinkEv
eAa:__ZN19ComputeShaderKernelD2Ev
c6f:_RemotingServices_GetProxyForRemoteObject_m3800812855
F9b:__ZN10systeminfo21GetTemporaryCachePathEv
veg:_Encoding_GetBytes_m3820493744
T_b:__ZN26LightProbeProxyVolumeCacheC2ER13BatchRendererR15RenderLoopStats
QOf:_Context_DecodeProtocolCode_m4051353560
h9i:_TextGenerator_GetPreferredHeight_m2983948849
tsb:__ZN12ScriptMapper8TransferI14SafeBinaryReadEEvRT_
IOf:_Context_set_ClientWriteKey_m1137238126
uDb:__Z18Transfer_BlittableI24GenerateTypeTreeTransferLb1E10Matrix4x4fEvRK29SerializationCommandArgumentsR31RuntimeSerializationCommandInfo
Kui:_Expression_GetFixedWidth_m2900825908
w1i:_GenericEqualityComparer_1_Equals_m1663005117_gshared
y8g:_ILGenerator_Mono_GetCurrentOffset_m3553856682
LFc:__ZN9JSONWrite8TransferI10Matrix4x4fEEvRT_PKc17TransferMetaFlags
Yqg:__ZL58Decimal_t724701077_CustomAttributesCacheGenerator_MinValueP21CustomAttributesCache
A8c:_cf2_hintmap_map
Hdf:_Enumerator_VerifyState_m3639069574_AdjustorThunk
Fzg:__ZL50_Module_t2144668161_CustomAttributesCacheGeneratorP21CustomAttributesCache
fAb:__ZN15SerializeTraitsI5RectTIfEE8TransferI14SafeBinaryReadEEvRS1_RT_
DHa:__ZNK14SerializedFile15GetTypeIfExistsEx
Xvc:__Z41Register_UnityEngine_Texture_get_wrapModev
O0c:_UNITY_FT_Raccess_Get_DataOffsets
U$f:_X509Extension_CopyFrom_m2644634650
yjc:__ZN14PlayableOutputC2EjP13PlayableGraph
k5a:__ZThn32_NK8Renderer11GetMaterialEi
zqb:__ZN9ShaderLab20SerializedSubProgram8TransferI19StreamedBinaryWriteILb0EEEEvRT_
Qnd:__Z13RegisterClassI21UnityAnalyticsManagerEvv
LDg:__ZL118SecurityManager_t3191249573_CustomAttributesCacheGenerator_SecurityManager_t3191249573____SecurityEnabled_PropertyInfoP21CustomAttributesCache
Ugf:_List_1_System_Collections_IList_Insert_m813883425_gshared
nUj:__ZN6il2cpp6icalls8mscorlib6System7Runtime15InteropServices8GCHandle15GetTargetHandleEP12Il2CppObjectii
Qmi:_SafeHandle_Dispose_m3871883741
ok:_unsetenv
Gja:__ZN9GfxDevice29GetMinimumNodesPerGraphicsJobEv
fbb:__ZN17BlendShapeChannel8TransferI24GenerateTypeTreeTransferEEvRT_
Vsi:_Parser_NewParseException_m3909819299
Lod:__ZN22BaseUnityConnectClient12CloseServiceEv
Iga:__ZN15DirectorManager17OnSampleFixedTimeEv
_2b:__ZNK13RendererScene21GetDynamicObjectCountEv
GYh:_Enumerator_System_Collections_IEnumerator_get_Current_m1805365227_AdjustorThunk
HUj:_GC_is_black_listed
XZd:_InputField_set_caretSelectPositionInternal_m2063243072
aEb:__ZN24GenerateTypeTreeTransfer32TransferSTLStyleArrayWithElementI23ManagedObjectTransfererEEvRT_17TransferMetaFlags
Mgi:_InternalEnumerator_1_System_Collections_IEnumerator_get_Current_m3043347404_AdjustorThunk
dQj:__ZN6il2cpp6icalls8mscorlib6System11Environment12get_PlatformEv
K2e:_WriteDelegate_BeginInvoke_m2985235908
tme:_DateTimeOffset_get_Offset_m2335492074_AdjustorThunk
tHe:_Component_GetComponentsInChildren_TisRuntimeObject_m1992201622_gshared
k2c:_UNITY_FT_Destroy_Class_tt_driver_class
xwc:__Z49Transform_CUSTOM_INTERNAL_CALL_TransformDirectionP12Il2CppObjectRK8Vector3fRS1_
AZe:_Int32_System_IConvertible_ToChar_m719315943_AdjustorThunk
Px:__GLOBAL__sub_I_runtime_animation_0_cpp
eri:_Match__ctor_m478172746
tDe:_Array_InternalArray__Insert_TisWorkRequest_t1154022482_m452198486_gshared
Kqc:__Z42Register_UnityEngine_Behaviour_get_enabledv
a7e:_Math_Pow_m3099781906
Uu:__ZN13AnimationClip9PPtrCurveC2ERKS0_
$uj:__ZN6il2cpp2vm14TypeNameParser23ParseNestedTypeOptionalERi
N8e:_MonoType_ReorderParamArrayArguments_m979187413
$Gf:_BigInteger_ToString_m1842353154
f_j:__ZN6il2cpp2os13FastMutexImplC2Ev
J9h:_InternalEnumerator_1_get_Current_m2882946014_gshared
djb:__ZN30RuntimeInitializeOnLoadManager9ClassInfo8TransferI14SafeBinaryReadEEvRT_
tmi:_GCHandle_Equals_m170815541_AdjustorThunk
q$b:__ZL13RenderCastersiRK8Vector3fS1_RK13ShadowJobDataR17ShaderPassContextRKNSt3__26vectorI16ShadowCasterData13stl_allocatorIS9_L18MemLabelIdentifier2ELi16EEEERKNS8_I20ShadowCasterPartDataSA_ISG_LSB_2ELi16EEEERK15RenderNodeQueuebPKj
pl:_emscripten_glGetShaderInfoLog
dzd:_RIPEMD160Managed_Compress_m3844168032
Nme:_DBNull_System_IConvertible_ToInt32_m3596596664
nZe:_Int16_ToString_m1247017262_AdjustorThunk
d4c:_UNITY_ft_glyphslot_set_bitmap
eLc:__ZN14b2PolygonShape3SetEPK6b2Vec2i
J9:__ZN24GenerateTypeTreeTransfer18SetScriptingObjectE18ScriptingObjectPtri
RZe:_Int32_System_IConvertible_ToType_m573330549_AdjustorThunk
l7g:_CustomAttributeTypedArgument_Equals_m1555989603
PQj:__ZN6il2cpp2os6ThreadC2EPNS0_10ThreadImplE
zac:__ZN6prcoreL11inner_clearILj3EEEvPhjjj
CRa:__Z29FindReflectionProbeFromAnchorP9TransformRK4AABBRS1_RsS5_
tte:_CultureInfo_insert_into_shared_tables_m348522444
r2f:_Interval_Merge_m1170166798
E7f:_WellKnownServiceTypeEntry__ctor_m1109686429
sad:_Read_CVT_Stretched
rHj:__ZNSt3__212basic_stringIDsNS_11char_traitsIDsEENS_9allocatorIDsEEE7reserveEj
brj:__ZN6il2cpp6icalls8mscorlib6System18CollectTypeMethodsINS_5utils10functional10TrueFilterEEEvP11Il2CppClassPKS7_jRKT_RNSt3__26vectorIPK10MethodInfoNSE_9allocatorISI_EEEERA65535_b
Dpf:_Enumerator_get_Current_m2566716693_AdjustorThunk
CPb:__Z14SetPlayerPause11PlayerPauseb
IUd:_FontData_get_defaultFontData_m3296571046
FJb:__ZN18StreamedBinaryReadILb1EE8TransferI13dynamic_arrayIfLj4EEEEvRT_PKc17TransferMetaFlags
fGi:_Object_Internal_CloneSingle_m1822942073
p_d:_InputField_InPlaceEditing_m1040314765
N7:__Z30scripting_stack_trace_info_for21ScriptingExceptionPtrR14StackTraceInfo
Y7j:_glCompressedTexSubImage3D__wrapper
N2i:_AudioExtensionManager_AddSpatializerExtension_m1061433739
kYa:__ZN18ShadowMapJobHeaderD0Ev
Lzj:__ZN15dense_hashtableINSt3__24pairIK10KeyWrapperINS1_IPK12PropertyInfoP11Il2CppClassEEEjEES9_17ReflectionMapHashIS8_EN14dense_hash_mapIS9_jSD_NS9_14EqualsComparerINS0_8equal_toIS8_EEEENS0_9allocatorISB_EEE9SelectKeyESI_SK_EC2ERKSN_j
$R:__ZN15AudioReverbZone7CleanupEv
pja:__ZN10BufferGLESD0Ev
iPb:__Z20scripting_gc_disablev
qgi:_InternalEnumerator_1_System_Collections_IEnumerator_get_Current_m790514740_gshared
Q2i:_AudioSettings_GetSpatializerPluginName_m698617843
qEd:__Z9NullCheckPv
tje:_Convert_ToUInt32_m671585177
jLc:__ZNK14b2PolygonShape9TestPointERK11b2TransformRK6b2Vec2
vSc:__ZN22FindParticleCollisions22ProcessFoundCollisionsERKfRK13dynamic_arrayI15BatchedRaycastsLj4EERS2_I20BatchedRaycastResultLj4EERS2_I21BatchedColliderResultLj4EE
I8c:_cf2_hintmask_isNew
GJb:__Z29Transfer_Blittable_ArrayFieldI18StreamedBinaryReadILb1EEfEvRT_R9ArrayInfoRK23StaticTransferFieldInfo
NCe:_Array_InternalArray__Insert_TisIntPtr_t_m3232864760_gshared
Wva:__ZN6prcoreL26RemapGenericIntegerToFloatI17TexFormatARGB888818TexFormatARGBFloatEEvPKNS_9InnerInfoE
mfd:__ZN15TilemapRenderer23VirtualRedirectTransferER19StreamedBinaryWriteILb0EE
Kck:_emscripten_glCompressedTexSubImage2D__wrapper
Xvd:_DSA_FromXmlString_m2141326025
eUj:__ZN6il2cpp6icalls8mscorlib6System7Runtime16CompilerServices14RuntimeHelpers15InitializeArrayEP11Il2CppArrayi
otd:__ZZN18UnityConnectClient23RegisterGlobalCallbacksEvEN46EarlyUpdateUnityConnectClientUpdateRegistrator7ForwardEv
j$h:_Dictionary_2_System_Collections_IDictionary_Remove_m2901901588_gshared
seb:__ZN14SubstanceInput8TransferI14SafeBinaryReadEEvRT_
oDi:_Input_get_touchCount_m814531925
$Uc:__ZN16b2ContactManager7CollideEv
hqj:__ZN6il2cpp2vmL29SocketPollingThreadEntryPointEPv
KKj:__ZN13Il2CppHashMapINSt3__24pairIPKcS3_EEi24NamespaceAndNamePairHash26NamespaceAndNamePairEqualsNS0_9allocatorINS1_IK10KeyWrapperIS4_EiEEEEEC2EjRKS5_RKS6_
$ke:_DateTime_GetNow_m1004310079
Dnh:__Z97RuntimeInvoker_Void_t1841601450_RuntimeObject_Int32_t2071877448_SByte_t454417549_SByte_t454417549PFvvEPK10MethodInfoPvPS4_
obb:__ZN10Matrix4x4f8TransferI18StreamedBinaryReadILb0EEEEvRT_
CWi:_CachedInvokableCall_1_Invoke_m3335223860_gshared
ETf:_SslStreamBase_get_Length_m763159069
YFf:_Comparison_1_Invoke_m4190993814_gshared
MV:__ZN4FMOD7Channel19getReverbPropertiesEP29FMOD_REVERB_CHANNELPROPERTIES
eii:_InternalEnumerator_1_get_Current_m906360510_AdjustorThunk
Xoe:_StackFrame_GetSecureFileName_m389986943
Z7f:_FormatterConverter_ToInt16_m2774942580
HQd:_CanvasScaler_HandleConstantPixelSize_m229625308
a5:__GLOBAL__sub_I_platformdependent_webgl_source_0_cpp
l2b:__ZL23NormalizeRobustInternalRK8Vector3fRfS2_f
Fgj:_UnityAnalyticsHandler_InternalDestroy_m483041424
MQd:_CanvasUpdateRegistry_PerformUpdate_m2200492017
Nya:__ZNSt3__26vectorINS_4pairIyP17VertexDeclarationEENS_9allocatorIS4_EEE6insertENS_11__wrap_iterIPKS4_EERS9_
UZc:__GLOBAL__sub_I_modules_terrain_public_2_cpp
Qfg:_UTF32Encoding_GetCharCount_m3319809517
Tqj:__ZN6il2cpp6icalls8mscorlib6System8MonoType13GetInterfacesEP20Il2CppReflectionType
P0:__ZN11UnityEngine15CloudWebService25WebRequestDownloadHandler7OnAbortEv
sUb:__ZN6Camera12CustomRenderER11CullResultsR17ShaderPassContextPK21CameraRenderingParamsNS_10RenderFlagEPNS_21PerformRenderFunctionEPFvvE
ESb:__ZN23ManagedAttributeManager15InitializeClassEv
bRj:__ZN6il2cpp2os6Thread22SetNativeThreadCleanupEPFvPvE
mqc:__Z35Application_Get_Custom_PropPlatformv
Ksj:_il2cpp_class_from_system_type
cQi:_TouchScreenKeyboard_Open_m4126304679
gn:FUNCTION_TABLE_vdd
$Cb:__Z18Transfer_BlittableI24GenerateTypeTreeTransferLb1E10ColorRGBAfEvRK29SerializationCommandArgumentsR31RuntimeSerializationCommandInfo
Wua:__ZN6prcoreL17RemapGenericFloatI18TexFormatRGBAFloat16TexFormatRGFloatEEvPKNS_9InnerInfoE
vKe:_MSCompatUnicodeTable_FillCJKCore_m1100372933
sqj:__ZN6il2cpp6icalls8mscorlib6System8MonoType8get_NameEP20Il2CppReflectionType
zzb:__ZNSt3__26vectorI10RectOffset13stl_allocatorIS1_L18MemLabelIdentifier1ELi16EEE8__appendEj
hge:_DateTime_op_Inequality_m1607380213
nz:__ZN21AnimationClipPlayable22PrepareAnimationEventsEfR13dynamic_arrayI22AnimationClipEventInfoLj4EE
YGe:_Dictionary_2_Do_ICollectionCopyTo_TisRuntimeObject_m4050345195_gshared
rue:_Array_InternalArray__ICollection_Contains_TisResourceCacheItem_t333236149_m1769941464_gshared
xJa:__ZN15dense_hashtableINSt3__24pairIKN4core12basic_stringIcNS2_20StringStorageDefaultIcEEEEP20ArchiveStorageReaderEES6_20StringHash32FunctionIS6_EN14dense_hash_mapIS6_S9_SC_NS0_8equal_toIS6_EE13stl_allocatorISA_L18MemLabelIdentifier55ELi16EEE9SelectKeyESF_SI_E9copy_fromERKSL_j
lMj:__ZN14dense_hash_mapI10KeyWrapperIP12Il2CppObjectEN6il2cpp2gc9CachedCCWENS4_5utils11PointerHashIS1_EENS3_14EqualsComparerINSt3__28equal_toIS2_EEEENSB_9allocatorINSB_4pairIKS3_S6_EEEEE13set_empty_keyERSH_
$o:FUNCTION_TABLE_ff
Y8a:__ZNSt3__218__stable_sort_moveIRNS_4lessI4PPtrI11SpriteAtlasEEENS_11__wrap_iterIPS4_EEEEvT0_SA_T_NS_15iterator_traitsISA_E15difference_typeEPNSD_10value_typeE
bp:FUNCTION_TABLE_fi
BJd:_BaseEventData_set_selectedObject_m2198139983
KF:__ZNSt3__227__insertion_sort_incompleteIRN11UnityEngine9Animation11BindingSortEPNS_4pairINS2_14GenericBindingEPNS2_10BoundIndexEEEEEbT0_SB_T_
q$j:__ZN6il2cpp2vm16GenericContainer19GetGenericParameterEPK22Il2CppGenericContainert
Z6d:_Char_System_IConvertible_ToSingle_m2547558725_AdjustorThunk
cdh:_PropertyBuilder_GetSetMethod_m3440414495
VBi:_UnityEventBase_FindMethod_m3314394402
xd:_emscripten_glGetAttribLocation
cTb:__ZZ23InitPlayerLoopCallbacksvEN39PostLateUpdateResetInputAxisRegistrator7ForwardEv
DU:__ZN4FMOD12ChannelGroup14getParentGroupEPPS0_
bL:__ZN7mecanim12statemachine20StateMachineConstant8TransferI24GenerateTypeTreeTransferEEvRT_
URf:_SslClientStream_add_ServerCertValidation_m684653638
Bd:_emscripten_set_blur_callback
xMi:_Rect_Contains_m846865666_AdjustorThunk
zZj:__GLOBAL__sub_I_MemoryMappedFile_cpp
i9j:___cxa_pure_virtual__wrapper
Lsa:__ZNK14ImageReference9ClipImageEiiii
a0b:__ZN10Matrix4x4f30SetPositionAndOrthoNormalBasisERK8Vector3fS2_S2_S2_
xGa:__ZN5RectTIfE8TransferI24GenerateTypeTreeTransferEEvRT_
Wxh:__Z87RuntimeInvoker_Void_t1841601450_RuntimeObject_Vector3_t2243707580_HitInfoU26_t216915145PFvvEPK10MethodInfoPvPS4_
Zni:_CrossAppDomainSink__cctor_m1547233779
SJe:_TableRange__ctor_m1944319286_AdjustorThunk
bWb:__ZN12FlareManager6UpdateEv
G9j:_glColorMask__wrapper
uzg:__ZL59_ConstructorInfo_t3269099341_CustomAttributesCacheGeneratorP21CustomAttributesCache
iMh:_RawImage_get_mainTexture_m3865646934
iSe:_X509CertificateEnumerator_MoveNext_m1031936092
bIj:__ZN6il2cpp6icalls8mscorlib6System4Type29GetGenericTypeDefinition_implEP20Il2CppReflectionType
hNf:_TlsStream__ctor_m2982031560
xYf:_X509EnhancedKeyUsageExtension__ctor_m4050164330
qfi:_InternalEnumerator_1_get_Current_m2198364332_AdjustorThunk
Mgb:__ZN27GenericSlowGarbageCollector16ProcessReferenceEi
s6f:_RealProxy_InternalGetProxyType_m858618403
Jre:_FieldAccessException__ctor_m1240495912
lac:__Z8heapFreePvS_
Swi:_Uri_HexUnescapeMultiByte_m25670899
zQd:_CanvasScaler_set_dynamicPixelsPerUnit_m742632820
S1j:_fopen
u1c:__ZN20TextRenderingPrivate8FontImplD2Ev
y2:__ZN19CloudServiceHandler8SaveFileERKN4core12basic_stringIcNS0_20StringStorageDefaultIcEEEEPKvj
hKd:_BaseInputModule_HandlePointerExitAndEnter_m1570886840
S$f:_X509EnhancedKeyUsageExtension_CopyFrom_m1426370958
Aak:_glFramebufferTexture2D__wrapper
v$j:__ZN6il2cpp6icalls8mscorlib6System7Runtime8Remoting7Proxies9RealProxy27InternalGetTransparentProxyEP12Il2CppObjectP12Il2CppString
Slf:_List_1_AddEnumerable_m1000825969_gshared
pPj:__ZN6il2cpp2vm6Method10IsInflatedEPK10MethodInfo
kUj:__ZNK6il2cpp8metadata14Il2CppTypeLessclEPK10Il2CppTypeS4_
eVj:_GC_remove_header
Xib:__ZNSt3__26vectorIi13stl_allocatorIiL18MemLabelIdentifier13ELi16EEE8__appendEj
vMi:_Rect_Contains_m3575749021_AdjustorThunk
QVe:_RegionInfo_GetHashCode_m1038358761
zEi:_Mathf_Lerp_m1928161522
roi:_ConfigHandler_ReadCustomProviderData_m784203316
SOa:__ZNSt3__26vectorI17SortingLayerEntryNS_9allocatorIS1_EEE7reserveEj
dOf:_Context_set_MasterSecret_m1422386411
lGb:__Z19TransferField_ArrayI19StreamedBinaryWriteILb0EE27Converter_UnityEngineObjectEvRK23StaticTransferFieldInfoR31RuntimeSerializationCommandInfoRT0_
iPc:__ZN10ClipperLib7Clipper15AddLocalMinPolyEPNS_5TEdgeES2_RKNS_8IntPointE
BKf:_RSAManaged_ToXmlString_m2606223477
bti:_CharacterClass__ctor_m1318163925
jCh:__Z150RuntimeInvoker_Void_t1841601450_Vector3_t2243707580_Color32_t874517518_Vector2_t2243707579_Vector2_t2243707579_Vector3_t2243707580_Vector4_t2243707581PFvvEPK10MethodInfoPvPS4_
ypa:__Z16GetMSAALevelDesc9MSAALevel
HUb:__ZN8Renderer27EnsureTransformInfoUpToDateEv
Sha:__ZN15dense_hashtableINSt3__24pairIKN4core12basic_stringIcNS2_20StringStorageDefaultIcEEEEP11AssetBundleEES6_20StringHash32FunctionIS6_EN14dense_hash_mapIS6_S9_SC_NS0_8equal_toIS6_EENS0_9allocatorISA_EEE9SelectKeyESF_SH_E9copy_fromERKSK_j
kfk:_emscripten_glFrontFace__wrapper
Na:invoke_fiffi
LZj:__ZN6il2cpp5utils6Memory6CallocEjj
Hba:__ZN14SerializedFile14SerializedType8ReadTypeILb1EEEbibRPKhS3_Pi
vak:_emscripten_glRenderbufferStorage__wrapper
y0a:__ZN8Playable7SetTimeEd
w7:__ZN13RuntimeStaticI12GraphicsCapsLb0EE16StaticInitializeEPv
Y9a:__ZN9Texture3D17UploadToGfxDeviceEv
YGc:__Z18Transfer_BlittableI8JSONReadLb1E8Vector4fEvRK29SerializationCommandArgumentsR31RuntimeSerializationCommandInfo
E4c:_tt_cmap2_validate
LQf:_HttpsClientStream_U3CHttpsClientStreamU3Em__1_m4293802471
n9c:_cff_cmap_unicode_done
iZe:_NumberFormatter_Init_m1515770916
pvi:_Literal_Compile_m3864266818
wx:__ZN7mecanim5human9HumanGoal8TransferI19StreamedBinaryWriteILb0EEEEvRT_
_Ob:__ZN9Scripting20SendScriptingMessageER10GameObjectPKc18ScriptingObjectPtr
yPb:__Z26IsSplashScreenFadeCompletev
DWa:__Z17SendMessageDirectR6ObjectRK17MessageIdentifierR11MessageData
r_d:_InputField_LateUpdate_m1045279070
jrc:__Z42Register_UnityEngine_Camera_get_clearFlagsv
Vqj:__ZNSt3__26__treeIP11Il2CppClassNS_4lessIS2_EENS_9allocatorIS2_EEED2Ev
z$h:_Dictionary_2_InitArrays_m852496598_gshared
Zai:_InternalEnumerator_1_get_Current_m1389169756_gshared
Xeg:_StringBuilder_set_Chars_m1019094834
lfj:_Physics2D_Raycast_m2247349452
p6b:__ZN13RenderManager27UpdatePreviousFrameMatricesEv
wHb:__Z35Transfer_Blittable_FixedBufferFieldI18StreamedBinaryReadILb1EExEvRK29SerializationCommandArgumentsR31RuntimeSerializationCommandInfo
LL:__ZN18StreamedBinaryReadILb0EE21TransferSTLStyleArrayI22OffsetPtrArrayTransferI9OffsetPtrIN7mecanim9animation17BlendTreeConstantEEEEEvRT_17TransferMetaFlags
$5d:_Byte_System_IConvertible_ToUInt64_m2667486567
Ns:__ZL23CalculateTransformRootsR9TransformRNSt3__26vectorIPS_13stl_allocatorIS3_L18MemLabelIdentifier26ELi16EEEE
Ada:__Z22SetManagerPtrInContextiP6Object
Hhb:__ZN14PlayerSettings8TransferI19StreamedBinaryWriteILb0EEEEvRT_
IGc:__Z18Transfer_BlittableI8JSONReadLb0E10ColorRGBAfEvRK29SerializationCommandArgumentsR31RuntimeSerializationCommandInfo
Ewf:_Collection_1_Remove_m2017992820_gshared
KCe:_Array_InternalArray__Insert_TisInt16_t4041245914_m371511339_gshared
Q7g:_ConstructorBuilder_get_next_table_index_m932085784
j_h:_ValueCollection_System_Collections_ICollection_get_SyncRoot_m919209341_gshared
cnj:__ZN15dense_hashtableINSt3__24pairIK10KeyWrapperIN6il2cpp5utils13dynamic_arrayIPK10Il2CppTypeLj4EEEEPFvvEEESA_NS3_8metadata19Il2CppSignatureHashEN14dense_hash_mapISA_SD_SG_NSA_14EqualsComparerINSF_22Il2CppSignatureCompareEEENS0_9allocatorISE_EEE9SelectKeyESK_SM_E14squash_deletedEv
DRh:_Slider_UpdateDrag_m1963963631
ibg:_SByte_Equals_m755715567
Ffa:__ZN15DirectorManagerD2Ev
WKe:_SortKeyBuffer_AppendNormal_m2554296431
gfc:__ZNK30SpriteRendererAnimationBinding15GenerateBindingERKN4core12basic_stringIcNS0_20StringStorageDefaultIcEEEEbRN11UnityEngine9Animation14GenericBindingE
Mxh:__Z87RuntimeInvoker_Void_t1841601450_Int32_t2071877448_Single_t2076509932_Single_t2076509932PFvvEPK10MethodInfoPvPS4_
MJj:__ZN6il2cpp6icalls8mscorlib6System13Globalization11CultureInfo45construct_internal_locale_from_current_localeEP17Il2CppCultureInfo
m1g:__ZL70InputField_t1631627530_CustomAttributesCacheGenerator_m_CaretBlinkRateP21CustomAttributesCache
Iye:_Array_IndexOf_TisCustomAttributeNamedArgument_t94157543_m2205974312_gshared
yAa:__ZN15TextureTFMethod16BindForRenderingEj
Mue:_Array_InternalArray__ICollection_Contains_TisUICharInfo_t3056636800_m2001435744_gshared
L2h:_DefaultComparer_GetHashCode_m3250641461_gshared
O0f:_Key_ToString_m1129871742
T2d:_Array_Sort_m1417611156
j2j:_access
plh:__Z59RuntimeInvoker_RuntimeObject_RuntimeObject_Int64_t909078037PFvvEPK10MethodInfoPvPS4_
fKj:__ZN15dense_hashtableINSt3__24pairIK10KeyWrapperINS1_IPKcS4_EEEiEES6_24NamespaceAndNamePairHashN14dense_hash_mapIS6_iS9_NS6_14EqualsComparerI26NamespaceAndNamePairEqualsEENS0_9allocatorIS8_EEE9SelectKeyESD_SF_E4findERS7_
pKc:__ZN11UnityEngine9Analytics33PerformanceReportingRenderingInfoC2Ei
Z_c:__ZN20TextRenderingPrivate8FontImpl13CharacterInfo8TransferI19StreamedBinaryWriteILb0EEEEvRT_
kpj:__ZN6il2cpp2os19SocketHandleWrapper7ReleaseEv
XSd:_DefaultControls_CreateRawImage_m2572997170
Ejg:_TimeSpan_get_TotalDays_m3496775483_AdjustorThunk
ygb:__ZNSt3__27__sort4IRNS_6__lessINS_4pairIPKN5Unity4TypeE7Hash128EES8_EEPS8_EEjT0_SC_SC_SC_T_
OGa:__ZNK11NamedObject22GetTypeVirtualInternalEv
nig:_Thread_Start_m1419497481
nK:__ZN14SafeBinaryRead21TransferSTLStyleArrayI22OffsetPtrArrayTransferIKN4math7_float3EEEEvRT_17TransferMetaFlags
cSi:_Vector3_set_Item_m2026854946
zyh:__Z94RuntimeInvoker_Void_t1841601450_RuntimeObject_PlayableGraph_t1041204988_RuntimeObject_IntPtr_tPFvvEPK10MethodInfoPvPS4_
dIe:_Array_InternalArray__get_Item_TisDictionaryEntry_t3048875398_m2371191320_gshared
p0g:__ZL62FontData_t2614388407_CustomAttributesCacheGenerator_m_RichTextP21CustomAttributesCache
unh:__Z65RuntimeInvoker_Double_t4078015681_RuntimeObject_Int32_t2071877448PFvvEPK10MethodInfoPvPS4_
Sr:__ZN14AnimationState4InitERKN4core12basic_stringIcNS0_20StringStorageDefaultIcEEEEP13AnimationClipd8WrapModeb
N8h:_InternalEnumerator_1_get_Current_m2351441486_gshared
mYh:_Enumerator_System_Collections_IEnumerator_Reset_m1146954164_AdjustorThunk
LAc:__ZN11IMGUIModule21QueryGUIDisplayTargetE17ScriptingClassPtr
Coc:__ZN11UTF16StringC2ERKS_18MemLabelIdentifier
fmj:__ZNSt3__27__sort4IRN6il2cpp5utils11collections13ArrayValueMapIPK10Il2CppType17Il2CppInteropData26InteropDataToTypeConverterNS1_8metadata14Il2CppTypeLessENSA_26Il2CppTypeEqualityComparerEE12SortComparerEPS8_EEjT0_SH_SH_SH_T_
x5j:dynCall_vidi
bCf:_ReadOnlyCollection_1_System_Collections_IList_Remove_m2350545199_gshared
h5j:___udivdi3
voc:__ZN11PlayerPrefs9SetStringERKN4core12basic_stringIcNS0_20StringStorageDefaultIcEEEES6_
oVi:_GUILayoutGroup_ToString_m3992339043
WXj:__ZN6il2cpp6icalls8mscorlib6System8Delegate18SetMulticastInvokeEP14Il2CppDelegate
dTc:__ZL18b2FindIncidentEdgeP12b2ClipVertexPK14b2PolygonShapeRK11b2TransformiS3_S6_
q0d:_LayoutGroup_get_minHeight_m2270010946
z0:__ZN11UnityEngine15CloudWebService20WebRequestRestClient5BeginEv
QIf:_ARC4Managed_GenerateIV_m2815460576
jSi:_Vector3_get_normalized_m1057036856_AdjustorThunk
SEd:_String_Substring_m2032624251
zhc:__ZN8Material12CleanupClassEv
Wke:_DateTime_get_DayOfWeek_m2345429939_AdjustorThunk
hlg:_Type_GetTypeCode_m1044483454
uli:_ResourceSet_GetObjectInternal_m3556256510
wCb:__Z22TransferField_NonArrayI17RemapPPtrTransfer27Converter_SimpleNativeClassI10RectOffsetEEvRK23StaticTransferFieldInfoR31RuntimeSerializationCommandInfoRT0_
jge:_DateTimeOffset__ctor_m2870721395
QV:__ZN20SoundChannelInstance11set3DSpreadEf
zF:__ZNSt3__26__sortIRN11UnityEngine9Animation11BindingSortEPNS_4pairINS2_14GenericBindingEPNS2_10BoundIndexEEEEEvT0_SB_T_
OHd:_String_ReplaceFallback_m64616664
ngh:_MonoMethod_GetCustomAttributes_m2493833930
xhb:__ZN24GenerateTypeTreeTransfer32TransferSTLStyleArrayWithElementI16SplashScreenLogoEEvRT_17TransferMetaFlags
exj:__ZN15dense_hashtableINSt3__24pairIK10KeyWrapperINS1_IPK9FieldInfoP11Il2CppClassEEEjEES9_17ReflectionMapHashIS8_EN14dense_hash_mapIS9_jSD_NS9_14EqualsComparerINS0_8equal_toIS8_EEEENS0_9allocatorISB_EEE9SelectKeyESI_SK_E6insertERKSB_
kkj:__ZN14dense_hash_mapI10KeyWrapperIPKcEP11Il2CppClassN6il2cpp5utils11StringUtils12StringHasherIS2_EENS3_14EqualsComparerINS7_13VmStringUtils21CaseSensitiveComparerEEENSt3__29allocatorINSF_4pairIKS3_S5_EEEEEC2EjRKSA_RKSE_
INi:_Vector2_get_one_m542290559
GZe:_Int32_System_IConvertible_ToDouble_m3322226667_AdjustorThunk
gCe:_Array_InternalArray__ICollection_CopyTo_TisPlayableBinding_t2498078091_m2296273826_gshared
Hea:__Z37InitializeIntermediateRendererManagerPv
wUj:_GC_log_printf
rGf:_Comparison_1_BeginInvoke_m4224593217_gshared
Dbg:_CodeAccessPermission_ToString_m3345031296
QNj:__ZN6il2cpp2vm6Object5UnboxEP12Il2CppObject
$Vf:_FtpWebRequest__ctor_m3003551676
oQe:_EncryptedPrivateKeyInfo__ctor_m832236482
t7:__ZN23DefaultMeshVertexFormatC2E17ShaderChannelMask
RHb:__ZL26Transfer_SimpleNativeClassI18StreamedBinaryReadILb1EE8GradientLb1EEvRK29SerializationCommandArgumentsR31RuntimeSerializationCommandInfo
_Fd:_Single_Equals_m3359827399
Tt:__ZN13AnimationClip16DecompressCurvesERNSt3__26vectorI24CompressedAnimationCurve13stl_allocatorIS2_L18MemLabelIdentifier26ELi16EEEE
Zhg:_Thread_FreeLocalSlotValues_m2948667652
dpa:__ZN7ApiGLES10InvalidateERK14GfxContextGLES
XNe:_ASN1Convert_ToOid_m2695991795
ybd:_UNITY_FT_Init_Class_tt_service_truetype_glyf
SDi:_ManagedStreamHelpers_ValidateLoadFromStream_m733853519
yfd:__ZN19TilemapRendererJobs14RenderMultipleERK15RenderNodeQueueRK18RenderMultipleData17ShaderChannelMask
c_j:__ZN6il2cpp2os5Mutex7TryLockEjb
B6:__Z20IsVectorBuiltinParamPKcPi
nNj:__ZN6il2cpp2vm5Field8GetFlagsEP9FieldInfo
Eei:_InternalEnumerator_1_get_Current_m727737343_AdjustorThunk
$Fj:__ZN6il2cpp6icalls8mscorlib6System10ReflectionL16LoadResourceFileEP24Il2CppReflectionAssembly
gba:__Z13IsFileCreatedRKN4core12basic_stringIcNS_20StringStorageDefaultIcEEEE
gZj:__ZN6il2cpp6icalls8mscorlib6System21CurrentSystemTimeZone15GetTimeZoneDataEiPP11Il2CppArrayS6_
s3i:_AudioExtensionManager_GetListenerSpatializerExtensionType_m3668710088
d4a:__ZN16LightmapSettings18TransferDeprecatedI14SafeBinaryReadEEvRT_
Vdb:__ZN8Renderer11SetMaterialE4PPtrI8MaterialEi
_Mj:__ZN15dense_hashtableINSt3__24pairIK10KeyWrapperIP12Il2CppObjectEN6il2cpp2gc9CachedCCWEEES5_NS7_5utils11PointerHashIS3_EEN14dense_hash_mapIS5_S9_SD_NS5_14EqualsComparerINS0_8equal_toIS4_EEEENS0_9allocatorISA_EEE9SelectKeyESI_SK_E5eraseE30dense_hashtable_const_iteratorISA_S5_SD_SM_SI_SK_E
X5g:_Assembly_UnprotectedGetName_m3014607408
sGd:_String__cctor_m710226597
w4:__GLOBAL__sub_I_runtime_camera_renderloops_1_cpp
hyf:_Collection_1_IsValidItem_m404831699_gshared
dkg:_TimeSpan_Negate_m4198463235_AdjustorThunk
QTa:__ZN12FlareManager9AddCameraER6Camera
HW:__ZN11AudioSource8TransferI14SafeBinaryReadEEvRT_
Wlc:__ZN4Mesh17SetIndicesComplexEPKvjj16GfxPrimitiveTypei
Bwf:_Collection_1_Insert_m4010554762_gshared
LA:__ZN7mecanim9animation23TransformDeltasFromClipEiiiRKNS0_18ClipMuscleConstantERKNS0_12ClipBindingsERKNS_14ValueArrayMaskERN4math4trsXESC_SC_
JFe:_Array_Sort_TisRuntimeObject_m1954851512_gshared
FKb:__Z18Transfer_BlittableI18StreamedBinaryReadILb0EELb0E12PropertyNameEvRK29SerializationCommandArgumentsR31RuntimeSerializationCommandInfo
vu:__ZN14SafeBinaryRead21TransferSTLStyleArrayI22OffsetPtrArrayTransferIfEEEvRT_17TransferMetaFlags
LOc:__ZTv0_n12_N10ClipperLib7ClipperD0Ev
Opi:_ContextAttribute_GetHashCode_m3646968314
PKe:_SimpleCollator_GetSortKey_m540875593
Sqb:__ZN9ShaderLab9IntShader26CreateFromSerializedShaderERKNS_16SerializedShaderERNSt3__26vectorI4PPtrI6ShaderENS4_9allocatorIS8_EEEEbPS7_
Vyi:_Camera_INTERNAL_CALL_ScreenPointToRay_m305063597
$Ub:__ZN19ShaderPropertySheet16SetComputeBufferEN9ShaderLab16FastPropertyNameE15ComputeBufferIDNS_8SetFlagsE
zRj:__ZNK15dense_hashtableINSt3__24pairIK10KeyWrapperIPK19Il2CppGenericMethodEP10MethodInfoEES6_N6il2cpp8metadata23Il2CppGenericMethodHashEN14dense_hash_mapIS6_S9_SD_NS6_14EqualsComparerINSC_26Il2CppGenericMethodCompareEEENS0_9allocatorISA_EEE9SelectKeyESH_SJ_E5beginEv
PA:__ZN7mecanim21CreateFloatValueArrayEPKNS_18ValueArrayConstantERNS_6memory9AllocatorE
aig:_Thread_GetCachedCurrentCulture_m450033007
q3b:__ZL12CullGroupJobP20CullingGroupsJobDataj
CVj:_GC_remove_dangling_disappearing_links
n1:__ZN11UnityEngine15CloudWebService14RestDownloader9IsAbortedEv
VD:__ZN7mecanim12statemachine28DestroyStateMachineWorkspaceEPNS0_21StateMachineWorkspaceERNS_6memory9AllocatorE
Sk:_emscripten_glNormalPointer
BBc:__Z30GUIStyle_CUSTOM_SetDefaultFontP12Il2CppObject
Z1f:_Interval_t2354235237_marshal_pinvoke_back
qo:FUNCTION_TABLE_f
ep:FUNCTION_TABLE_i
ioe:_Decimal_ToString_m541380585_AdjustorThunk
xha:__ZN11TypeManager12RegisterTypeERK20TypeRegistrationDesc
Hn:FUNCTION_TABLE_v
Vab:__ZNSt3__26vectorI17BlendShapeChannelNS_9allocatorIS1_EEE8__appendEj
JXd:_Image_get_preserveAspect_m2161836851
XL:__ZN19StreamedBinaryWriteILb0EE19TransferSTLStyleMapINSt3__23mapIjN4core12basic_stringIcNS4_20StringStorageDefaultIcEEEENS2_4lessIjEENS2_9allocatorINS2_4pairIKjS8_EEEEEEEEvRT_17TransferMetaFlags
Op:__ZN18StreamedBinaryReadILb0EE21TransferSTLStyleArrayI13dynamic_arrayI8Vector3fLj4EEEEvRT_17TransferMetaFlags
iTb:__ZZ23InitPlayerLoopCallbacksvEN43PostLateUpdateUpdateAllRenderersRegistrator7ForwardEv
Qkb:__ZN21LightProbeProxyVolume13GetRenderDataER27LightProbeProxyVolumeSample
Yje:_CurrentSystemTimeZone_GetDaylightChanges_m2777828412
ssj:__ZN6il2cpp2vm7Runtime30CallUnhandledExceptionDelegateEP12Il2CppDomainP14Il2CppDelegateP15Il2CppException
Faj:_Predicate_1_Invoke_m577088274_gshared
VAi:_Display_GetSystemExtImpl_m4242640572
z6f:_RemotingProxy_get_TypeName_m1400928020
egb:__ZN11TimeManager8TransferI24GenerateTypeTreeTransferEEvRT_
UKe:_SortKeyBuffer_GetResult_m962852575
BKe:_SimpleCollator_Category_m1504096908
Ts:__ZNK11UnityEngine9Animation28GenericAnimationBindingCache10BindCustomERKNS0_14GenericBindingER9TransformRNS0_10BoundCurveE
xvj:__ZN6il2cpp2vm17TypeNameParseInfoC2ERKS1_
Prd:__ZN18UnityConnectClient17InitConnectClientEv
M7h:_ArrayReadOnlyList_1_ReadOnlyError_m2158247090_gshared
F0j:_memcmp
mle:_DateTime_CompareTo_m3372173896
qqd:__ZN11UnityEngine7Connect18ConnectSessionInfo8TransferER9JSONWrite
JFi:_MonoBehaviour_StopCoroutine_Auto_m2947240387
lzi:_Color__ctor_m3831565866
yZ:__Z74Register_UnityEngine_AudioListener_INTERNAL_CALL_ReadExtensionPropertyNamev
Zdb:__ZN9Scripting32GetCachedPtrFromScriptingWrapperE18ScriptingObjectPtr
zjd:__ZN2UI29ScheduleUIJobsForInstructionsERNS_7BatchesEjPKNS_13UIInstructionEfjjPNS_13CanvasJobDataE
vU:__ZN5audio5mixer22CreateAudioMixerMemoryERKNS0_18AudioMixerConstantEPN4FMOD6SystemERN7mecanim6memory9AllocatorEib
zNb:__ZL65EmitSerializationCommandsForLinearCollectionOfManagedObjectsFieldRK31TransferFunctionScriptingTraitsRK23TransferArrayField_InfoR20SerializationCommandR32SerializationCommandQueueBuilderRP20AllowNameConversions
DRf:_RSASslSignatureDeformatter_VerifySignature_m3138484348
DBe:_Array_InternalArray__ICollection_CopyTo_TisDecimal_t724701077_m1087621311_gshared
_Vh:_Enumerator_System_Collections_IDictionaryEnumerator_get_Value_m2325383168_AdjustorThunk
uie:_Convert_ToInt64_m4280008532
euc:__Z28Mesh_CUSTOM_SetTrianglesImplP12Il2CppObjectiP11Il2CppArrayih
U1g:__ZL61RawImage_t2749640213_CustomAttributesCacheGenerator_m_TextureP21CustomAttributesCache
iRb:__ZL20ShaderWarmupFuncImplP6ShaderiPN9ShaderLab4PassERK16ShaderKeywordSetP10DynamicVBOPvR17ShaderPassContext
UUc:__ZN7b2World4StepEfii
Ylj:__ZN15dense_hashtableI10KeyWrapperIPK17Il2CppGenericInstES4_N6il2cpp8metadata21Il2CppGenericInstHashEN14dense_hash_setIS4_S7_NS4_14EqualsComparerINS6_24Il2CppGenericInstCompareEEENSt3__29allocatorIS4_EEE8IdentityESB_SE_E6insertERKS4_
wwj:__ZN15dense_hashtableINSt3__24pairIK10KeyWrapperINS1_IPK14Il2CppAssemblyP11Il2CppClassEEEjEES9_17ReflectionMapHashIS8_EN14dense_hash_mapIS9_jSD_NS9_14EqualsComparerINS0_8equal_toIS8_EEEENS0_9allocatorISB_EEE9SelectKeyESI_SK_E3endEv
tNh:_Scrollbar_set_numberOfSteps_m579707524
xrd:__ZN11UnityEngine7Connect17DeviceStatusEventC2Ev
P0j:_fmt_u
bqa:__ZN14DataBufferGLES12RecordUpdateEv
Iki:_ResourceManager__cctor_m2190112652
m0c:__ZN20TextRenderingPrivate15DynamicFontData28GetFaceForFontRefFromOSFontsERKNS_7FontRefE
Y4e:_StreamWriter__ctor_m4232641237
SNj:__ZN6il2cpp2vm12GenericClass12SetupMethodsEP11Il2CppClass
qvb:__ZNK20LocalFileSystemPosix18GetApplicationPathEv
Uge:_Decimal__ctor_m3876694886
wNb:__ZN9Scripting30IsSystemCollectionsGenericListE17ScriptingClassPtr
E3d:_AttributeUsageAttribute__ctor_m2873156923
Sjd:__ZN2UI23InitializeCanvasManagerEv
rNa:__ZN10GameObject16CheckConsistencyEv
xfc:__ZN14RenderSettings15InitializeClassEv
dYf:_AsnEncodedData_set_Oid_m3568255745
isc:__Z46Register_UnityEngine_GameObject_get_activeSelfv
rSf:_SslClientStream_OnRemoteCertificateValidation2_m3416857045
Dag:_RuntimeTypeHandle_Equals_m452760426_AdjustorThunk
Hfc:__ZL19OnLightProbesUpdatev
uii:_InternalEnumerator_1_System_Collections_IEnumerator_get_Current_m762846484_AdjustorThunk
tbc:__ZN14SpriteRenderer13GetRenderDataEv
Ugj:_AnalyticsTracker_OnEnable_m1011291651
yid:__ZN2UI16GetCanvasManagerEv
hmc:__ZN15GUIEventManager8PopEventER10InputEvent
Gsc:__Z31RectOffset_Get_Custom_PropRightP12Il2CppObject
Scd:__Z54Register_UnityEngine_TextGenerator_GetVerticesInternalv
vyd:__Z3BoxP11Il2CppClassPv
ate:_CultureInfo_Clone_m2970753766
s1f:_IntStack_Push_m1259764820
DAa:__ZN21UniformBufferTFMethodD2Ev
G1e:_FileStream_InitBuffer_m2153931481
Nlg:_Type_MakeGenericType_m2765875033
Zoc:__ZL34GetComponentsImplementationRecurseILb1ELi1ELi2EEbR10GameObjectbRK17CompareParametersRK39GetComponentsImplementation_ReturnValue
Pta:__ZN6prcoreL12RemapGenericI15TexFormatRGB56515TexFormatRGB888EEvPKNS_9InnerInfoE
D_d:_InputField_OnEndDrag_m1818224847
iYe:_NumberFormatter_GetInstance_m2421260460
dJe:_AttributeHelperEngine_GetCustomAttributeOfType_TisRuntimeObject_m2532320824_gshared
Zkd:__Z41CanvasGroup_Get_Custom_PropBlocksRaycastsP12Il2CppObject
gnb:__ZNSt3__26vectorIN9ShaderLab26SerializedShaderDependencyENS_9allocatorIS2_EEE8__appendEj
aah:_EnumBuilder_HasElementTypeImpl_m1414733955
_ca:__ZN32TransformHierarchyChangeDispatch26DispatchSelfAndAllChildrenE15TransformAccessNS_12InterestTypeE
DZ:__Z46Register_UnityEngine_AudioSource_get_isPlayingv
eeg:_UTF32Encoding__ctor_m3199945978
Yda:__ZN13RuntimeStaticI22VirtualJoystickManagerLb0EE13StaticDestroyEPv
ZQ:__ZN13AudioListener12ApplyFiltersEv
ZVe:_SortKey_GetHashCode_m2534654444
gue:_Array_InternalArray__ICollection_Contains_TisInt64_t909078037_m1425723755_gshared
dPf:_HandshakeMessage_Update_m1733566706
_Zj:__ZN6il2cpp8metadata27Il2CppGenericContextCompare7CompareEPK20Il2CppGenericContextS4_
z6j:dynCall_viiii
k9d:_ArrayListWrapper_ToArray_m235921330
meh:_MemberInfoSerializationHolder_Serialize_m4243060728
$Ti:_GUIUtility_Internal_GetGUIDepth_m2168931083
pLh:_MaskableGraphic_OnDisable_m2605143092
Bvj:__ZNSt3__214__split_bufferIN6il2cpp2vm17TypeNameParseInfoERNS_9allocatorIS3_EEED2Ev
Elg:_Type_GetConstructor_m663514781
F_e:_Int64_System_IConvertible_ToDouble_m638786774_AdjustorThunk
Lga:__ZN15DirectorManager14ConnectionPool16GrowEmptyBucketsEv
fYe:_Int16_ToString_m1247017262
R8:__ZN17PersistentManager32CopyToAwakeFromLoadQueueInternalER18AwakeFromLoadQueue
sQc:__ZN10Collider2D23VirtualRedirectTransferER24GenerateTypeTreeTransfer
MYb:__ZNK6Camera16SetActiveVRUsageEv
vng:_UInt32_System_IConvertible_ToUInt16_m2798641702
Oak:_emscripten_glDrawElementsInstanced__wrapper
mHc:__ZL26Transfer_SimpleNativeClassI8JSONRead8GradientLb1EEvRK29SerializationCommandArgumentsR31RuntimeSerializationCommandInfo
h1j:_open
Pld:__Z64Register_UnityEngine_CanvasRenderer_CreateUIVertexStreamInternalv
IWc:__ZN6b2Body7SetTypeE10b2BodyType
CFj:__ZN6il2cpp6icalls8mscorlib6System5Array5CloneEP11Il2CppArray
w6b:__Z30GetPlayerShouldRunInBackgroundv
jii:_InternalEnumerator_1_get_Current_m2986222582_gshared
zfg:_UnicodeEncoding_GetBytes_m4175529985
jkd:__Z13RegisterClassIN2UI6CanvasEEvv
ENh:_Selectable_OnDisable_m2660228016
Jta:__ZN6prcoreL12RemapGenericI11TexFormatI815TexFormatRGB565EEvPKNS_9InnerInfoE
Ish:__Z75RuntimeInvoker_DateTime_t693205669_DateTime_t693205669_TimeSpan_t3430258949PFvvEPK10MethodInfoPvPS4_
jpa:__ZNK13TranslateGLES17FramebufferTargetEN2gl17FramebufferTargetE
fQj:__ZL11on_gc_event11GCEventType
wEj:__ZNSt3__214__split_bufferIN6il2cpp8metadata18GenericArrayMethodERNS_9allocatorIS3_EEED2Ev
oFd:_Single_System_IConvertible_ToBoolean_m2661548087_AdjustorThunk
gUc:__ZNSt3__27__sort5IR31RayHitsByInverseDepthComparitorP12RaycastHit2DEEjT0_S5_S5_S5_S5_T_
zwd:_DSASignatureDeformatter_VerifySignature_m4078616251
B9j:b62
A9j:b61
z9j:b60
Tak:b67
Eze:_Array_InternalArray__IndexOf_TisUInt16_t986882611_m390127593_gshared
LYd:_InputField_set_shouldHideMobileInput_m2478534110
zak:b64
$Hd:_String_Concat_m3881798623
aac:__ZL10SweepEventP14TESStesselatorP10TESSvertex
vah:_FieldBuilder_IsDefined_m2730324893
FHg:__ZL56FlagsAttribute_t859561169_CustomAttributesCacheGeneratorP21CustomAttributesCache
jTa:__ZNSt3__26__treeINS_12__value_typeIi17ShadowCachingDataEENS_19__map_value_compareIiS3_NS_4lessIiEELb1EEE13stl_allocatorIS3_L18MemLabelIdentifier66ELi16EEE7destroyEPNS_11__tree_nodeIS3_PvEE
Vvh:__Z102RuntimeInvoker_RuntimeObject_RuntimeObject_RuntimeObject_Int32_t2071877448_RuntimeObject_RuntimeObjectPFvvEPK10MethodInfoPvPS4_
sFf:_ReadOnlyCollection_1_System_Collections_IList_Insert_m571902768_gshared
Zqh:__Z93RuntimeInvoker_Single_t2076509932_SingleU26_t4173844468_Single_t2076509932_Single_t2076509932PFvvEPK10MethodInfoPvPS4_
B6j:dynCall_iifffi
Bmc:__Z9SetIIMGUIP6IIMGUI
qde:_SyncHashtable_ContainsKey_m3408601214
W4c:_tt_cmap10_get_info
ZPb:__Z28SetupPixelCorrectCoordinatesi
Zjc:__ZNSt3__218__insertion_sort_3IRN10vector_mapIiiNS_4lessIiEE13stl_allocatorINS_4pairIiiEEL18MemLabelIdentifier1ELi16EEE13value_compareEPS6_EEvT0_SD_T_
Dpa:__Z5SplitRKN4core12basic_stringIcNS_20StringStorageDefaultIcEEEEcRNSt3__26vectorIS3_NS6_9allocatorIS3_EEEEi
jij:__ZN6il2cpp2vmL10InitLockedEP11Il2CppClassRKNS_2os12FastAutoLockE
G9:__ZN17ScriptingGCHandle28ResolveBackendNativeGCHandleEj
tgd:__ZN19TilemapRendererJobs26SharedTileSpriteRenderData20CopySpriteRenderDataERNS0_20TileSpriteRenderDataE4PPtrI6SpriteEb
vjc:__ZN13PlayableGraph16DestroyRecursiveEP8Playable
OL:__ZN15SerializeTraitsI9OffsetPtrIN7mecanim9animation19Blend1dDataConstantEEE8TransferI18StreamedBinaryReadILb0EEEEvRS4_RT_
pyc:__ZNK19RectangleCellLayout11CellToLocalERKN4Grid9GridStateERKN4math7_float3E
ope:_Double_System_IConvertible_ToType_m4036266196_AdjustorThunk
iR:__ZN12AudioManagerD0Ev
N0j:___fwritex
Yb:invoke_viiififii
A2e:_Stream_EndRead_m2148943753
Ogb:__ZNK22GenericPropertyBinding13SetFloatValueERKN11UnityEngine9Animation10BoundCurveEf
ofc:__ZN6ShaderC2E18MemLabelIdentifier18ObjectCreationMode
R3j:__ZNSt3__211char_traitsIcE4findEPKcjRS2_
Kbd:_raccess_guess_darwin_ufs_export
CLf:_CipherSuite_get_ExpandedKeyMaterialSize_m296573450
us:__ZN15AnimationBinder17InitCurveIDLookupER14dense_hash_mapI7CurveIDj10hash_curveNSt3__28equal_toIS1_EE13stl_allocatorINS3_4pairIKS1_jEEL18MemLabelIdentifier1ELi16EEE
BSb:__ZN11TypeManager18InitializeAllTypesEv
fP:__ZN9AudioClipD0Ev
vXi:_InvokableCall_3_Invoke_m2530072389_gshared
cve:_Array_InternalArray__ICollection_Remove_TisKeyValuePair_2_t38854645_m3060436673_gshared
jif:_List_1_Find_m3480386930_gshared
m4h:_EqualityComparer_1__cctor_m51007461_gshared
CC:__ZN27AnimationLayerMixerPlayable26ProcessAnimationLayerBeginEP35AnimationPlayableEvaluationConstantP32AnimationPlayableEvaluationInputP33AnimationPlayableEvaluationOutput
Hcc:__Z13RegisterClassI8GUILayerEvv
s9b:__ZN25ThreadsafeLinearAllocatorC2EiiPKc
nLe:_SimpleCollator_IsSuffix_m740049399
Kxa:__ZN14GfxContextGLES11MakeCurrentER7ApiGLESN2gl13ContextHandleE
PHi:_PKCS12__cctor_m3312759338
lad:_UNITY_tt_glyphzone_new
nNf:_RecordProtocol_BeginSendRecord_m166940611
j8e:_ShortComparer_Compare_m1398180168
B8i:_TextGenerationSettings_CompareColors_m2745847049_AdjustorThunk
fDg:__ZL56SecurityAction_t446643378_CustomAttributesCacheGeneratorP21CustomAttributesCache
gRb:__ZN16GraphicsSettings22WarmupPreloadedShadersEv
kmd:__Z34Canvas_Set_Custom_PropSortingOrderP12Il2CppObjecti
M3e:_MonoIO_get_ConsoleError_m592181393
xLb:__ZN18StreamedBinaryReadILb0EE8TransferI13dynamic_arrayI12PropertyNameLj4EEEEvRT_PKc17TransferMetaFlags
jrb:__ZN9ShaderLab4Pass6RetainEv
zej:__ZL11decimalLog2P19il2cpp_decimal_repr
ORf:_SslCipherSuite_prf_m2084589217
cb:invoke_iiiiiiffiiiiiiiiiffffiii
xhd:__ZN2UI6Canvas8TransferI14SafeBinaryReadEEvRT_
YJ:__ZN38StateMachineBehaviourVectorDescription8TransferI14SafeBinaryReadEEvRT_
lKc:__ZN11UnityEngine9Analytics18RenderingInfoEvent12ToJsonStringER9JSONWrite
Sxh:__Z51RuntimeInvoker_Color32_t874517518_Color_t2020392075PFvvEPK10MethodInfoPvPS4_
iIj:__ZN6il2cpp6icalls8mscorlib6System4Type23type_is_assignable_fromEP20Il2CppReflectionTypeS5_
Gxj:__ZN6il2cpp2gc19AppendOnlyGCHashMapIPK10Il2CppTypeP20Il2CppReflectionTypeNS_8metadata14Il2CppTypeHashENS7_26Il2CppTypeEqualityComparerEE3AddERKS4_S6_
t_:__ZN11UnityEngine15CloudWebService17CloudJobScheduler11ScheduleJobEPFvPvES2_
wTg:__ZL57CSSMeasureFunc_t2092170507_CustomAttributesCacheGeneratorP21CustomAttributesCache
OWe:_Guid_Equals_m2389236871_AdjustorThunk
C$:__ZN11UnityEngine15CloudWebService17CloudServiceEvent12ToJsonStringER9JSONWrite
zea:__ZNK18VertexChannelsInfoltERKS_
SDg:__ZL93ASCIIEncoding_t3022927988_CustomAttributesCacheGenerator_ASCIIEncoding_GetDecoder_m3693600923P21CustomAttributesCache
lDc:__ZN9JSONWrite8TransferIfEEvRT_PKc17TransferMetaFlags
RRd:_ContentSizeFitter_SetLayoutHorizontal_m2830034151
yLa:__ZN10MemoryFileD0Ev
Ooc:__ZN10MonoScript27InitializeAndRegisterScriptERKN4core12basic_stringIcNS0_20StringStorageDefaultIcEEEES6_S6_S6_b
qcg:_DES_set_Key_m2689203108
p9h:_InternalEnumerator_1_get_Current_m1526874475_gshared
$Ie:_Array_InternalArray__get_Item_TisWorkRequest_t1154022482_m2456727038_gshared
plc:__ZNSt3__26vectorI4PPtrI17ProceduralTextureE13stl_allocatorIS3_L18MemLabelIdentifier79ELi16EEE6assignIPS3_EENS_9enable_ifIXaasr21__is_forward_iteratorIT_EE5valuesr16is_constructibleIS3_NS_15iterator_traitsISB_E9referenceEEE5valueEvE4typeESB_SB_
fHi:_SubjectAltNameExtension_ToString_m1300810903
OQe:_RSAManaged_ImportParameters_m2382611442
$yb:__ZN13GUIStyleState8TransferI14SafeBinaryReadEEvRT_
Vji:_Comparer_1_System_Collections_IComparer_Compare_m2490067344_gshared
Uri:_PatternCompiler_EmitSet_m866698437
Sd:_glDrawArrays
Ubj:_CanvasRenderer_SetAlphaTexture_m1030438445
SAf:_ReadOnlyCollection_1_System_Collections_IList_Add_m527174473_gshared
Mbi:_InternalEnumerator_1_System_Collections_IEnumerator_get_Current_m127456009_AdjustorThunk
$1i:_HashSet_1_System_Collections_Generic_ICollectionU3CTU3E_CopyTo_m1933244740_gshared
vEg:__ZL54UTF8Encoding_t111055448_CustomAttributesCacheGeneratorP21CustomAttributesCache
KM:__ZN23AnimatedPropertyBuilder5BuildEP13AnimationClip18ScriptingObjectPtr
U0d:_LayoutRebuilder_LayoutComplete_m498127808
BAe:_Array_InternalArray__ICollection_Add_TisInt32_t2071877448_m1775306598_gshared
Xue:_Array_InternalArray__ICollection_Remove_TisChar_t3454481338_m1562002771_gshared
B_e:_Int64_System_IConvertible_ToDateTime_m1002280174_AdjustorThunk
jbb:__ZN14BlendShapeData8TransferI18StreamedBinaryReadILb0EEEEvRT_
w$j:__ZN6il2cpp6icalls8mscorlib6System7Runtime8Remoting7Proxies9RealProxy20InternalGetProxyTypeEP12Il2CppObject
rVb:__ZN13sorted_vectorINSt3__24pairIiN17InstancedPropInfo12PropertyTypeEEEN10vector_mapIiS3_NS0_4lessIiEE13stl_allocatorIS4_L18MemLabelIdentifier1ELi16EEE13value_compareESA_E21sort_clear_duplicatesEv
zad:_Round_To_Grid
u0c:_UNITY_FT_Stream_Close
Tfj:_UnityAnalyticsHandler_SendCustomEvent_m1356877329
qia:__ZL20FormatOrderedProcessPKcP17FormatOrderedDataPc
NJ:__ZNK18AnimatorController13GetBehavioursEv
Erc:__Z35DebugLogHandler_CUSTOM_Internal_Log7LogTypeP12Il2CppStringP12Il2CppObject
IFi:_MonoBehaviour_StopCoroutine_m606332095
Nak:_emscripten_glShaderBinary__wrapper
Ewa:__ZL17ProgramUniform3ivPK7ApiGLESjiihPKv
ula:__ZN9GfxDevice25GetBackBufferColorSurfaceEv
RLa:__ZN25SingleBlockMemoryFileData9SetLengthEy
jkc:__Z29AwakeAndActivateClonedObjectsPP6ObjectRK10vector_mapIiiNSt3__24lessIiEE13stl_allocatorINS3_4pairIiiEEL18MemLabelIdentifier1ELi16EEE
qCj:__ZN15dense_hashtableINSt3__24pairIK10KeyWrapperINS1_IPK10MethodInfoP11Il2CppClassEEEjEES9_17ReflectionMapHashIS8_EN14dense_hash_mapIS9_jSD_NS9_14EqualsComparerINS0_8equal_toIS8_EEEENS0_9allocatorISB_EEE9SelectKeyESI_SK_E14squash_deletedEv
fAh:__Z55RuntimeInvoker_Void_t1841601450_RaycastResult_t21186376PFvvEPK10MethodInfoPvPS4_
Ycc:__Z13RegisterClassI6ShaderEvv
GXe:_Int16_System_IConvertible_ToUInt32_m883204517
ali:_ResourceCacheItem_t333236149_marshal_pinvoke_cleanup
tff:_List_1_CheckMatch_m1196994270_gshared
Lvd:__ZN13RuntimeStaticI11WindManagerLb0EE13StaticDestroyEPv
Bje:_Convert_ToUInt64_m3559662221
GEc:__Z18Transfer_BlittableI9JSONWriteLb1EaEvRK29SerializationCommandArgumentsR31RuntimeSerializationCommandInfo
lCj:__ZN13Il2CppHashMapINSt3__24pairIPK10MethodInfoP11Il2CppClassEEj17ReflectionMapHashIS7_ENS0_8equal_toIS7_EENS0_9allocatorINS1_IK10KeyWrapperIS7_EjEEEEEC2EjRKS9_RKSB_
KYb:__ZN11HaloManager11HasAnyHalosEPK11CullResults
$7d:_ArrayList_set_Item_m1858827078
L9a:__ZN9Texture3D23VirtualRedirectTransferER19StreamedBinaryWriteILb0EE
VCc:__ZN5Unity9rapidjson8internal8PrettifyEPcii
ZIf:_HMAC__ctor_m2605930831
mY:__Z13RegisterClassI10SampleClipEvv
bTc:__Z23b2CollideRadialPolygonsP10b2ManifoldPK14b2PolygonShapeRK11b2TransformS3_S6_
F$b:__ZNK23ForwardShaderRenderLoop18RenderObjectSorterILb1EEclERK21ForwardRenderPassDataS4_
ynj:__ZN15dense_hashtableI10KeyWrapperIPK19Il2CppGenericMethodES4_N6il2cpp8metadata23Il2CppGenericMethodHashEN14dense_hash_setIS4_S7_NS4_14EqualsComparerINS6_26Il2CppGenericMethodCompareEEENSt3__29allocatorIS4_EEE8IdentityESB_SE_E12maybe_shrinkEv
uBa:__ZN10BufferGLES10BeginWriteEjj
xnj:__ZNK15dense_hashtableI10KeyWrapperIPK19Il2CppGenericMethodES4_N6il2cpp8metadata23Il2CppGenericMethodHashEN14dense_hash_setIS4_S7_NS4_14EqualsComparerINS6_26Il2CppGenericMethodCompareEEENSt3__29allocatorIS4_EEE8IdentityESB_SE_E12test_deletedEj
SG:__ZN7mecanim12statemachine18StateMachineMemory8TransferI9BlobWriteEEvRT_
ZBd:_ToBase64Transform_Dispose_m1132043687
kDj:__GLOBAL__sub_I_ArrayMetadata_cpp
Ung:_UInt64_System_IConvertible_ToByte_m953298241
tBa:__ZN7ApiGLES11FlushBufferEjN2gl12BufferTargetEll
Kje:_Convert_ToUInt64_m1896191125
Xzb:__ZN14SafeBinaryRead21TransferSTLStyleArrayI13dynamic_arrayI8BitFieldLj4EEEEvRT_17TransferMetaFlags
aya:__ZN12_GLOBAL__N_127PrepareReadback_ResolveMSAAER18GfxFramebufferGLESR7ApiGLESP17RenderSurfaceGLESS5_
D9g:_EnumBuilder_GetAttributeFlagsImpl_m4263246832
Lyh:__Z98RuntimeInvoker_RaycastHit2D_t4063908774_Vector2_t2243707579_Vector2_t2243707579_Single_t2076509932PFvvEPK10MethodInfoPvPS4_
n7g:_CustomAttributeData_GetHashCode_m3989739430
KSh:_Text_AssignDefaultFont_m1295571657
ahc:__ZNK24RendererAnimationBinding9BindValueER6ObjectRKN11UnityEngine9Animation14GenericBindingERNS3_10BoundCurveE
Re:_glBindBuffer
iLb:__ZN8GUIStyle8TransferI18StreamedBinaryReadILb0EEEEvRT_
hfa:__ZNSt3__213__stable_sortIRN10vector_mapIijNS_4lessIiEENS_9allocatorINS_4pairIijEEEEE13value_compareENS_11__wrap_iterIPS6_EEEEvT0_SE_T_NS_15iterator_traitsISE_E15difference_typeEPNSH_10value_typeEi
FAe:_Array_InternalArray__ICollection_Add_TisCustomAttributeNamedArgument_t94157543_m1003067274_gshared
Fhb:__ZN10VRSettings8Daydream8TransferI18StreamedBinaryReadILb0EEEEvRT_
Ksb:__ZNSt3__218__insertion_sort_3IRNS_6__lessIN4core12basic_stringIcNS2_20StringStorageDefaultIcEEEES6_EEPS6_EEvT0_SA_T_
Wcf:_Enumerator_System_Collections_IEnumerator_Reset_m925111644_gshared
FS:__ZN4FMOD7Channel13set3DPanLevelEf
s0j:_isupper
Gwh:__Z93RuntimeInvoker_Vector3_t2243707580_Vector3_t2243707580_Vector3_t2243707580_Single_t2076509932PFvvEPK10MethodInfoPvPS4_
j6g:_AssemblyName__ctor_m609734316
Cdg:_Encoding_set_DecoderFallback_m2255528738
S_a:__ZNSt3__26__treeINS_12__value_typeIN9ShaderLab16FastPropertyNameEN18UnityPropertySheet11UnityTexEnvEEENS_19__map_value_compareIS3_S6_NS_4lessIS3_EELb1EEENS_9allocatorIS6_EEE7destroyEPNS_11__tree_nodeIS6_PvEE
vt:__ZN13AnimationClip17MainThreadCleanupEv
USf:_InternalAsyncResult_get_IsCompleted_m1463732458
Joj:__ZN6il2cpp2vm13MetadataCache24GetExportedTypeFromIndexEi
QCc:__ZN5Unity9rapidjson6WriterI16TempBufferWriterNS0_4UTF8IcEES4_13JSONAllocatorE9WriteUintEj
_2j:_getuid
lXd:_HorizontalLayoutGroup_CalculateLayoutInputVertical_m3516192138
LN:__ZN7mecanim5human8BoneNameEj
xXi:_InvokableCall_4__ctor_m2170162585_gshared
mdc:__Z13RegisterClassI10MonoScriptEvv
PPe:_AttrListImpl__ctor_m3211398293
aXi:_InvokableCall_1_Invoke_m417090952_gshared
S_c:__ZN20TextRenderingPrivate8FontImpl8TransferI18StreamedBinaryReadILb0EEEEvRT_
Weg:_StringBuilder_get_Chars_m256627635
kLi:_UnityString_Format_m328130606
qqj:__ZN6il2cpp6icalls8mscorlib6System8MonoType22get_IsGenericParameterEP20Il2CppReflectionType
_z:__ZN7mecanim5human14HumanPoseClearERNS0_9HumanPoseE
CNi:_RectTransform_GetLocalCorners_m3824854770
O0e:_MonoIO_GetException_m957022672
u$a:__ZN18StreamedBinaryReadILb0EE19TransferSTLStyleMapINSt3__23mapIN9ShaderLab16FastPropertyNameE10ColorRGBAfNS2_4lessIS5_EENS2_9allocatorINS2_4pairIKS5_S6_EEEEEEEEvRT_17TransferMetaFlags
kPi:_Sprite_get_border_m1504762991
FZf:_X509Certificate2_GetValueAsString_m1286925493
B7d:_Char_ToLower_m2719897546
tEe:_Array_InternalArray__set_Item_TisHitInfo_t1761367055_m2693590376_gshared
$v:__ZN24GenerateTypeTreeTransfer21TransferSTLStyleArrayINSt3__26vectorIN13AnimationClip9PPtrCurveE13stl_allocatorIS4_L18MemLabelIdentifier26ELi16EEEEEEvRT_17TransferMetaFlags
J8e:_MonoType_IsPointerImpl_m648213545
$Ue:_InvalidOperationException__ctor_m2801133788
o6b:__ZN13RenderManager28AreCamerasUsingMotionVectorsEv
kea:__Z25InitializeLODGroupManagerPv
Gna:__ZN13GfxDeviceGLES12EndStereoEyeE15StereoscopicEye
CQd:_CanvasScaler_SetScaleFactor_m3305903109
YAe:_Array_InternalArray__ICollection_Add_TisUriScheme_t1876590943_m3218110478_gshared
JVb:__ZNK12ImageFilters28ApplyAfterTransparentFiltersEv
Z0d:_LayoutRebuilder_U3Cs_RebuildersU3Em__0_m3768099182
hrd:__ZN11UnityEngine7Connect15AppRunningEvent12ToJsonStringER9JSONWrite
c0a:__ZN19ShaderPropertySheet5ClearEb
PPf:_TlsServerCertificate_ProcessAsTls1_m3083203628
qBf:_ReadOnlyCollection_1_System_Collections_Generic_IListU3CTU3E_set_Item_m1099846173_gshared
hWb:__ZNK6Camera11GetPositionEv
uy:__ZN8Animator19CreatePlayableGraphEv
tek:_emscripten_glClearDepth__wrapper
Lie:_Convert_ToSByte_m1880147062
Tvb:__ZNK16MemoryFileSystem8FilenameERK13FileEntryData
Vf:_glUniform1fv
Zf:_JS_FileSystem_Sync
ayd:_MD5CryptoServiceProvider_HashCore_m2367253552
ooa:__ZNSt3__26__treeINS_12__value_typeI21GLESRenderTargetSetupN2gl6HandleILNS3_10ObjectTypeE9EEEEENS_19__map_value_compareIS2_S7_NS_4lessIS2_EELb1EEENS_9allocatorIS7_EEE7destroyEPNS_11__tree_nodeIS7_PvEE
bJi:_X509StoreManager_get_TrustedRootCertificates_m122138510
GYc:__ZN11Rigidbody2D11SetVelocityERK8Vector2f
eya:__ZN4gles15BlitFramebufferERNS_23BlitFramebufferDrawQuadER9GfxDeviceii9TextureIDiiiiiiii
Xf:__emscripten_sample_gamepad_data
xec:__Z22DelayedDestroyCallbackP6ObjectPv
$ak:_glBlendEquationSeparate__wrapper
HWd:_GraphicRegistry__cctor_m4197769737
fXc:__ZN15b2ContactFilter13ShouldCollideEP9b2FixtureS1_
Taa:__Z34scripting_class_get_declaring_type17ScriptingClassPtr
Frd:__ZN11UnityEngine7Connect20BasePersistentValues13RestoreValuesER8JSONRead
sKf:_KeyGeneratedEventHandler_Invoke_m1298576133
a$d:_InputField_Rebuild_m3481959062
Vfb:__ZN11TimeManagerD0Ev
p1:__ZN11UnityEngine15CloudWebService18RestFileDownloader10InitializeERKN4core12basic_stringIcNS2_20StringStorageDefaultIcEEEE
TU:__ZN12AudioManager33GetAudioEffectInternalDefinitionsEv
a3a:__ZN9Texture2D16DeleteGfxTextureEv
Nub:__ZN20LocalFileSystemPosix4OpenER13FileEntryData14FilePermission16FileAutoBehavior
TIf:_KeyBuilder_get_Rng_m2539978716
B2i:_AudioClip_InvokePCMSetPositionCallback_Internal_m1220105088
AHe:_BaseInvokableCall_ThrowOnInvalidArg_TisVector2_t2243707579_m879131569_gshared
Hmj:__ZN15dense_hashtableINSt3__24pairIK10KeyWrapperIN6il2cpp5utils13dynamic_arrayIPK10Il2CppTypeLj4EEEEPFvvEEESA_NS3_8metadata19Il2CppSignatureHashEN14dense_hash_mapISA_SD_SG_NSA_14EqualsComparerINSF_22Il2CppSignatureCompareEEENS0_9allocatorISE_EEE9SelectKeyESK_SM_ED2Ev
mhd:__ZN2UI6Canvas12AddToManagerEv
M3c:_UNITY_tt_face_load_sbit
Rjc:__Z37GetTransformFromComponentOrGameObjectP6Object
BWh:_ShimEnumerator_get_Current_m2516732679_gshared
x8c:_cf2_hint_isTop
r5b:__ZN23ManagedAttributeManager21GetRequiredComponentsE17ScriptingClassPtr
h7b:__Z23InitializeStdConvertersv
ev:__ZNSt3__26vectorIN13AnimationClip10FloatCurveE13stl_allocatorIS2_L18MemLabelIdentifier26ELi16EEE7reserveEj
Ftf:_Collection_1_Contains_m3292349561_gshared
gYd:_Image_SetNativeSize_m3580044470
F_b:__ZN19ShaderPropertySheet17UpdateTextureInfoEiRK23FastTexturePropertyNamePK10TextureRef
Q6c:_ps_unicodes_init
bTb:__ZZ23InitPlayerLoopCallbacksvEN38PreUpdateCheckTexFieldInputRegistrator7ForwardEv
kKj:__ZNK10KeyWrapperINSt3__24pairIPKcS3_EEE14EqualsComparerI26NamespaceAndNamePairEqualsEclERKS5_SA_
jNb:__ZN13MonoBehaviour17StopAllCoroutinesEv
Iea:__Z34CleanupIntermediateRendererManagerPv
kSe:_X509CertificateEnumerator__ctor_m1500464146
P9b:__Z15tessMeshNewMeshP9TESSalloc
Skg:_Type_get_IsPointer_m3832342327
SHj:__ZN6il2cpp2vm9Exception27GetExecutionEngineExceptionEPKc
f0h:_Dictionary_2_System_Collections_ICollection_CopyTo_m2784181332_gshared
JO:__Z43Register_UnityEngine_Animator_SetBoolStringv
kh:_JS_WebRequest_GetResponseHeaders
DOb:__ZNSt3__26__treeINS_12__value_typeI26SerializedObjectIdentifieriEENS_19__map_value_compareIS2_S3_NS_4lessIS2_EELb1EEENS_9allocatorIS3_EEE7destroyEPNS_11__tree_nodeIS3_PvEE
k3c:_UNITY_FT_Create_Class_tt_cmap_classes
Iwj:__ZN15dense_hashtableINSt3__24pairIK10KeyWrapperINS1_IPK14Il2CppAssemblyP11Il2CppClassEEEjEES9_17ReflectionMapHashIS8_EN14dense_hash_mapIS9_jSD_NS9_14EqualsComparerINS0_8equal_toIS8_EEEENS0_9allocatorISB_EEE9SelectKeyESI_SK_EC2ERKSN_j
Hoc:__ZN9Scripting18RaiseNullExceptionEPKcz
yBf:_ReadOnlyCollection_1_System_Collections_IList_Insert_m2659121605_gshared
Xga:__ZN13RuntimeStaticI13RendererSceneLb0EE16StaticInitializeEPv
CXc:__ZZN10Collider2D15InitializeClassEvEN28FunctorImpl_100kSetPolygon2D4CallEPviR11MessageData
vh:_glCreateProgram
SAj:__ZN6il2cpp2vm10Reflection7IsFieldEP12Il2CppObject
kCe:_Array_InternalArray__ICollection_CopyTo_TisContentType_t1028629049_m330597634_gshared
T9i:_Nullable_1_get_Value_m1743067844_gshared
I9d:_SimpleEnumerator_Reset_m3524591211
ngd:__ZN19TilemapRendererJobs26SharedTileSpriteRenderDataD2Ev
_Oa:__ZN24GenerateTypeTreeTransfer32TransferSTLStyleArrayWithElementI17SortingLayerEntryEEvRT_17TransferMetaFlags
T9j:_glUniformMatrix3fv__wrapper
mUa:__ZN5Light9SetupHaloEv
